libmxnet.so:MXAggregateProfileStatsPrint
libmxnet.so:MXAggregateProfileStatsPrintEx
libmxnet.so:MXAutogradBackward
libmxnet.so:MXAutogradBackwardEx
libmxnet.so:MXAutogradComputeGradient
libmxnet.so:MXAutogradGetSymbol
libmxnet.so:MXAutogradIsRecording
libmxnet.so:MXAutogradIsTraining
libmxnet.so:MXAutogradMarkVariables
libmxnet.so:MXAutogradSetIsRecording
libmxnet.so:MXAutogradSetIsTraining
libmxnet.so:MXBuildSubgraphByOpNames
libmxnet.so:MXCreateCachedOp
libmxnet.so:MXCreateCachedOpEx
libmxnet.so:MXCustomFunctionRecord
libmxnet.so:MXCustomOpRegister
libmxnet.so:MXDataIterBeforeFirst
libmxnet.so:MXDataIterCreateIter
libmxnet.so:MXDataIterFree
libmxnet.so:MXDataIterGetData
libmxnet.so:MXDataIterGetIndex
libmxnet.so:MXDataIterGetIterInfo
libmxnet.so:MXDataIterGetLabel
libmxnet.so:MXDataIterGetPadNum
libmxnet.so:MXDataIterNext
libmxnet.so:MXDumpProcessProfile
libmxnet.so:MXDumpProfile
libmxnet.so:MXEnginePushAsync
libmxnet.so:MXEnginePushAsyncND
libmxnet.so:MXEnginePushSync
libmxnet.so:MXEnginePushSyncND
libmxnet.so:MXEngineSetBulkSize
libmxnet.so:MXExecutorBackward
libmxnet.so:MXExecutorBackwardEx
libmxnet.so:MXExecutorBind
libmxnet.so:MXExecutorBindEX
libmxnet.so:MXExecutorBindX
libmxnet.so:MXExecutorForward
libmxnet.so:MXExecutorFree
libmxnet.so:MXExecutorGetOptimizedSymbol
libmxnet.so:MXExecutorOutputs
libmxnet.so:MXExecutorPrint
libmxnet.so:MXExecutorReshape
libmxnet.so:MXExecutorReshapeEx
libmxnet.so:MXExecutorSetMonitorCallback
libmxnet.so:MXExecutorSetMonitorCallbackEX
libmxnet.so:MXExecutorSimpleBind
libmxnet.so:MXExecutorSimpleBindEx
libmxnet.so:MXFreeCachedOp
libmxnet.so:MXFuncDescribe
libmxnet.so:MXFuncGetInfo
libmxnet.so:MXFuncInvoke
libmxnet.so:MXFuncInvokeEx
libmxnet.so:MXGenAtomicSymbolFromSymbol
libmxnet.so:MXGenBackendSubgraph
libmxnet.so:MXGetFunction
libmxnet.so:MXGetGPUCount
libmxnet.so:MXGetGPUMemoryInformation
libmxnet.so:MXGetGPUMemoryInformation64
libmxnet.so:MXGetLastError
libmxnet.so:MXGetVersion
libmxnet.so:MXImperativeInvoke
libmxnet.so:MXImperativeInvokeEx
libmxnet.so:MXInitPSEnv
libmxnet.so:MXInvokeCachedOp
libmxnet.so:MXInvokeCachedOpEx
libmxnet.so:MXIsNumpyShape
libmxnet.so:MXKVStoreBarrier
libmxnet.so:MXKVStoreCreate
libmxnet.so:MXKVStoreFree
libmxnet.so:MXKVStoreGetGroupSize
libmxnet.so:MXKVStoreGetNumDeadNode
libmxnet.so:MXKVStoreGetRank
libmxnet.so:MXKVStoreGetType
libmxnet.so:MXKVStoreInit
libmxnet.so:MXKVStoreInitEx
libmxnet.so:MXKVStoreIsSchedulerNode
libmxnet.so:MXKVStoreIsServerNode
libmxnet.so:MXKVStoreIsWorkerNode
libmxnet.so:MXKVStorePull
libmxnet.so:MXKVStorePullEx
libmxnet.so:MXKVStorePullRowSparse
libmxnet.so:MXKVStorePullRowSparseEx
libmxnet.so:MXKVStorePullWithSparse
libmxnet.so:MXKVStorePullWithSparseEx
libmxnet.so:MXKVStorePush
libmxnet.so:MXKVStorePushEx
libmxnet.so:MXKVStoreRunServer
libmxnet.so:MXKVStoreSendCommmandToServers
libmxnet.so:MXKVStoreSetBarrierBeforeExit
libmxnet.so:MXKVStoreSetGradientCompression
libmxnet.so:MXKVStoreSetUpdater
libmxnet.so:MXKVStoreSetUpdaterEx
libmxnet.so:MXLibInfoFeatures
libmxnet.so:MXListAllOpNames
libmxnet.so:MXListDataIters
libmxnet.so:MXListFunctions
libmxnet.so:MXNDArrayAt
libmxnet.so:MXNDArrayCallDLPackDeleter
libmxnet.so:MXNDArrayCreate
libmxnet.so:MXNDArrayCreateEx
libmxnet.so:MXNDArrayCreateFromSharedMem
libmxnet.so:MXNDArrayCreateFromSharedMemEx
libmxnet.so:MXNDArrayCreateNone
libmxnet.so:MXNDArrayCreateSparseEx
libmxnet.so:MXNDArrayDetach
libmxnet.so:MXNDArrayFree
libmxnet.so:MXNDArrayFromDLPack
libmxnet.so:MXNDArrayFromDLPackEx
libmxnet.so:MXNDArrayGetAuxNDArray
libmxnet.so:MXNDArrayGetAuxType
libmxnet.so:MXNDArrayGetContext
libmxnet.so:MXNDArrayGetDType
libmxnet.so:MXNDArrayGetData
libmxnet.so:MXNDArrayGetDataNDArray
libmxnet.so:MXNDArrayGetGrad
libmxnet.so:MXNDArrayGetGradState
libmxnet.so:MXNDArrayGetShape
libmxnet.so:MXNDArrayGetShapeEx
libmxnet.so:MXNDArrayGetSharedMemHandle
libmxnet.so:MXNDArrayGetStorageType
libmxnet.so:MXNDArrayLoad
libmxnet.so:MXNDArrayLoadFromBuffer
libmxnet.so:MXNDArrayLoadFromRawBytes
libmxnet.so:MXNDArrayReshape
libmxnet.so:MXNDArrayReshape64
libmxnet.so:MXNDArraySave
libmxnet.so:MXNDArraySaveRawBytes
libmxnet.so:MXNDArraySetGradState
libmxnet.so:MXNDArraySlice
libmxnet.so:MXNDArraySyncCheckFormat
libmxnet.so:MXNDArraySyncCopyFromCPU
libmxnet.so:MXNDArraySyncCopyFromNDArray
libmxnet.so:MXNDArraySyncCopyToCPU
libmxnet.so:MXNDArrayToDLPack
libmxnet.so:MXNDArrayWaitAll
libmxnet.so:MXNDArrayWaitToRead
libmxnet.so:MXNDArrayWaitToWrite
libmxnet.so:MXNDListCreate
libmxnet.so:MXNDListFree
libmxnet.so:MXNDListGet
libmxnet.so:MXNotifyShutdown
libmxnet.so:MXPredCreate
libmxnet.so:MXPredCreateMultiThread
libmxnet.so:MXPredCreatePartialOut
libmxnet.so:MXPredForward
libmxnet.so:MXPredFree
libmxnet.so:MXPredGetOutput
libmxnet.so:MXPredGetOutputShape
libmxnet.so:MXPredPartialForward
libmxnet.so:MXPredReshape
libmxnet.so:MXPredSetInput
libmxnet.so:MXProcessProfilePause
libmxnet.so:MXProfileAdjustCounter
libmxnet.so:MXProfileCreateCounter
libmxnet.so:MXProfileCreateDomain
libmxnet.so:MXProfileCreateEvent
libmxnet.so:MXProfileCreateFrame
libmxnet.so:MXProfileCreateTask
libmxnet.so:MXProfileDestroyHandle
libmxnet.so:MXProfileDurationStart
libmxnet.so:MXProfileDurationStop
libmxnet.so:MXProfilePause
libmxnet.so:MXProfileSetCounter
libmxnet.so:MXProfileSetMarker
libmxnet.so:MXQuantizeSymbol
libmxnet.so:MXRandomSeed
libmxnet.so:MXRandomSeedContext
libmxnet.so:MXRecordIOReaderCreate
libmxnet.so:MXRecordIOReaderFree
libmxnet.so:MXRecordIOReaderReadRecord
libmxnet.so:MXRecordIOReaderSeek
libmxnet.so:MXRecordIOReaderTell
libmxnet.so:MXRecordIOWriterCreate
libmxnet.so:MXRecordIOWriterFree
libmxnet.so:MXRecordIOWriterTell
libmxnet.so:MXRecordIOWriterWriteRecord
libmxnet.so:MXRemoveSubgraphPropertyOpNames
libmxnet.so:MXRtcCreate
libmxnet.so:MXRtcCudaKernelCall
libmxnet.so:MXRtcCudaKernelCreate
libmxnet.so:MXRtcCudaKernelFree
libmxnet.so:MXRtcCudaModuleCreate
libmxnet.so:MXRtcCudaModuleFree
libmxnet.so:MXRtcFree
libmxnet.so:MXRtcPush
libmxnet.so:MXSetCalibTableToQuantizedSymbol
libmxnet.so:MXSetIsNumpyShape
libmxnet.so:MXSetNumOMPThreads
libmxnet.so:MXSetProcessProfilerConfig
libmxnet.so:MXSetProcessProfilerState
libmxnet.so:MXSetProfilerConfig
libmxnet.so:MXSetProfilerState
libmxnet.so:MXSetSubgraphPropertyOpNames
libmxnet.so:MXStorageEmptyCache
libmxnet.so:MXSymbolCompose
libmxnet.so:MXSymbolCopy
libmxnet.so:MXSymbolCreateAtomicSymbol
libmxnet.so:MXSymbolCreateFromFile
libmxnet.so:MXSymbolCreateFromJSON
libmxnet.so:MXSymbolCreateGroup
libmxnet.so:MXSymbolCreateVariable
libmxnet.so:MXSymbolCutSubgraph
libmxnet.so:MXSymbolFree
libmxnet.so:MXSymbolGetAtomicSymbolInfo
libmxnet.so:MXSymbolGetAtomicSymbolName
libmxnet.so:MXSymbolGetAttr
libmxnet.so:MXSymbolGetChildren
libmxnet.so:MXSymbolGetInputSymbols
libmxnet.so:MXSymbolGetInternals
libmxnet.so:MXSymbolGetName
libmxnet.so:MXSymbolGetNumOutputs
libmxnet.so:MXSymbolGetOutput
libmxnet.so:MXSymbolGrad
libmxnet.so:MXSymbolInferShape
libmxnet.so:MXSymbolInferShapeEx
libmxnet.so:MXSymbolInferShapePartial
libmxnet.so:MXSymbolInferShapePartialEx
libmxnet.so:MXSymbolInferType
libmxnet.so:MXSymbolInferTypePartial
libmxnet.so:MXSymbolListArguments
libmxnet.so:MXSymbolListAtomicSymbolCreators
libmxnet.so:MXSymbolListAttr
libmxnet.so:MXSymbolListAttrShallow
libmxnet.so:MXSymbolListAuxiliaryStates
libmxnet.so:MXSymbolListOutputs
libmxnet.so:MXSymbolPrint
libmxnet.so:MXSymbolRemoveAmpCast
libmxnet.so:MXSymbolSaveToFile
libmxnet.so:MXSymbolSaveToJSON
libmxnet.so:MXSymbolSetAttr
libmxnet.so:MXTVMBridge
libmxnet.so:NNAPISetLastError
libmxnet.so:NNAddControlDeps
libmxnet.so:NNGetLastError
libmxnet.so:NNGetOpHandle
libmxnet.so:NNGetOpInfo
libmxnet.so:NNGraphApplyPasses
libmxnet.so:NNGraphCreate
libmxnet.so:NNGraphFree
libmxnet.so:NNGraphGetJSONAttr
libmxnet.so:NNGraphGetSymbol
libmxnet.so:NNGraphSetJSONAttr
libmxnet.so:NNGraphSetNodeEntryListAttr_
libmxnet.so:NNListAllOpNames
libmxnet.so:NNListUniqueOps
libmxnet.so:NNSymbolCompose
libmxnet.so:NNSymbolCopy
libmxnet.so:NNSymbolCreateAtomicSymbol
libmxnet.so:NNSymbolCreateGroup
libmxnet.so:NNSymbolCreateVariable
libmxnet.so:NNSymbolFree
libmxnet.so:NNSymbolGetAttr
libmxnet.so:NNSymbolGetChildren
libmxnet.so:NNSymbolGetInternals
libmxnet.so:NNSymbolGetNumOutputs
libmxnet.so:NNSymbolGetOutput
libmxnet.so:NNSymbolListAttrs
libmxnet.so:NNSymbolListInputNames
libmxnet.so:NNSymbolListInputVariables
libmxnet.so:NNSymbolListOutputNames
libmxnet.so:NNSymbolPrint
libmxnet.so:NNSymbolSetAttrs
libmxnet.so:_Z17MXAPISetLastErrorPKc
libmxnet.so:_Z17_CreatePartialOutPKcPKviiijPS0_PKjS5_jS3_ibPPv
libmxnet.so:_Z18SetNDInputsOutputsPKN4nnvm2OpEPSt6vectorIPN5mxnet7NDArrayESaIS6_EES9_iPKPvPiiiPPSA_
libmxnet.so:_Z21AssertValidNumberVarsii
libmxnet.so:_Z22MXImperativeInvokeImplPviPS_PiPS0_iPPKcS5_
libmxnet.so:_Z23MXKVStoreSetUpdaterImplPvPFviS_S_S_ES_
libmxnet.so:_ZN18ProfileConfigParam11__MANAGER__Ev
libmxnet.so:_ZN23ProfileMarkerScopeParam11__MANAGER__Ev
libmxnet.so:_ZN4dmlc20JSONObjectReadHelper14ReaderFunctionINSt7__cxx1112basic_stringIcSt11char_traitsIcESaIcEEEEEvPNS_10JSONReaderEPv
libmxnet.so:_ZN4dmlc20JSONObjectReadHelper14ReaderFunctionISt13unordered_mapINSt7__cxx1112basic_stringIcSt11char_traitsIcESaIcEEES8_St4hashIS8_ESt8equal_toIS8_ESaISt4pairIKS8_S8_EEEEEvPNS_10JSONReaderEPv
libmxnet.so:_ZN4dmlc20JSONObjectReadHelper14ReaderFunctionISt13unordered_mapINSt7__cxx1112basic_stringIcSt11char_traitsIcESaIcEEESt10shared_ptrINS_3anyEESt4hashIS8_ESt8equal_toIS8_ESaISt4pairIKS8_SB_EEEEEvPNS_10JSONReaderEPv
libmxnet.so:_ZN4dmlc20JSONObjectReadHelper14ReaderFunctionISt6vectorIjSaIjEEEEvPNS_10JSONReaderEPv
libmxnet.so:_ZN4dmlc20JSONObjectReadHelper14ReaderFunctionIiEEvPNS_10JSONReaderEPv
libmxnet.so:_ZN4dmlc3any10TypeOnHeapIN4nnvm5GraphEE16create_from_dataEPNS0_4DataERKS5_
libmxnet.so:_ZN4dmlc3any10TypeOnHeapIN4nnvm5GraphEE7destroyEPNS0_4DataE
libmxnet.so:_ZN4dmlc3any10TypeOnHeapIN4nnvm5OpMapINSt7__cxx1112basic_stringIcSt11char_traitsIcESaIcEEEEEE16create_from_dataEPNS0_4DataERKSC_
libmxnet.so:_ZN4dmlc3any10TypeOnHeapIN4nnvm5OpMapINSt7__cxx1112basic_stringIcSt11char_traitsIcESaIcEEEEEE7destroyEPNS0_4DataE
libmxnet.so:_ZN4dmlc3any10TypeOnHeapIN4nnvm5OpMapISt8functionIFN5mxnet10OpStatePtrERKNS2_9NodeAttrsENS5_7ContextERKSt6vectorINS5_6TShapeESaISC_EERKSB_IiSaIiEEEEEEE16create_from_dataEPNS0_4DataERKSP_
libmxnet.so:_ZN4dmlc3any10TypeOnHeapIN4nnvm5OpMapISt8functionIFN5mxnet10OpStatePtrERKNS2_9NodeAttrsENS5_7ContextERKSt6vectorINS5_6TShapeESaISC_EERKSB_IiSaIiEEEEEEE7destroyEPNS0_4DataE
libmxnet.so:_ZN4dmlc3any10TypeOnHeapIN4nnvm5OpMapISt8functionIFN5mxnet8ExecTypeERKNS2_9NodeAttrsEEEEEE16create_from_dataEPNS0_4DataERKSE_
libmxnet.so:_ZN4dmlc3any10TypeOnHeapIN4nnvm5OpMapISt8functionIFN5mxnet8ExecTypeERKNS2_9NodeAttrsEEEEEE7destroyEPNS0_4DataE
libmxnet.so:_ZN4dmlc3any10TypeOnHeapIN4nnvm5OpMapISt8functionIFSt10shared_ptrINS2_4NodeEERKNS2_9NodeAttrsEEEEEE16create_from_dataEPNS0_4DataERKSF_
libmxnet.so:_ZN4dmlc3any10TypeOnHeapIN4nnvm5OpMapISt8functionIFSt10shared_ptrINS2_4NodeEERKNS2_9NodeAttrsEEEEEE7destroyEPNS0_4DataE
libmxnet.so:_ZN4dmlc3any10TypeOnHeapIN4nnvm5OpMapISt8functionIFSt6vectorIN5mxnet15ResourceRequestESaIS7_EERKNS2_9NodeAttrsEEEEEE16create_from_dataEPNS0_4DataERKSH_
libmxnet.so:_ZN4dmlc3any10TypeOnHeapIN4nnvm5OpMapISt8functionIFSt6vectorIN5mxnet15ResourceRequestESaIS7_EERKNS2_9NodeAttrsEEEEEE7destroyEPNS0_4DataE
libmxnet.so:_ZN4dmlc3any10TypeOnHeapIN4nnvm5OpMapISt8functionIFSt6vectorIN5mxnet15ResourceRequestESaIS7_EERKNS2_9NodeAttrsEiNS6_12DispatchModeEEEEEE16create_from_dataEPNS0_4DataERKSI_
libmxnet.so:_ZN4dmlc3any10TypeOnHeapIN4nnvm5OpMapISt8functionIFSt6vectorIN5mxnet15ResourceRequestESaIS7_EERKNS2_9NodeAttrsEiNS6_12DispatchModeEEEEEE7destroyEPNS0_4DataE
libmxnet.so:_ZN4dmlc3any10TypeOnHeapIN4nnvm5OpMapISt8functionIFSt6vectorINS2_9NodeEntryESaIS6_EERKSt10shared_ptrINS2_4NodeEERKS8_EEEEE16create_from_dataEPNS0_4DataERKSK_
libmxnet.so:_ZN4dmlc3any10TypeOnHeapIN4nnvm5OpMapISt8functionIFSt6vectorINS2_9NodeEntryESaIS6_EERKSt10shared_ptrINS2_4NodeEERKS8_EEEEE7destroyEPNS0_4DataE
libmxnet.so:_ZN4dmlc3any10TypeOnHeapIN4nnvm5OpMapISt8functionIFSt6vectorINSt7__cxx1112basic_stringIcSt11char_traitsIcESaIcEEESaISB_EERKNS2_9NodeAttrsEEEEEE16create_from_dataEPNS0_4DataERKSL_
libmxnet.so:_ZN4dmlc3any10TypeOnHeapIN4nnvm5OpMapISt8functionIFSt6vectorINSt7__cxx1112basic_stringIcSt11char_traitsIcESaIcEEESaISB_EERKNS2_9NodeAttrsEEEEEE7destroyEPNS0_4DataE
libmxnet.so:_ZN4dmlc3any10TypeOnHeapIN4nnvm5OpMapISt8functionIFSt6vectorISt4pairIiiESaIS7_EERKNS2_9NodeAttrsEEEEEE16create_from_dataEPNS0_4DataERKSH_
libmxnet.so:_ZN4dmlc3any10TypeOnHeapIN4nnvm5OpMapISt8functionIFSt6vectorISt4pairIiiESaIS7_EERKNS2_9NodeAttrsEEEEEE7destroyEPNS0_4DataE
libmxnet.so:_ZN4dmlc3any10TypeOnHeapIN4nnvm5OpMapISt8functionIFSt6vectorIbSaIbEERKNS2_9NodeAttrsEEEEEE16create_from_dataEPNS0_4DataERKSF_
libmxnet.so:_ZN4dmlc3any10TypeOnHeapIN4nnvm5OpMapISt8functionIFSt6vectorIbSaIbEERKNS2_9NodeAttrsEEEEEE7destroyEPNS0_4DataE
libmxnet.so:_ZN4dmlc3any10TypeOnHeapIN4nnvm5OpMapISt8functionIFSt6vectorIjSaIjEERKNS2_9NodeAttrsEEEEEE16create_from_dataEPNS0_4DataERKSF_
libmxnet.so:_ZN4dmlc3any10TypeOnHeapIN4nnvm5OpMapISt8functionIFSt6vectorIjSaIjEERKNS2_9NodeAttrsEEEEEE7destroyEPNS0_4DataE
libmxnet.so:_ZN4dmlc3any10TypeOnHeapIN4nnvm5OpMapISt8functionIFbRKNS2_9NodeAttrsEEEEEE16create_from_dataEPNS0_4DataERKSC_
libmxnet.so:_ZN4dmlc3any10TypeOnHeapIN4nnvm5OpMapISt8functionIFbRKNS2_9NodeAttrsEEEEEE7destroyEPNS0_4DataE
libmxnet.so:_ZN4dmlc3any10TypeOnHeapIN4nnvm5OpMapISt8functionIFbRKNS2_9NodeAttrsEPSt6vectorIN5mxnet6TShapeESaISA_EESD_EEEEE16create_from_dataEPNS0_4DataERKSI_
libmxnet.so:_ZN4dmlc3any10TypeOnHeapIN4nnvm5OpMapISt8functionIFbRKNS2_9NodeAttrsEPSt6vectorIN5mxnet6TShapeESaISA_EESD_EEEEE7destroyEPNS0_4DataE
libmxnet.so:_ZN4dmlc3any10TypeOnHeapIN4nnvm5OpMapISt8functionIFbRKNS2_9NodeAttrsEPSt6vectorINS2_6LayoutESaIS9_EEPKSB_SC_EEEEE16create_from_dataEPNS0_4DataERKSJ_
libmxnet.so:_ZN4dmlc3any10TypeOnHeapIN4nnvm5OpMapISt8functionIFbRKNS2_9NodeAttrsEPSt6vectorINS2_6LayoutESaIS9_EEPKSB_SC_EEEEE7destroyEPNS0_4DataE
libmxnet.so:_ZN4dmlc3any10TypeOnHeapIN4nnvm5OpMapISt8functionIFbRKNS2_9NodeAttrsEPSt6vectorINS2_6TShapeESaIS9_EESC_EEEEE16create_from_dataEPNS0_4DataERKSH_
libmxnet.so:_ZN4dmlc3any10TypeOnHeapIN4nnvm5OpMapISt8functionIFbRKNS2_9NodeAttrsEPSt6vectorINS2_6TShapeESaIS9_EESC_EEEEE7destroyEPNS0_4DataE
libmxnet.so:_ZN4dmlc3any10TypeOnHeapIN4nnvm5OpMapISt8functionIFbRKNS2_9NodeAttrsEPSt6vectorIiSaIiEESB_EEEEE16create_from_dataEPNS0_4DataERKSG_
libmxnet.so:_ZN4dmlc3any10TypeOnHeapIN4nnvm5OpMapISt8functionIFbRKNS2_9NodeAttrsEPSt6vectorIiSaIiEESB_EEEEE7destroyEPNS0_4DataE
libmxnet.so:_ZN4dmlc3any10TypeOnHeapIN4nnvm5OpMapISt8functionIFbRKNS2_9NodeAttrsEiPN5mxnet12DispatchModeEPSt6vectorIiSaIiEESE_EEEEE16create_from_dataEPNS0_4DataERKSJ_
libmxnet.so:_ZN4dmlc3any10TypeOnHeapIN4nnvm5OpMapISt8functionIFbRKNS2_9NodeAttrsEiPN5mxnet12DispatchModeEPSt6vectorIiSaIiEESE_EEEEE7destroyEPNS0_4DataE
libmxnet.so:_ZN4dmlc3any10TypeOnHeapIN4nnvm5OpMapISt8functionIFbRKNS2_9NodeAttrsEmEEEEE16create_from_dataEPNS0_4DataERKSC_
libmxnet.so:_ZN4dmlc3any10TypeOnHeapIN4nnvm5OpMapISt8functionIFbRKNS2_9NodeAttrsEmEEEEE7destroyEPNS0_4DataE
libmxnet.so:_ZN4dmlc3any10TypeOnHeapIN4nnvm5OpMapISt8functionIFjRKNS2_9NodeAttrsEEEEEE16create_from_dataEPNS0_4DataERKSC_
libmxnet.so:_ZN4dmlc3any10TypeOnHeapIN4nnvm5OpMapISt8functionIFjRKNS2_9NodeAttrsEEEEEE7destroyEPNS0_4DataE
libmxnet.so:_ZN4dmlc3any10TypeOnHeapIN4nnvm5OpMapISt8functionIFvRKN5mxnet10OpStatePtrERKNS5_9OpContextERKSt6vectorINS5_5TBlobESaISD_EERKSC_INS5_9OpReqTypeESaISI_EESH_EEEEE16create_from_dataEPNS0_4DataERKSR_
libmxnet.so:_ZN4dmlc3any10TypeOnHeapIN4nnvm5OpMapISt8functionIFvRKN5mxnet10OpStatePtrERKNS5_9OpContextERKSt6vectorINS5_5TBlobESaISD_EERKSC_INS5_9OpReqTypeESaISI_EESH_EEEEE7destroyEPNS0_4DataE
libmxnet.so:_ZN4dmlc3any10TypeOnHeapIN4nnvm5OpMapISt8functionIFvRKN5mxnet10OpStatePtrERKNS5_9OpContextERKSt6vectorINS5_7NDArrayESaISD_EERKSC_INS5_9OpReqTypeESaISI_EESH_EEEEE16create_from_dataEPNS0_4DataERKSR_
libmxnet.so:_ZN4dmlc3any10TypeOnHeapIN4nnvm5OpMapISt8functionIFvRKN5mxnet10OpStatePtrERKNS5_9OpContextERKSt6vectorINS5_7NDArrayESaISD_EERKSC_INS5_9OpReqTypeESaISI_EESH_EEEEE7destroyEPNS0_4DataE
libmxnet.so:_ZN4dmlc3any10TypeOnHeapIN4nnvm5OpMapISt8functionIFvRKNS2_9NodeAttrsERKN5mxnet9OpContextERKSt6vectorINS8_5TBlobESaISD_EERKSC_INS8_9OpReqTypeESaISI_EESH_EEEEE16create_from_dataEPNS0_4DataERKSR_
libmxnet.so:_ZN4dmlc3any10TypeOnHeapIN4nnvm5OpMapISt8functionIFvRKNS2_9NodeAttrsERKN5mxnet9OpContextERKSt6vectorINS8_5TBlobESaISD_EERKSC_INS8_9OpReqTypeESaISI_EESH_EEEEE7destroyEPNS0_4DataE
libmxnet.so:_ZN4dmlc3any10TypeOnHeapIN4nnvm5OpMapISt8functionIFvRKNS2_9NodeAttrsERKN5mxnet9OpContextERKSt6vectorINS8_7NDArrayESaISD_EERKSC_INS8_9OpReqTypeESaISI_EESH_EEEEE16create_from_dataEPNS0_4DataERKSR_
libmxnet.so:_ZN4dmlc3any10TypeOnHeapIN4nnvm5OpMapISt8functionIFvRKNS2_9NodeAttrsERKN5mxnet9OpContextERKSt6vectorINS8_7NDArrayESaISD_EERKSC_INS8_9OpReqTypeESaISI_EESH_EEEEE7destroyEPNS0_4DataE
libmxnet.so:_ZN4dmlc3any10TypeOnHeapIN4nnvm5OpMapISt8functionIFvRKNS2_9NodeAttrsERKSt6vectorIN5mxnet7NDArrayESaISA_EEPSC_EEEEE16create_from_dataEPNS0_4DataERKSK_
libmxnet.so:_ZN4dmlc3any10TypeOnHeapIN4nnvm5OpMapISt8functionIFvRKNS2_9NodeAttrsERKSt6vectorIN5mxnet7NDArrayESaISA_EEPSC_EEEEE7destroyEPNS0_4DataE
libmxnet.so:_ZN4dmlc3any10TypeOnHeapIN4nnvm5OpMapISt8functionIFvRKNS2_9NodeAttrsESt10shared_ptrINS2_4NodeEEiEEEEE16create_from_dataEPNS0_4DataERKSF_
libmxnet.so:_ZN4dmlc3any10TypeOnHeapIN4nnvm5OpMapISt8functionIFvRKNS2_9NodeAttrsESt10shared_ptrINS2_4NodeEEiEEEEE7destroyEPNS0_4DataE
libmxnet.so:_ZN4dmlc3any10TypeOnHeapIN4nnvm5OpMapIbEEE16create_from_dataEPNS0_4DataERKS6_
libmxnet.so:_ZN4dmlc3any10TypeOnHeapIN4nnvm5OpMapIbEEE7destroyEPNS0_4DataE
libmxnet.so:_ZN4dmlc3any10TypeOnHeapIN5mxnet10Imperative6AGInfoEE16create_from_dataEPNS0_4DataERKS6_
libmxnet.so:_ZN4dmlc3any10TypeOnHeapIN5mxnet10Imperative6AGInfoEE7destroyEPNS0_4DataE
libmxnet.so:_ZN4dmlc3any10TypeOnHeapIN5mxnet15custom_function19CustomFunctionParamEE16create_from_dataEPNS0_4DataERKS6_
libmxnet.so:_ZN4dmlc3any10TypeOnHeapIN5mxnet15custom_function19CustomFunctionParamEE7destroyEPNS0_4DataE
libmxnet.so:_ZN4dmlc3any10TypeOnHeapIN5mxnet2io11ImreadParamEE16create_from_dataEPNS0_4DataERKS6_
libmxnet.so:_ZN4dmlc3any10TypeOnHeapIN5mxnet2io11ImreadParamEE7destroyEPNS0_4DataE
libmxnet.so:_ZN4dmlc3any10TypeOnHeapIN5mxnet2io15MakeBorderParamEE16create_from_dataEPNS0_4DataERKS6_
libmxnet.so:_ZN4dmlc3any10TypeOnHeapIN5mxnet2io15MakeBorderParamEE7destroyEPNS0_4DataE
libmxnet.so:_ZN4dmlc3any10TypeOnHeapIN5mxnet2op10AdamWParamEE16create_from_dataEPNS0_4DataERKS6_
libmxnet.so:_ZN4dmlc3any10TypeOnHeapIN5mxnet2op10AdamWParamEE7destroyEPNS0_4DataE
libmxnet.so:_ZN4dmlc3any10TypeOnHeapIN5mxnet2op10RangeParamEE16create_from_dataEPNS0_4DataERKS6_
libmxnet.so:_ZN4dmlc3any10TypeOnHeapIN5mxnet2op10RangeParamEE7destroyEPNS0_4DataE
libmxnet.so:_ZN4dmlc3any10TypeOnHeapIN5mxnet2op10RavelParamEE16create_from_dataEPNS0_4DataERKS6_
libmxnet.so:_ZN4dmlc3any10TypeOnHeapIN5mxnet2op10RavelParamEE7destroyEPNS0_4DataE
libmxnet.so:_ZN4dmlc3any10TypeOnHeapIN5mxnet2op10SliceParamEE16create_from_dataEPNS0_4DataERKS6_
libmxnet.so:_ZN4dmlc3any10TypeOnHeapIN5mxnet2op10SliceParamEE7destroyEPNS0_4DataE
libmxnet.so:_ZN4dmlc3any10TypeOnHeapIN5mxnet2op10SplitParamEE16create_from_dataEPNS0_4DataERKS6_
libmxnet.so:_ZN4dmlc3any10TypeOnHeapIN5mxnet2op10SplitParamEE7destroyEPNS0_4DataE
libmxnet.so:_ZN4dmlc3any10TypeOnHeapIN5mxnet2op11BoxNMSParamEE16create_from_dataEPNS0_4DataERKS6_
libmxnet.so:_ZN4dmlc3any10TypeOnHeapIN5mxnet2op11BoxNMSParamEE7destroyEPNS0_4DataE
libmxnet.so:_ZN4dmlc3any10TypeOnHeapIN5mxnet2op11InitOpParamEE16create_from_dataEPNS0_4DataERKS6_
libmxnet.so:_ZN4dmlc3any10TypeOnHeapIN5mxnet2op11InitOpParamEE7destroyEPNS0_4DataE
libmxnet.so:_ZN4dmlc3any10TypeOnHeapIN5mxnet2op11OneHotParamEE16create_from_dataEPNS0_4DataERKS6_
libmxnet.so:_ZN4dmlc3any10TypeOnHeapIN5mxnet2op11OneHotParamEE7destroyEPNS0_4DataE
libmxnet.so:_ZN4dmlc3any10TypeOnHeapIN5mxnet2op12DropoutParamEE16create_from_dataEPNS0_4DataERKS6_
libmxnet.so:_ZN4dmlc3any10TypeOnHeapIN5mxnet2op12DropoutParamEE7destroyEPNS0_4DataE
libmxnet.so:_ZN4dmlc3any10TypeOnHeapIN5mxnet2op12ForeachParamEE16create_from_dataEPNS0_4DataERKS6_
libmxnet.so:_ZN4dmlc3any10TypeOnHeapIN5mxnet2op12ForeachParamEE7destroyEPNS0_4DataE
libmxnet.so:_ZN4dmlc3any10TypeOnHeapIN5mxnet2op12MomentsParamEE16create_from_dataEPNS0_4DataERKS6_
libmxnet.so:_ZN4dmlc3any10TypeOnHeapIN5mxnet2op12MomentsParamEE7destroyEPNS0_4DataE
libmxnet.so:_ZN4dmlc3any10TypeOnHeapIN5mxnet2op12ParsedOpPropEE16create_from_dataEPNS0_4DataERKS6_
libmxnet.so:_ZN4dmlc3any10TypeOnHeapIN5mxnet2op12ParsedOpPropEE7destroyEPNS0_4DataE
libmxnet.so:_ZN4dmlc3any10TypeOnHeapIN5mxnet2op12PoolingParamEE16create_from_dataEPNS0_4DataERKS6_
libmxnet.so:_ZN4dmlc3any10TypeOnHeapIN5mxnet2op12PoolingParamEE7destroyEPNS0_4DataE
libmxnet.so:_ZN4dmlc3any10TypeOnHeapIN5mxnet2op12RMSPropParamEE16create_from_dataEPNS0_4DataERKS6_
libmxnet.so:_ZN4dmlc3any10TypeOnHeapIN5mxnet2op12RMSPropParamEE7destroyEPNS0_4DataE
libmxnet.so:_ZN4dmlc3any10TypeOnHeapIN5mxnet2op12ReshapeParamEE16create_from_dataEPNS0_4DataERKS6_
libmxnet.so:_ZN4dmlc3any10TypeOnHeapIN5mxnet2op12ReshapeParamEE7destroyEPNS0_4DataE
libmxnet.so:_ZN4dmlc3any10TypeOnHeapIN5mxnet2op12ReverseParamEE16create_from_dataEPNS0_4DataERKS6_
libmxnet.so:_ZN4dmlc3any10TypeOnHeapIN5mxnet2op12ReverseParamEE7destroyEPNS0_4DataE
libmxnet.so:_ZN4dmlc3any10TypeOnHeapIN5mxnet2op12SoftmaxParamEE16create_from_dataEPNS0_4DataERKS6_
libmxnet.so:_ZN4dmlc3any10TypeOnHeapIN5mxnet2op12SoftmaxParamEE7destroyEPNS0_4DataE
libmxnet.so:_ZN4dmlc3any10TypeOnHeapIN5mxnet2op12SqueezeParamEE16create_from_dataEPNS0_4DataERKS6_
libmxnet.so:_ZN4dmlc3any10TypeOnHeapIN5mxnet2op12SqueezeParamEE7destroyEPNS0_4DataE
libmxnet.so:_ZN4dmlc3any10TypeOnHeapIN5mxnet2op13LinspaceParamEE16create_from_dataEPNS0_4DataERKS6_
libmxnet.so:_ZN4dmlc3any10TypeOnHeapIN5mxnet2op13LinspaceParamEE7destroyEPNS0_4DataE
libmxnet.so:_ZN4dmlc3any10TypeOnHeapIN5mxnet2op13MultiSGDParamEE16create_from_dataEPNS0_4DataERKS6_
libmxnet.so:_ZN4dmlc3any10TypeOnHeapIN5mxnet2op13MultiSGDParamEE7destroyEPNS0_4DataE
libmxnet.so:_ZN4dmlc3any10TypeOnHeapIN5mxnet2op13ROIAlignParamEE16create_from_dataEPNS0_4DataERKS6_
libmxnet.so:_ZN4dmlc3any10TypeOnHeapIN5mxnet2op13ROIAlignParamEE7destroyEPNS0_4DataE
libmxnet.so:_ZN4dmlc3any10TypeOnHeapIN5mxnet2op14HistogramParamEE16create_from_dataEPNS0_4DataERKS6_
libmxnet.so:_ZN4dmlc3any10TypeOnHeapIN5mxnet2op14HistogramParamEE7destroyEPNS0_4DataE
libmxnet.so:_ZN4dmlc3any10TypeOnHeapIN5mxnet2op14ScatterNDParamEE16create_from_dataEPNS0_4DataERKS6_
libmxnet.so:_ZN4dmlc3any10TypeOnHeapIN5mxnet2op14ScatterNDParamEE7destroyEPNS0_4DataE
libmxnet.so:_ZN4dmlc3any10TypeOnHeapIN5mxnet2op14SliceLikeParamEE16create_from_dataEPNS0_4DataERKS6_
libmxnet.so:_ZN4dmlc3any10TypeOnHeapIN5mxnet2op14SliceLikeParamEE7destroyEPNS0_4DataE
libmxnet.so:_ZN4dmlc3any10TypeOnHeapIN5mxnet2op14TransposeParamEE16create_from_dataEPNS0_4DataERKS6_
libmxnet.so:_ZN4dmlc3any10TypeOnHeapIN5mxnet2op14TransposeParamEE7destroyEPNS0_4DataE
libmxnet.so:_ZN4dmlc3any10TypeOnHeapIN5mxnet2op14WhileLoopParamEE16create_from_dataEPNS0_4DataERKS6_
libmxnet.so:_ZN4dmlc3any10TypeOnHeapIN5mxnet2op14WhileLoopParamEE7destroyEPNS0_4DataE
libmxnet.so:_ZN4dmlc3any10TypeOnHeapIN5mxnet2op15IndexArrayParamEE16create_from_dataEPNS0_4DataERKS6_
libmxnet.so:_ZN4dmlc3any10TypeOnHeapIN5mxnet2op15IndexArrayParamEE7destroyEPNS0_4DataE
libmxnet.so:_ZN4dmlc3any10TypeOnHeapIN5mxnet2op15ReduceAxesParamEE16create_from_dataEPNS0_4DataERKS6_
libmxnet.so:_ZN4dmlc3any10TypeOnHeapIN5mxnet2op15ReduceAxesParamEE7destroyEPNS0_4DataE
libmxnet.so:_ZN4dmlc3any10TypeOnHeapIN5mxnet2op15UpSamplingParamEE16create_from_dataEPNS0_4DataERKS6_
libmxnet.so:_ZN4dmlc3any10TypeOnHeapIN5mxnet2op15UpSamplingParamEE7destroyEPNS0_4DataE
libmxnet.so:_ZN4dmlc3any10TypeOnHeapIN5mxnet2op16BroadcastToParamEE16create_from_dataEPNS0_4DataERKS6_
libmxnet.so:_ZN4dmlc3any10TypeOnHeapIN5mxnet2op16BroadcastToParamEE7destroyEPNS0_4DataE
libmxnet.so:_ZN4dmlc3any10TypeOnHeapIN5mxnet2op16ConvolutionParamEE16create_from_dataEPNS0_4DataERKS6_
libmxnet.so:_ZN4dmlc3any10TypeOnHeapIN5mxnet2op16ConvolutionParamEE7destroyEPNS0_4DataE
libmxnet.so:_ZN4dmlc3any10TypeOnHeapIN5mxnet2op16LaMatrixMacParamEE16create_from_dataEPNS0_4DataERKS6_
libmxnet.so:_ZN4dmlc3any10TypeOnHeapIN5mxnet2op16LaMatrixMacParamEE7destroyEPNS0_4DataE
libmxnet.so:_ZN4dmlc3any10TypeOnHeapIN5mxnet2op16MultiSGDMomParamEE16create_from_dataEPNS0_4DataERKS6_
libmxnet.so:_ZN4dmlc3any10TypeOnHeapIN5mxnet2op16MultiSGDMomParamEE7destroyEPNS0_4DataE
libmxnet.so:_ZN4dmlc3any10TypeOnHeapIN5mxnet2op16MultiSampleParamEE16create_from_dataEPNS0_4DataERKS6_
libmxnet.so:_ZN4dmlc3any10TypeOnHeapIN5mxnet2op16MultiSampleParamEE7destroyEPNS0_4DataE
libmxnet.so:_ZN4dmlc3any10TypeOnHeapIN5mxnet2op16RMSPropAlexParamEE16create_from_dataEPNS0_4DataERKS6_
libmxnet.so:_ZN4dmlc3any10TypeOnHeapIN5mxnet2op16RMSPropAlexParamEE7destroyEPNS0_4DataE
libmxnet.so:_ZN4dmlc3any10TypeOnHeapIN5mxnet2op16ReshapeLikeParamEE16create_from_dataEPNS0_4DataERKS6_
libmxnet.so:_ZN4dmlc3any10TypeOnHeapIN5mxnet2op16ReshapeLikeParamEE7destroyEPNS0_4DataE
libmxnet.so:_ZN4dmlc3any10TypeOnHeapIN5mxnet2op16SampleGammaParamEE16create_from_dataEPNS0_4DataERKS6_
libmxnet.so:_ZN4dmlc3any10TypeOnHeapIN5mxnet2op16SampleGammaParamEE7destroyEPNS0_4DataE
libmxnet.so:_ZN4dmlc3any10TypeOnHeapIN5mxnet2op17SampleNormalParamEE16create_from_dataEPNS0_4DataERKS6_
libmxnet.so:_ZN4dmlc3any10TypeOnHeapIN5mxnet2op17SampleNormalParamEE7destroyEPNS0_4DataE
libmxnet.so:_ZN4dmlc3any10TypeOnHeapIN5mxnet2op18BroadcastAxesParamEE16create_from_dataEPNS0_4DataERKS6_
libmxnet.so:_ZN4dmlc3any10TypeOnHeapIN5mxnet2op18BroadcastAxesParamEE7destroyEPNS0_4DataE
libmxnet.so:_ZN4dmlc3any10TypeOnHeapIN5mxnet2op18BroadcastLikeParamEE16create_from_dataEPNS0_4DataERKS6_
libmxnet.so:_ZN4dmlc3any10TypeOnHeapIN5mxnet2op18BroadcastLikeParamEE7destroyEPNS0_4DataE
libmxnet.so:_ZN4dmlc3any10TypeOnHeapIN5mxnet2op18DeconvolutionParamEE16create_from_dataEPNS0_4DataERKS6_
libmxnet.so:_ZN4dmlc3any10TypeOnHeapIN5mxnet2op18DeconvolutionParamEE7destroyEPNS0_4DataE
libmxnet.so:_ZN4dmlc3any10TypeOnHeapIN5mxnet2op18SamplePoissonParamEE16create_from_dataEPNS0_4DataERKS6_
libmxnet.so:_ZN4dmlc3any10TypeOnHeapIN5mxnet2op18SamplePoissonParamEE7destroyEPNS0_4DataE
libmxnet.so:_ZN4dmlc3any10TypeOnHeapIN5mxnet2op18SampleRandIntParamEE16create_from_dataEPNS0_4DataERKS6_
libmxnet.so:_ZN4dmlc3any10TypeOnHeapIN5mxnet2op18SampleRandIntParamEE7destroyEPNS0_4DataE
libmxnet.so:_ZN4dmlc3any10TypeOnHeapIN5mxnet2op18SampleUniformParamEE16create_from_dataEPNS0_4DataERKS6_
libmxnet.so:_ZN4dmlc3any10TypeOnHeapIN5mxnet2op18SampleUniformParamEE7destroyEPNS0_4DataE
libmxnet.so:_ZN4dmlc3any10TypeOnHeapIN5mxnet2op19BilinearSampleParamEE16create_from_dataEPNS0_4DataERKS6_
libmxnet.so:_ZN4dmlc3any10TypeOnHeapIN5mxnet2op19BilinearSampleParamEE7destroyEPNS0_4DataE
libmxnet.so:_ZN4dmlc3any10TypeOnHeapIN5mxnet2op19NeighborSampleParamEE16create_from_dataEPNS0_4DataERKS6_
libmxnet.so:_ZN4dmlc3any10TypeOnHeapIN5mxnet2op19NeighborSampleParamEE7destroyEPNS0_4DataE
libmxnet.so:_ZN4dmlc3any10TypeOnHeapIN5mxnet2op20AdaptiveAvgPoolParamEE16create_from_dataEPNS0_4DataERKS6_
libmxnet.so:_ZN4dmlc3any10TypeOnHeapIN5mxnet2op20AdaptiveAvgPoolParamEE7destroyEPNS0_4DataE
libmxnet.so:_ZN4dmlc3any10TypeOnHeapIN5mxnet2op20SubgraphCompactParamEE16create_from_dataEPNS0_4DataERKS6_
libmxnet.so:_ZN4dmlc3any10TypeOnHeapIN5mxnet2op20SubgraphCompactParamEE7destroyEPNS0_4DataE
libmxnet.so:_ZN4dmlc3any10TypeOnHeapIN5mxnet2op21InitOpWithScalarParamEE16create_from_dataEPNS0_4DataERKS6_
libmxnet.so:_ZN4dmlc3any10TypeOnHeapIN5mxnet2op21InitOpWithScalarParamEE7destroyEPNS0_4DataE
libmxnet.so:_ZN4dmlc3any10TypeOnHeapIN5mxnet2op22SampleExponentialParamEE16create_from_dataEPNS0_4DataERKS6_
libmxnet.so:_ZN4dmlc3any10TypeOnHeapIN5mxnet2op22SampleExponentialParamEE7destroyEPNS0_4DataE
libmxnet.so:_ZN4dmlc3any10TypeOnHeapIN5mxnet2op22SampleMultinomialParamEE16create_from_dataEPNS0_4DataERKS6_
libmxnet.so:_ZN4dmlc3any10TypeOnHeapIN5mxnet2op22SampleMultinomialParamEE7destroyEPNS0_4DataE
libmxnet.so:_ZN4dmlc3any10TypeOnHeapIN5mxnet2op22SampleNegBinomialParamEE16create_from_dataEPNS0_4DataERKS6_
libmxnet.so:_ZN4dmlc3any10TypeOnHeapIN5mxnet2op22SampleNegBinomialParamEE7destroyEPNS0_4DataE
libmxnet.so:_ZN4dmlc3any10TypeOnHeapIN5mxnet2op22SliceAssignScalarParamEE16create_from_dataEPNS0_4DataERKS6_
libmxnet.so:_ZN4dmlc3any10TypeOnHeapIN5mxnet2op22SliceAssignScalarParamEE7destroyEPNS0_4DataE
libmxnet.so:_ZN4dmlc3any10TypeOnHeapIN5mxnet2op23InitOpWithoutDTypeParamEE16create_from_dataEPNS0_4DataERKS6_
libmxnet.so:_ZN4dmlc3any10TypeOnHeapIN5mxnet2op23InitOpWithoutDTypeParamEE7destroyEPNS0_4DataE
libmxnet.so:_ZN4dmlc3any10TypeOnHeapIN5mxnet2op24SampleUniqueZifpianParamEE16create_from_dataEPNS0_4DataERKS6_
libmxnet.so:_ZN4dmlc3any10TypeOnHeapIN5mxnet2op24SampleUniqueZifpianParamEE7destroyEPNS0_4DataE
libmxnet.so:_ZN4dmlc3any10TypeOnHeapIN5mxnet2op25SampleGenNegBinomialParamEE16create_from_dataEPNS0_4DataERKS6_
libmxnet.so:_ZN4dmlc3any10TypeOnHeapIN5mxnet2op25SampleGenNegBinomialParamEE7destroyEPNS0_4DataE
libmxnet.so:_ZN4dmlc3any10TypeOnHeapIN5mxnet2op5image11ResizeParamEE16create_from_dataEPNS0_4DataERKS7_
libmxnet.so:_ZN4dmlc3any10TypeOnHeapIN5mxnet2op5image11ResizeParamEE7destroyEPNS0_4DataE
libmxnet.so:_ZN4dmlc3any10TypeOnHeapIN5mxnet2op5image14NormalizeParamEE16create_from_dataEPNS0_4DataERKS7_
libmxnet.so:_ZN4dmlc3any10TypeOnHeapIN5mxnet2op5image14NormalizeParamEE7destroyEPNS0_4DataE
libmxnet.so:_ZN4dmlc3any10TypeOnHeapIN5mxnet2op5image19AdjustLightingParamEE16create_from_dataEPNS0_4DataERKS7_
libmxnet.so:_ZN4dmlc3any10TypeOnHeapIN5mxnet2op5image19AdjustLightingParamEE7destroyEPNS0_4DataE
libmxnet.so:_ZN4dmlc3any10TypeOnHeapIN5mxnet2op6custom11CustomParamEE16create_from_dataEPNS0_4DataERKS7_
libmxnet.so:_ZN4dmlc3any10TypeOnHeapIN5mxnet2op6custom11CustomParamEE7destroyEPNS0_4DataE
libmxnet.so:_ZN4dmlc3any10TypeOnHeapIN5mxnet2op8EyeParamEE16create_from_dataEPNS0_4DataERKS6_
libmxnet.so:_ZN4dmlc3any10TypeOnHeapIN5mxnet2op8EyeParamEE7destroyEPNS0_4DataE
libmxnet.so:_ZN4dmlc3any10TypeOnHeapIN5mxnet2op8RNNParamEE16create_from_dataEPNS0_4DataERKS6_
libmxnet.so:_ZN4dmlc3any10TypeOnHeapIN5mxnet2op8RNNParamEE7destroyEPNS0_4DataE
libmxnet.so:_ZN4dmlc3any10TypeOnHeapIN5mxnet2op9AdamParamEE16create_from_dataEPNS0_4DataERKS6_
libmxnet.so:_ZN4dmlc3any10TypeOnHeapIN5mxnet2op9AdamParamEE7destroyEPNS0_4DataE
libmxnet.so:_ZN4dmlc3any10TypeOnHeapIN5mxnet2op9CondParamEE16create_from_dataEPNS0_4DataERKS6_
libmxnet.so:_ZN4dmlc3any10TypeOnHeapIN5mxnet2op9CondParamEE7destroyEPNS0_4DataE
libmxnet.so:_ZN4dmlc3any10TypeOnHeapIN5mxnet2op9FTMLParamEE16create_from_dataEPNS0_4DataERKS6_
libmxnet.so:_ZN4dmlc3any10TypeOnHeapIN5mxnet2op9FTMLParamEE7destroyEPNS0_4DataE
libmxnet.so:_ZN4dmlc3any10TypeOnHeapIN5mxnet2op9NormParamEE16create_from_dataEPNS0_4DataERKS6_
libmxnet.so:_ZN4dmlc3any10TypeOnHeapIN5mxnet2op9NormParamEE7destroyEPNS0_4DataE
libmxnet.so:_ZN4dmlc3any10TypeOnHeapIN5mxnet2op9TileParamEE16create_from_dataEPNS0_4DataERKS6_
libmxnet.so:_ZN4dmlc3any10TypeOnHeapIN5mxnet2op9TileParamEE7destroyEPNS0_4DataE
libmxnet.so:_ZN4dmlc3any10TypeOnHeapINSt7__cxx1112basic_stringIcSt11char_traitsIcESaIcEEEE16create_from_dataEPNS0_4DataERKS9_
libmxnet.so:_ZN4dmlc3any10TypeOnHeapINSt7__cxx1112basic_stringIcSt11char_traitsIcESaIcEEEE7destroyEPNS0_4DataE
libmxnet.so:_ZN4dmlc3any10TypeOnHeapISt13unordered_mapINSt7__cxx1112basic_stringIcSt11char_traitsIcESaIcEEESt4pairIffESt4hashIS8_ESt8equal_toIS8_ESaIS9_IKS8_SA_EEEE16create_from_dataEPNS0_4DataERKSK_
libmxnet.so:_ZN4dmlc3any10TypeOnHeapISt13unordered_mapINSt7__cxx1112basic_stringIcSt11char_traitsIcESaIcEEESt4pairIffESt4hashIS8_ESt8equal_toIS8_ESaIS9_IKS8_SA_EEEE7destroyEPNS0_4DataE
libmxnet.so:_ZN4dmlc3any10TypeOnHeapISt13unordered_mapINSt7__cxx1112basic_stringIcSt11char_traitsIcESaIcEEEiSt4hashIS8_ESt8equal_toIS8_ESaISt4pairIKS8_iEEEE16create_from_dataEPNS0_4DataERKSJ_
libmxnet.so:_ZN4dmlc3any10TypeOnHeapISt13unordered_mapINSt7__cxx1112basic_stringIcSt11char_traitsIcESaIcEEEiSt4hashIS8_ESt8equal_toIS8_ESaISt4pairIKS8_iEEEE7destroyEPNS0_4DataE
libmxnet.so:_ZN4dmlc3any10TypeOnHeapISt13unordered_setINSt7__cxx1112basic_stringIcSt11char_traitsIcESaIcEEESt4hashIS8_ESt8equal_toIS8_ESaIS8_EEE16create_from_dataEPNS0_4DataERKSG_
libmxnet.so:_ZN4dmlc3any10TypeOnHeapISt13unordered_setINSt7__cxx1112basic_stringIcSt11char_traitsIcESaIcEEESt4hashIS8_ESt8equal_toIS8_ESaIS8_EEE7destroyEPNS0_4DataE
libmxnet.so:_ZN4dmlc3any10TypeOnHeapISt8functionIFN4nnvm9NodeEntryEOSt6vectorIS4_SaIS4_EEEEE16create_from_dataEPNS0_4DataERKSC_
libmxnet.so:_ZN4dmlc3any10TypeOnHeapISt8functionIFN4nnvm9NodeEntryEOSt6vectorIS4_SaIS4_EEEEE7destroyEPNS0_4DataE
libmxnet.so:_ZN4dmlc3any10TypeOnHeapISt8functionIFN4nnvm9NodeEntryERKS4_S6_EEE16create_from_dataEPNS0_4DataERKSA_
libmxnet.so:_ZN4dmlc3any10TypeOnHeapISt8functionIFN4nnvm9NodeEntryERKS4_S6_EEE7destroyEPNS0_4DataE
libmxnet.so:_ZN4dmlc3any10TypeOnHeapISt8functionIFiRKN4nnvm4NodeEEEE16create_from_dataEPNS0_4DataERKSA_
libmxnet.so:_ZN4dmlc3any10TypeOnHeapISt8functionIFiRKN4nnvm4NodeEEEE7destroyEPNS0_4DataE
libmxnet.so:_ZN4dmlc3any11TypeOnStackIN4nnvm13VariableParamEE16create_from_dataEPNS0_4DataERKS5_
libmxnet.so:_ZN4dmlc3any11TypeOnStackIN4nnvm13VariableParamEE7destroyEPNS0_4DataE
libmxnet.so:_ZN4dmlc3any11TypeOnStackIN5mxnet2io11ResizeParamEE16create_from_dataEPNS0_4DataERKS6_
libmxnet.so:_ZN4dmlc3any11TypeOnStackIN5mxnet2io13ImdecodeParamEE16create_from_dataEPNS0_4DataERKS6_
libmxnet.so:_ZN4dmlc3any11TypeOnStackIN5mxnet2op10StackParamEE16create_from_dataEPNS0_4DataERKS6_
libmxnet.so:_ZN4dmlc3any11TypeOnStackIN5mxnet2op11ConcatParamEE16create_from_dataEPNS0_4DataERKS6_
libmxnet.so:_ZN4dmlc3any11TypeOnStackIN5mxnet2op11LaDiagParamEE16create_from_dataEPNS0_4DataERKS6_
libmxnet.so:_ZN4dmlc3any11TypeOnStackIN5mxnet2op11LaSyrkParamEE16create_from_dataEPNS0_4DataERKS6_
libmxnet.so:_ZN4dmlc3any11TypeOnStackIN5mxnet2op11NAGMomParamEE16create_from_dataEPNS0_4DataERKS6_
libmxnet.so:_ZN4dmlc3any11TypeOnStackIN5mxnet2op11RepeatParamEE16create_from_dataEPNS0_4DataERKS6_
libmxnet.so:_ZN4dmlc3any11TypeOnStackIN5mxnet2op11RepeatParamEE7destroyEPNS0_4DataE
libmxnet.so:_ZN4dmlc3any11TypeOnStackIN5mxnet2op11SGDMomParamEE16create_from_dataEPNS0_4DataERKS6_
libmxnet.so:_ZN4dmlc3any11TypeOnStackIN5mxnet2op11SignumParamEE16create_from_dataEPNS0_4DataERKS6_
libmxnet.so:_ZN4dmlc3any11TypeOnStackIN5mxnet2op12AMPCastParamEE16create_from_dataEPNS0_4DataERKS6_
libmxnet.so:_ZN4dmlc3any11TypeOnStackIN5mxnet2op12AdagradParamEE16create_from_dataEPNS0_4DataERKS6_
libmxnet.so:_ZN4dmlc3any11TypeOnStackIN5mxnet2op12ArgSortParamEE16create_from_dataEPNS0_4DataERKS6_
libmxnet.so:_ZN4dmlc3any11TypeOnStackIN5mxnet2op12ArgSortParamEE7destroyEPNS0_4DataE
libmxnet.so:_ZN4dmlc3any11TypeOnStackIN5mxnet2op12LaTrianParamEE16create_from_dataEPNS0_4DataERKS6_
libmxnet.so:_ZN4dmlc3any11TypeOnStackIN5mxnet2op12SignSGDParamEE16create_from_dataEPNS0_4DataERKS6_
libmxnet.so:_ZN4dmlc3any11TypeOnStackIN5mxnet2op13QuantizeParamEE16create_from_dataEPNS0_4DataERKS6_
libmxnet.so:_ZN4dmlc3any11TypeOnStackIN5mxnet2op14AllFiniteParamEE16create_from_dataEPNS0_4DataERKS6_
libmxnet.so:_ZN4dmlc3any11TypeOnStackIN5mxnet2op14BatchNormParamEE16create_from_dataEPNS0_4DataERKS6_
libmxnet.so:_ZN4dmlc3any11TypeOnStackIN5mxnet2op14CTCLossOpParamEE16create_from_dataEPNS0_4DataERKS6_
libmxnet.so:_ZN4dmlc3any11TypeOnStackIN5mxnet2op14EmbeddingParamEE16create_from_dataEPNS0_4DataERKS6_
libmxnet.so:_ZN4dmlc3any11TypeOnStackIN5mxnet2op14ExpandDimParamEE16create_from_dataEPNS0_4DataERKS6_
libmxnet.so:_ZN4dmlc3any11TypeOnStackIN5mxnet2op14KhatriRaoParamEE16create_from_dataEPNS0_4DataERKS6_
libmxnet.so:_ZN4dmlc3any11TypeOnStackIN5mxnet2op14KhatriRaoParamEE7destroyEPNS0_4DataE
libmxnet.so:_ZN4dmlc3any11TypeOnStackIN5mxnet2op14LayerNormParamEE16create_from_dataEPNS0_4DataERKS6_
libmxnet.so:_ZN4dmlc3any11TypeOnStackIN5mxnet2op14QuadraticParamEE16create_from_dataEPNS0_4DataERKS6_
libmxnet.so:_ZN4dmlc3any11TypeOnStackIN5mxnet2op14SliceAxisParamEE16create_from_dataEPNS0_4DataERKS6_
libmxnet.so:_ZN4dmlc3any11TypeOnStackIN5mxnet2op14SliceAxisParamEE7destroyEPNS0_4DataE
libmxnet.so:_ZN4dmlc3any11TypeOnStackIN5mxnet2op15ActivationParamEE16create_from_dataEPNS0_4DataERKS6_
libmxnet.so:_ZN4dmlc3any11TypeOnStackIN5mxnet2op15BoxOverlapParamEE16create_from_dataEPNS0_4DataERKS6_
libmxnet.so:_ZN4dmlc3any11TypeOnStackIN5mxnet2op15DequantizeParamEE16create_from_dataEPNS0_4DataERKS6_
libmxnet.so:_ZN4dmlc3any11TypeOnStackIN5mxnet2op15LaCholeskyParamEE16create_from_dataEPNS0_4DataERKS6_
libmxnet.so:_ZN4dmlc3any11TypeOnStackIN5mxnet2op15QuantizeV2ParamEE16create_from_dataEPNS0_4DataERKS6_
libmxnet.so:_ZN4dmlc3any11TypeOnStackIN5mxnet2op15QuantizeV2ParamEE7destroyEPNS0_4DataE
libmxnet.so:_ZN4dmlc3any11TypeOnStackIN5mxnet2op15ReduceAxisParamEE16create_from_dataEPNS0_4DataERKS6_
libmxnet.so:_ZN4dmlc3any11TypeOnStackIN5mxnet2op15ReduceAxisParamEE7destroyEPNS0_4DataE
libmxnet.so:_ZN4dmlc3any11TypeOnStackIN5mxnet2op15RequantizeParamEE16create_from_dataEPNS0_4DataERKS6_
libmxnet.so:_ZN4dmlc3any11TypeOnStackIN5mxnet2op15RequantizeParamEE7destroyEPNS0_4DataE
libmxnet.so:_ZN4dmlc3any11TypeOnStackIN5mxnet2op16BooleanMaskParamEE16create_from_dataEPNS0_4DataERKS6_
libmxnet.so:_ZN4dmlc3any11TypeOnStackIN5mxnet2op16CastStorageParamEE16create_from_dataEPNS0_4DataERKS6_
libmxnet.so:_ZN4dmlc3any11TypeOnStackIN5mxnet2op16DGLSubgraphParamEE16create_from_dataEPNS0_4DataERKS6_
libmxnet.so:_ZN4dmlc3any11TypeOnStackIN5mxnet2op16HardSigmoidParamEE16create_from_dataEPNS0_4DataERKS6_
libmxnet.so:_ZN4dmlc3any11TypeOnStackIN5mxnet2op17AMPMultiCastParamEE16create_from_dataEPNS0_4DataERKS6_
libmxnet.so:_ZN4dmlc3any11TypeOnStackIN5mxnet2op17DepthToSpaceParamEE16create_from_dataEPNS0_4DataERKS6_
libmxnet.so:_ZN4dmlc3any11TypeOnStackIN5mxnet2op17GroupAdagradParamEE16create_from_dataEPNS0_4DataERKS6_
libmxnet.so:_ZN4dmlc3any11TypeOnStackIN5mxnet2op17LaMatrixMultParamEE16create_from_dataEPNS0_4DataERKS6_
libmxnet.so:_ZN4dmlc3any11TypeOnStackIN5mxnet2op18SoftmaxOutputParamEE16create_from_dataEPNS0_4DataERKS6_
libmxnet.so:_ZN4dmlc3any11TypeOnStackIN5mxnet2op19ElementWiseSumParamEE16create_from_dataEPNS0_4DataERKS6_
libmxnet.so:_ZN4dmlc3any11TypeOnStackIN5mxnet2op19FullyConnectedParamEE16create_from_dataEPNS0_4DataERKS6_
libmxnet.so:_ZN4dmlc3any11TypeOnStackIN5mxnet2op19MultiAllFiniteParamEE16create_from_dataEPNS0_4DataERKS6_
libmxnet.so:_ZN4dmlc3any11TypeOnStackIN5mxnet2op20SampleGammaLikeParamEE16create_from_dataEPNS0_4DataERKS6_
libmxnet.so:_ZN4dmlc3any11TypeOnStackIN5mxnet2op20SparseEmbeddingParamEE16create_from_dataEPNS0_4DataERKS6_
libmxnet.so:_ZN4dmlc3any11TypeOnStackIN5mxnet2op21RegressionOutputParamEE16create_from_dataEPNS0_4DataERKS6_
libmxnet.so:_ZN4dmlc3any11TypeOnStackIN5mxnet2op21SampleNormalLikeParamEE16create_from_dataEPNS0_4DataERKS6_
libmxnet.so:_ZN4dmlc3any11TypeOnStackIN5mxnet2op22BipartiteMatchingParamEE16create_from_dataEPNS0_4DataERKS6_
libmxnet.so:_ZN4dmlc3any11TypeOnStackIN5mxnet2op22SamplePoissonLikeParamEE16create_from_dataEPNS0_4DataERKS6_
libmxnet.so:_ZN4dmlc3any11TypeOnStackIN5mxnet2op22SampleUniformLikeParamEE16create_from_dataEPNS0_4DataERKS6_
libmxnet.so:_ZN4dmlc3any11TypeOnStackIN5mxnet2op22SoftmaxActivationParamEE16create_from_dataEPNS0_4DataERKS6_
libmxnet.so:_ZN4dmlc3any11TypeOnStackIN5mxnet2op23LaTriangMatrixMultParamEE16create_from_dataEPNS0_4DataERKS6_
libmxnet.so:_ZN4dmlc3any11TypeOnStackIN5mxnet2op26SampleExponentialLikeParamEE16create_from_dataEPNS0_4DataERKS6_
libmxnet.so:_ZN4dmlc3any11TypeOnStackIN5mxnet2op26SampleNegBinomialLikeParamEE16create_from_dataEPNS0_4DataERKS6_
libmxnet.so:_ZN4dmlc3any11TypeOnStackIN5mxnet2op29SampleGenNegBinomialLikeParamEE16create_from_dataEPNS0_4DataERKS6_
libmxnet.so:_ZN4dmlc3any11TypeOnStackIN5mxnet2op5image18RandomEnhanceParamEE16create_from_dataEPNS0_4DataERKS7_
libmxnet.so:_ZN4dmlc3any11TypeOnStackIN5mxnet2op5image19RandomLightingParamEE16create_from_dataEPNS0_4DataERKS7_
libmxnet.so:_ZN4dmlc3any11TypeOnStackIN5mxnet2op5image22RandomColorJitterParamEE16create_from_dataEPNS0_4DataERKS7_
libmxnet.so:_ZN4dmlc3any11TypeOnStackIN5mxnet2op5image9CropParamEE16create_from_dataEPNS0_4DataERKS7_
libmxnet.so:_ZN4dmlc3any11TypeOnStackIN5mxnet2op8DotParamEE16create_from_dataEPNS0_4DataERKS6_
libmxnet.so:_ZN4dmlc3any11TypeOnStackIN5mxnet2op8DotParamEE7destroyEPNS0_4DataE
libmxnet.so:_ZN4dmlc3any11TypeOnStackIN5mxnet2op8LRNParamEE16create_from_dataEPNS0_4DataERKS6_
libmxnet.so:_ZN4dmlc3any11TypeOnStackIN5mxnet2op8NNZParamEE16create_from_dataEPNS0_4DataERKS6_
libmxnet.so:_ZN4dmlc3any11TypeOnStackIN5mxnet2op8NNZParamEE7destroyEPNS0_4DataE
libmxnet.so:_ZN4dmlc3any11TypeOnStackIN5mxnet2op8SGDParamEE16create_from_dataEPNS0_4DataERKS6_
libmxnet.so:_ZN4dmlc3any11TypeOnStackIN5mxnet2op9CastParamEE16create_from_dataEPNS0_4DataERKS6_
libmxnet.so:_ZN4dmlc3any11TypeOnStackIN5mxnet2op9ClipParamEE16create_from_dataEPNS0_4DataERKS6_
libmxnet.so:_ZN4dmlc3any11TypeOnStackIN5mxnet2op9DiagParamEE16create_from_dataEPNS0_4DataERKS6_
libmxnet.so:_ZN4dmlc3any11TypeOnStackIN5mxnet2op9FtrlParamEE16create_from_dataEPNS0_4DataERKS6_
libmxnet.so:_ZN4dmlc3any11TypeOnStackIN5mxnet2op9PickParamEE16create_from_dataEPNS0_4DataERKS6_
libmxnet.so:_ZN4dmlc3any11TypeOnStackIN5mxnet2op9PickParamEE7destroyEPNS0_4DataE
libmxnet.so:_ZN4dmlc3any11TypeOnStackIN5mxnet2op9SortParamEE16create_from_dataEPNS0_4DataERKS6_
libmxnet.so:_ZN4dmlc3any11TypeOnStackIN5mxnet2op9SortParamEE7destroyEPNS0_4DataE
libmxnet.so:_ZN4dmlc3any11TypeOnStackIN5mxnet2op9TakeParamEE16create_from_dataEPNS0_4DataERKS6_
libmxnet.so:_ZN4dmlc3any11TypeOnStackIN5mxnet2op9TopKParamEE16create_from_dataEPNS0_4DataERKS6_
libmxnet.so:_ZN4dmlc3any11TypeOnStackIN5mxnet2op9TopKParamEE7destroyEPNS0_4DataE
libmxnet.so:_ZN4dmlc3any11TypeOnStackISt10shared_ptrIN5mxnet2op16SubgraphPropertyEEE16create_from_dataEPNS0_4DataERKS8_
libmxnet.so:_ZN4dmlc3any11TypeOnStackISt10shared_ptrIN5mxnet2op16SubgraphPropertyEEE7destroyEPNS0_4DataE
libmxnet.so:_ZN4dmlc3any11TypeOnStackISt10shared_ptrIN5mxnet8CachedOpEEE16create_from_dataEPNS0_4DataERKS7_
libmxnet.so:_ZN4dmlc3any11TypeOnStackISt10shared_ptrIN5mxnet8CachedOpEEE7destroyEPNS0_4DataE
libmxnet.so:_ZN4dmlc3any11TypeOnStackISt4pairIjjEE16create_from_dataEPNS0_4DataERKS5_
libmxnet.so:_ZN4dmlc3any11TypeOnStackISt4pairIjjEE7destroyEPNS0_4DataE
libmxnet.so:_ZN4dmlc3any11TypeOnStackISt6vectorIN4nnvm6LayoutESaIS4_EEE16create_from_dataEPNS0_4DataERKS8_
libmxnet.so:_ZN4dmlc3any11TypeOnStackISt6vectorIN4nnvm6LayoutESaIS4_EEE7destroyEPNS0_4DataE
libmxnet.so:_ZN4dmlc3any11TypeOnStackISt6vectorIN4nnvm6TShapeESaIS4_EEE16create_from_dataEPNS0_4DataERKS8_
libmxnet.so:_ZN4dmlc3any11TypeOnStackISt6vectorIN4nnvm6TShapeESaIS4_EEE7destroyEPNS0_4DataE
libmxnet.so:_ZN4dmlc3any11TypeOnStackISt6vectorIN4nnvm9NodeEntryESaIS4_EEE16create_from_dataEPNS0_4DataERKS8_
libmxnet.so:_ZN4dmlc3any11TypeOnStackISt6vectorIN4nnvm9NodeEntryESaIS4_EEE7destroyEPNS0_4DataE
libmxnet.so:_ZN4dmlc3any11TypeOnStackISt6vectorIN5mxnet10imperative14MemoryPlanInfoESaIS5_EEE16create_from_dataEPNS0_4DataERKS9_
libmxnet.so:_ZN4dmlc3any11TypeOnStackISt6vectorIN5mxnet10imperative14MemoryPlanInfoESaIS5_EEE7destroyEPNS0_4DataE
libmxnet.so:_ZN4dmlc3any11TypeOnStackISt6vectorIN5mxnet12DispatchModeESaIS4_EEE16create_from_dataEPNS0_4DataERKS8_
libmxnet.so:_ZN4dmlc3any11TypeOnStackISt6vectorIN5mxnet12DispatchModeESaIS4_EEE7destroyEPNS0_4DataE
libmxnet.so:_ZN4dmlc3any11TypeOnStackISt6vectorIN5mxnet6TShapeESaIS4_EEE16create_from_dataEPNS0_4DataERKS8_
libmxnet.so:_ZN4dmlc3any11TypeOnStackISt6vectorIN5mxnet6TShapeESaIS4_EEE7destroyEPNS0_4DataE
libmxnet.so:_ZN4dmlc3any11TypeOnStackISt6vectorIN5mxnet7ContextESaIS4_EEE16create_from_dataEPNS0_4DataERKS8_
libmxnet.so:_ZN4dmlc3any11TypeOnStackISt6vectorIN5mxnet7ContextESaIS4_EEE7destroyEPNS0_4DataE
libmxnet.so:_ZN4dmlc3any11TypeOnStackISt6vectorINSt7__cxx1112basic_stringIcSt11char_traitsIcESaIcEEESaIS8_EEE16create_from_dataEPNS0_4DataERKSC_
libmxnet.so:_ZN4dmlc3any11TypeOnStackISt6vectorINSt7__cxx1112basic_stringIcSt11char_traitsIcESaIcEEESaIS8_EEE7destroyEPNS0_4DataE
libmxnet.so:_ZN4dmlc3any11TypeOnStackISt6vectorIPKN4nnvm2OpESaIS6_EEE16create_from_dataEPNS0_4DataERKSA_
libmxnet.so:_ZN4dmlc3any11TypeOnStackISt6vectorIPKN4nnvm2OpESaIS6_EEE7destroyEPNS0_4DataE
libmxnet.so:_ZN4dmlc3any11TypeOnStackISt6vectorISt10shared_ptrIN5mxnet4exec10OpExecutorEESaIS7_EEE16create_from_dataEPNS0_4DataERKSB_
libmxnet.so:_ZN4dmlc3any11TypeOnStackISt6vectorISt10shared_ptrIN5mxnet4exec10OpExecutorEESaIS7_EEE7destroyEPNS0_4DataE
libmxnet.so:_ZN4dmlc3any11TypeOnStackISt6vectorIiSaIiEEE16create_from_dataEPNS0_4DataERKS6_
libmxnet.so:_ZN4dmlc3any11TypeOnStackISt6vectorIiSaIiEEE7destroyEPNS0_4DataE
libmxnet.so:_ZN4dmlc3any11TypeOnStackISt6vectorIjSaIjEEE16create_from_dataEPNS0_4DataERKS6_
libmxnet.so:_ZN4dmlc3any11TypeOnStackISt6vectorIjSaIjEEE7destroyEPNS0_4DataE
libmxnet.so:_ZN4dmlc3any11TypeOnStackIbE16create_from_dataEPNS0_4DataERKS3_
libmxnet.so:_ZN4dmlc3any11TypeOnStackIdE16create_from_dataEPNS0_4DataERKS3_
libmxnet.so:_ZN4dmlc3any11TypeOnStackIiE16create_from_dataEPNS0_4DataERKS3_
libmxnet.so:_ZN4dmlc3any11TypeOnStackImE16create_from_dataEPNS0_4DataERKS3_
libmxnet.so:_ZN4dmlc4json14AnyJSONManager7ReadAnyINSt7__cxx1112basic_stringIcSt11char_traitsIcESaIcEEEEEvPNS_10JSONReaderEPNS_3anyE
libmxnet.so:_ZN4dmlc4json14AnyJSONManager7ReadAnyISt13unordered_mapINSt7__cxx1112basic_stringIcSt11char_traitsIcESaIcEEEiSt4hashIS9_ESt8equal_toIS9_ESaISt4pairIKS9_iEEEEEvPNS_10JSONReaderEPNS_3anyE
libmxnet.so:_ZN4dmlc4json14AnyJSONManager7ReadAnyISt6vectorIN4nnvm6LayoutESaIS5_EEEEvPNS_10JSONReaderEPNS_3anyE
libmxnet.so:_ZN4dmlc4json14AnyJSONManager7ReadAnyISt6vectorIN4nnvm6TShapeESaIS5_EEEEvPNS_10JSONReaderEPNS_3anyE
libmxnet.so:_ZN4dmlc4json14AnyJSONManager7ReadAnyISt6vectorINSt7__cxx1112basic_stringIcSt11char_traitsIcESaIcEEESaIS9_EEEEvPNS_10JSONReaderEPNS_3anyE
libmxnet.so:_ZN4dmlc4json14AnyJSONManager7ReadAnyISt6vectorIiSaIiEEEEvPNS_10JSONReaderEPNS_3anyE
libmxnet.so:_ZN4dmlc4json14AnyJSONManager7ReadAnyIiEEvPNS_10JSONReaderEPNS_3anyE
libmxnet.so:_ZN4dmlc4json14AnyJSONManager7ReadAnyImEEvPNS_10JSONReaderEPNS_3anyE
libmxnet.so:_ZN4dmlc4json14AnyJSONManager8WriteAnyINSt7__cxx1112basic_stringIcSt11char_traitsIcESaIcEEEEEvPNS_10JSONWriterERKNS_3anyE
libmxnet.so:_ZN4dmlc4json14AnyJSONManager8WriteAnyISt13unordered_mapINSt7__cxx1112basic_stringIcSt11char_traitsIcESaIcEEEiSt4hashIS9_ESt8equal_toIS9_ESaISt4pairIKS9_iEEEEEvPNS_10JSONWriterERKNS_3anyE
libmxnet.so:_ZN4dmlc4json14AnyJSONManager8WriteAnyISt6vectorIN4nnvm6LayoutESaIS5_EEEEvPNS_10JSONWriterERKNS_3anyE
libmxnet.so:_ZN4dmlc4json14AnyJSONManager8WriteAnyISt6vectorIN4nnvm6TShapeESaIS5_EEEEvPNS_10JSONWriterERKNS_3anyE
libmxnet.so:_ZN4dmlc4json14AnyJSONManager8WriteAnyISt6vectorINSt7__cxx1112basic_stringIcSt11char_traitsIcESaIcEEESaIS9_EEEEvPNS_10JSONWriterERKNS_3anyE
libmxnet.so:_ZN4dmlc4json14AnyJSONManager8WriteAnyISt6vectorIiSaIiEEEEvPNS_10JSONWriterERKNS_3anyE
libmxnet.so:_ZN4dmlc4json14AnyJSONManager8WriteAnyIiEEvPNS_10JSONWriterERKNS_3anyE
libmxnet.so:_ZN4dmlc4json14AnyJSONManager8WriteAnyImEEvPNS_10JSONWriterERKNS_3anyE
libmxnet.so:_ZN4dmlc8RegistryIN4nnvm15PassFunctionRegEE3GetEv
libmxnet.so:_ZN4dmlc8RegistryIN4nnvm2OpEE3GetEv
libmxnet.so:_ZN4dmlc8RegistryIN5mxnet15DataIteratorRegEE3GetEv
libmxnet.so:_ZN4dmlc8RegistryIN5mxnet18NDArrayFunctionRegEE3GetEv
libmxnet.so:_ZN4dmlc8RegistryIN5mxnet19OperatorPropertyRegEE3GetEv
libmxnet.so:_ZN4dmlc8RegistryIN5mxnet2io17ImageAugmenterRegEE3GetEv
libmxnet.so:_ZN4nnvm11ApplyPassesENS_5GraphERKSt6vectorINSt7__cxx1112basic_stringIcSt11char_traitsIcESaIcEEESaIS7_EE
libmxnet.so:_ZN4nnvm11FindPassDepERKNSt7__cxx1112basic_stringIcSt11char_traitsIcESaIcEEE
libmxnet.so:_ZN4nnvm12IndexedGraphC1ERKNS_5GraphE
libmxnet.so:_ZN4nnvm12IndexedGraphC2ERKNS_5GraphE
libmxnet.so:_ZN4nnvm18CreateVariableNodeERKNSt7__cxx1112basic_stringIcSt11char_traitsIcESaIcEEE
libmxnet.so:_ZN4nnvm2Op10GetAttrMapERKNSt7__cxx1112basic_stringIcSt11char_traitsIcESaIcEEE
libmxnet.so:_ZN4nnvm2Op13UpdateAttrMapERKNSt7__cxx1112basic_stringIcSt11char_traitsIcESaIcEEESt8functionIFvPN4dmlc3anyEEE
libmxnet.so:_ZN4nnvm2Op15AddGroupTriggerERKNSt7__cxx1112basic_stringIcSt11char_traitsIcESaIcEEESt8functionIFvPS0_EE
libmxnet.so:_ZN4nnvm2Op3GetERKNSt7__cxx1112basic_stringIcSt11char_traitsIcESaIcEEE
libmxnet.so:_ZN4nnvm2Op7includeERKNSt7__cxx1112basic_stringIcSt11char_traitsIcESaIcEEE
libmxnet.so:_ZN4nnvm2Op9add_aliasERKNSt7__cxx1112basic_stringIcSt11char_traitsIcESaIcEEE
libmxnet.so:_ZN4nnvm2OpC1Ev
libmxnet.so:_ZN4nnvm2OpC2Ev
libmxnet.so:_ZN4nnvm4NodeD1Ev
libmxnet.so:_ZN4nnvm4NodeD2Ev
libmxnet.so:_ZN4nnvm4pass13CorrectLayoutENS_5GraphE
libmxnet.so:_ZN4nnvm4pass13PrintGraphIR_ENS_5GraphERKSt6vectorINSt7__cxx1112basic_stringIcSt11char_traitsIcESaIcEEESaIS8_EESC_RSo
libmxnet.so:_ZN4nnvm4pass16GetVectorPrinterERKNS_5GraphERKNSt7__cxx1112basic_stringIcSt11char_traitsIcESaIcEEE
libmxnet.so:_ZN4nnvm4pass16PrintGraphIRPassENS_5GraphE
libmxnet.so:_ZN4nnvm4pass25CreateLayoutTransformNodeERKNS_6LayoutES3_
libmxnet.so:_ZN4nnvm6Symbol11CreateGroupERKSt6vectorIS0_SaIS0_EE
libmxnet.so:_ZN4nnvm6Symbol13CreateFunctorEPKNS_2OpESt13unordered_mapINSt7__cxx1112basic_stringIcSt11char_traitsIcESaIcEEESA_St4hashISA_ESt8equal_toISA_ESaISt4pairIKSA_SA_EEE
libmxnet.so:_ZN4nnvm6Symbol13CreateFunctorERKNS_9NodeAttrsE
libmxnet.so:_ZN4nnvm6Symbol14AddControlDepsERKS0_
libmxnet.so:_ZN4nnvm6Symbol14CreateVariableERKNSt7__cxx1112basic_stringIcSt11char_traitsIcESaIcEEE
libmxnet.so:_ZN4nnvm6Symbol7ComposeERKN4dmlc10array_viewIPKS0_EERKSt13unordered_mapINSt7__cxx1112basic_stringIcSt11char_traitsIcESaIcEEES4_St4hashISE_ESt8equal_toISE_ESaISt4pairIKSE_S4_EEERSK_
libmxnet.so:_ZN4nnvm6Symbol8SetAttrsERKSt6vectorISt4pairINSt7__cxx1112basic_stringIcSt11char_traitsIcESaIcEEES8_ESaIS9_EE
libmxnet.so:_ZN5mxnet10CopyFromToERKNS_7NDArrayEPS1_i
libmxnet.so:_ZN5mxnet10CopyFromToERKNS_7NDArrayES2_ib
libmxnet.so:_ZN5mxnet10Imperative13MarkVariablesERKSt6vectorIPNS_7NDArrayESaIS3_EERKS1_IjSaIjEES7_
libmxnet.so:_ZN5mxnet10Imperative21GetBackwardDependencyERKSt10shared_ptrIN4nnvm4NodeEEjjPSt6vectorIbSaIbEESA_
libmxnet.so:_ZN5mxnet10Imperative3GetEv
libmxnet.so:_ZN5mxnet10Imperative6InvokeERKNS_7ContextERKN4nnvm9NodeAttrsERKSt6vectorIPNS_7NDArrayESaISA_EESE_
libmxnet.so:_ZN5mxnet10Imperative8BackwardERKSt6vectorIPNS_7NDArrayESaIS3_EES7_S7_bbb
libmxnet.so:_ZN5mxnet10Imperative8InvokeOpERKNS_7ContextERKN4nnvm9NodeAttrsERKSt6vectorIPNS_7NDArrayESaISA_EESE_RKS8_INS_9OpReqTypeESaISF_EENS_12DispatchModeENS_10OpStatePtrE
libmxnet.so:_ZN5mxnet10Imperative8RecordOpEON4nnvm9NodeAttrsERKSt6vectorIPNS_7NDArrayESaIS6_EESA_RKNS_10OpStatePtrEPS4_IbSaIbEESG_
libmxnet.so:_ZN5mxnet10RandomSeedENS_7ContextEj
libmxnet.so:_ZN5mxnet10RandomSeedEj
libmxnet.so:_ZN5mxnet10SetValueOpERKfPNS_7NDArrayE
libmxnet.so:_ZN5mxnet10imperative13NaiveRunGraphEbRKNS_7ContextERKN4nnvm12IndexedGraphERKSt6vectorIPNS_7NDArrayESaISA_EEmmOS8_INS_9OpReqTypeESaISF_EEOS8_IjSaIjEEPS8_INS_10OpStatePtrESaISM_EERKS8_INS_12DispatchModeESaISQ_EEbPS8_INS_6TShapeESaISV_EE
libmxnet.so:_ZN5mxnet10imperative8RunGraphEbRKN4nnvm12IndexedGraphERKSt6vectorIPNS_7NDArrayESaIS7_EEmmOS5_INS_9OpReqTypeESaISC_EEOS5_IjSaIjEEPS5_INS_10OpStatePtrESaISJ_EERKS5_INS_12DispatchModeESaISN_EEbPS5_INS_6TShapeESaISS_EE
libmxnet.so:_ZN5mxnet11StorageImpl10DirectFreeENS_7Storage6HandleE
libmxnet.so:_ZN5mxnet11StorageImpl10ReleaseAllENS_7ContextE
libmxnet.so:_ZN5mxnet11StorageImpl23SharedIncrementRefCountENS_7Storage6HandleE
libmxnet.so:_ZN5mxnet11StorageImpl4FreeENS_7Storage6HandleE
libmxnet.so:_ZN5mxnet11StorageImpl5AllocEPNS_7Storage6HandleE
libmxnet.so:_ZN5mxnet11on_exit_apiEv
libmxnet.so:_ZN5mxnet12Symbol2GraphERKN4nnvm6SymbolE
libmxnet.so:_ZN5mxnet12num_aux_dataENS_18NDArrayStorageTypeE
libmxnet.so:_ZN5mxnet12on_enter_apiEPKc
libmxnet.so:_ZN5mxnet13SamplePoissonEfPNS_7NDArrayE
libmxnet.so:_ZN5mxnet13SampleUniformEffPNS_7NDArrayE
libmxnet.so:_ZN5mxnet13WrapAsyncCallEN3tvm7runtime7TVMArgsEPNS1_11TVMRetValueE
libmxnet.so:_ZN5mxnet14CachedOpConfig11__MANAGER__Ev
libmxnet.so:_ZN5mxnet14CutGraphInputsERKSt6vectorIPN4nnvm9NodeEntryESaIS3_EEbPS0_IS2_SaIS2_EE
libmxnet.so:_ZN5mxnet14ElementwiseSumERKSt6vectorINS_7NDArrayESaIS1_EEPS1_i
libmxnet.so:_ZN5mxnet14SampleGaussianEffPNS_7NDArrayE
libmxnet.so:_ZN5mxnet15CachedOpForwardERKNS_10OpStatePtrERKNS_9OpContextERKSt6vectorINS_7NDArrayESaIS7_EERKS6_INS_9OpReqTypeESaISC_EESB_
libmxnet.so:_ZN5mxnet15GetInputSymbolsERKN4nnvm6SymbolE
libmxnet.so:_ZN5mxnet15ResourceManager3GetEv
libmxnet.so:_ZN5mxnet15custom_function11CreateStateERKN4nnvm9NodeAttrsENS_7ContextERKSt6vectorINS_6TShapeESaIS7_EERKS6_IiSaIiEE
libmxnet.so:_ZN5mxnet15custom_function16InferStorageTypeERKN4nnvm9NodeAttrsEiPNS_12DispatchModeEPSt6vectorIiSaIiEESA_
libmxnet.so:_ZN5mxnet15custom_function7ForwardERKNS_10OpStatePtrERKNS_9OpContextERKSt6vectorINS_7NDArrayESaIS8_EERKS7_INS_9OpReqTypeESaISD_EESC_
libmxnet.so:_ZN5mxnet15custom_function8BackwardERKNS_10OpStatePtrERKNS_9OpContextERKSt6vectorINS_7NDArrayESaIS8_EERKS7_INS_9OpReqTypeESaISD_EESC_
libmxnet.so:_ZN5mxnet15custom_function8GradientERKSt10shared_ptrIN4nnvm4NodeEERKSt6vectorINS2_9NodeEntryESaIS8_EE
libmxnet.so:_ZN5mxnet16CachedOpBackwardERKNS_10OpStatePtrERKNS_9OpContextERKSt6vectorINS_7NDArrayESaIS7_EERKS6_INS_9OpReqTypeESaISC_EESB_
libmxnet.so:_ZN5mxnet16CopyFromToSimpleERKN4nnvm9NodeAttrsERKNS_9OpContextERKSt6vectorINS_7NDArrayESaIS8_EERKS7_INS_9OpReqTypeESaISD_EESC_
libmxnet.so:_ZN5mxnet16LegacyTShapeLoadEPN4dmlc6StreamEPNS_6TShapeEj
libmxnet.so:_ZN5mxnet16OperatorProperty6CreateEPKc
libmxnet.so:_ZN5mxnet17SampleExponentialEfPNS_7NDArrayE
libmxnet.so:_ZN5mxnet17SampleNegBinomialEifPNS_7NDArrayE
libmxnet.so:_ZN5mxnet17UpgradeJSON_ParseEN4nnvm5GraphE
libmxnet.so:_ZN5mxnet18LibraryInitializer3GetEv
libmxnet.so:_ZN5mxnet18LoadLegacyJSONPassEN4nnvm5GraphE
libmxnet.so:_ZN5mxnet18ReadOnlyArgIndicesERKN4nnvm12IndexedGraphE
libmxnet.so:_ZN5mxnet19CachedOpParamParserEPN4nnvm9NodeAttrsE
libmxnet.so:_ZN5mxnet19CreateCachedOpStateERKN4nnvm9NodeAttrsENS_7ContextERKSt6vectorINS_6TShapeESaIS6_EERKS5_IiSaIiEE
libmxnet.so:_ZN5mxnet19SetBackwardInputEidERKSt6vectorIjSaIjEES4_S4_RKS0_IN4nnvm9NodeEntryESaIS6_EERKNS5_12IndexedGraphEPS2_
libmxnet.so:_ZN5mxnet20SampleGenNegBinomialEffPNS_7NDArrayE
libmxnet.so:_ZN5mxnet22UpgradeJSON_FixParsingEN4nnvm5GraphE
libmxnet.so:_ZN5mxnet25UpgradeJSON_000800_000900EN4nnvm5GraphE
libmxnet.so:_ZN5mxnet25UpgradeJSON_000903_000904EN4nnvm5GraphE
libmxnet.so:_ZN5mxnet25UpgradeJSON_000904_000905EN4nnvm5GraphE
libmxnet.so:_ZN5mxnet2io10BatchParam11__MANAGER__Ev
libmxnet.so:_ZN5mxnet2io10MNISTParam11__MANAGER__Ev
libmxnet.so:_ZN5mxnet2io11ImreadParam11__MANAGER__Ev
libmxnet.so:_ZN5mxnet2io11ResizeParam11__MANAGER__Ev
libmxnet.so:_ZN5mxnet2io11ResizeShapeERKN4nnvm9NodeAttrsEPSt6vectorINS_6TShapeESaIS6_EES9_
libmxnet.so:_ZN5mxnet2io12CSVIterParam11__MANAGER__Ev
libmxnet.so:_ZN5mxnet2io12ImdecodeImplEibPvmPNS_7NDArrayE
libmxnet.so:_ZN5mxnet2io12get_png_sizeEPKhjPlS3_
libmxnet.so:_ZN5mxnet2io13ImdecodeParam11__MANAGER__Ev
libmxnet.so:_ZN5mxnet2io13get_jpeg_sizeEPKhjPlS3_
libmxnet.so:_ZN5mxnet2io14ImageAugmenter6CreateERKNSt7__cxx1112basic_stringIcSt11char_traitsIcESaIcEEE
libmxnet.so:_ZN5mxnet2io14copyMakeBorderERKN4nnvm9NodeAttrsERKNS_9OpContextERKSt6vectorINS_5TBlobESaIS9_EERKS8_INS_9OpReqTypeESaISE_EESD_
libmxnet.so:_ZN5mxnet2io15LibSVMIterParam11__MANAGER__Ev
libmxnet.so:_ZN5mxnet2io15MakeBorderParam11__MANAGER__Ev
libmxnet.so:_ZN5mxnet2io15MakeBorderShapeERKN4nnvm9NodeAttrsEPSt6vectorINS_6TShapeESaIS6_EES9_
libmxnet.so:_ZN5mxnet2io15PrefetcherParam11__MANAGER__Ev
libmxnet.so:_ZN5mxnet2io16ImageRecordParam11__MANAGER__Ev
libmxnet.so:_ZN5mxnet2io19ImageDetRecordParam11__MANAGER__Ev
libmxnet.so:_ZN5mxnet2io19ImageNormalizeParam11__MANAGER__Ev
libmxnet.so:_ZN5mxnet2io19ImageRecParserParam11__MANAGER__Ev
libmxnet.so:_ZN5mxnet2io20ListDefaultAugParamsEv
libmxnet.so:_ZN5mxnet2io22ImageDetNormalizeParam11__MANAGER__Ev
libmxnet.so:_ZN5mxnet2io22ImageDetRecParserParam11__MANAGER__Ev
libmxnet.so:_ZN5mxnet2io23ListDefaultDetAugParamsEv
libmxnet.so:_ZN5mxnet2io24DefaultImageAugmentParam11__MANAGER__Ev
libmxnet.so:_ZN5mxnet2io27DefaultImageDetAugmentParam11__MANAGER__Ev
libmxnet.so:_ZN5mxnet2io6ImreadERKN4nnvm9NodeAttrsERKSt6vectorINS_7NDArrayESaIS6_EEPS8_
libmxnet.so:_ZN5mxnet2io8ImdecodeERKN4nnvm9NodeAttrsERKSt6vectorINS_7NDArrayESaIS6_EEPS8_
libmxnet.so:_ZN5mxnet2io8ImresizeERKN4nnvm9NodeAttrsERKNS_9OpContextERKSt6vectorINS_5TBlobESaIS9_EERKS8_INS_9OpReqTypeESaISE_EESD_
libmxnet.so:_ZN5mxnet2op10AdamUpdateIN7mshadow3cpuEEEvRKN4nnvm9NodeAttrsERKNS_9OpContextERKSt6vectorINS_5TBlobESaISC_EERKSB_INS_9OpReqTypeESaISH_EESG_
libmxnet.so:_ZN5mxnet2op10AdamWParam11__MANAGER__Ev
libmxnet.so:_ZN5mxnet2op10CreateNodeENSt7__cxx1112basic_stringIcSt11char_traitsIcESaIcEEES6_
libmxnet.so:_ZN5mxnet2op10DiagOpTypeERKN4nnvm9NodeAttrsEPSt6vectorIiSaIiEES8_
libmxnet.so:_ZN5mxnet2op10EdgeIDTypeERKN4nnvm9NodeAttrsEPSt6vectorIiSaIiEES8_
libmxnet.so:_ZN5mxnet2op10FTMLUpdateIN7mshadow3cpuEEEvRKN4nnvm9NodeAttrsERKNS_9OpContextERKSt6vectorINS_5TBlobESaISC_EERKSB_INS_9OpReqTypeESaISH_EESG_
libmxnet.so:_ZN5mxnet2op10FtrlUpdateIN7mshadow3cpuEEEvRKN4nnvm9NodeAttrsERKNS_9OpContextERKSt6vectorINS_5TBlobESaISC_EERKSB_INS_9OpReqTypeESaISH_EESG_
libmxnet.so:_ZN5mxnet2op10InsertNodeENSt7__cxx1112basic_stringIcSt11char_traitsIcESaIcEEES6_St10shared_ptrIN4nnvm4NodeEENS8_9NodeEntryE
libmxnet.so:_ZN5mxnet2op10LRNComputeIN7mshadow3cpuEEEvRKN4nnvm9NodeAttrsERKNS_9OpContextERKSt6vectorINS_5TBlobESaISC_EERKSB_INS_9OpReqTypeESaISH_EESG_
libmxnet.so:_ZN5mxnet2op10OpExecTypeERKN4nnvm9NodeAttrsE
libmxnet.so:_ZN5mxnet2op10PickOpTypeERKN4nnvm9NodeAttrsEPSt6vectorIiSaIiEES8_
libmxnet.so:_ZN5mxnet2op10RangeParam11__MANAGER__Ev
libmxnet.so:_ZN5mxnet2op10RangeShapeERKN4nnvm9NodeAttrsEPSt6vectorINS_6TShapeESaIS6_EES9_
libmxnet.so:_ZN5mxnet2op10RavelParam11__MANAGER__Ev
libmxnet.so:_ZN5mxnet2op10SliceExCPUERKN4nnvm9NodeAttrsERKNS_9OpContextERKSt6vectorINS_7NDArrayESaIS9_EERKS8_INS_9OpReqTypeESaISE_EESD_
libmxnet.so:_ZN5mxnet2op10SliceParam11__MANAGER__Ev
libmxnet.so:_ZN5mxnet2op10SplitParam11__MANAGER__Ev
libmxnet.so:_ZN5mxnet2op10StackParam11__MANAGER__Ev
libmxnet.so:_ZN5mxnet2op10TakeOpTypeERKN4nnvm9NodeAttrsEPSt6vectorIiSaIiEES8_
libmxnet.so:_ZN5mxnet2op10TileOpTypeERKN4nnvm9NodeAttrsEPSt6vectorIiSaIiEES8_
libmxnet.so:_ZN5mxnet2op10activation13GradNumInputsEi
libmxnet.so:_ZN5mxnet2op11AMPCastTypeERKN4nnvm9NodeAttrsEPSt6vectorIiSaIiEES8_
libmxnet.so:_ZN5mxnet2op11ArgSortTypeERKN4nnvm9NodeAttrsEPSt6vectorIiSaIiEES8_
libmxnet.so:_ZN5mxnet2op11BoxNMSParam11__MANAGER__Ev
libmxnet.so:_ZN5mxnet2op11BoxNMSShapeERKN4nnvm9NodeAttrsEPSt6vectorINS_6TShapeESaIS6_EES9_
libmxnet.so:_ZN5mxnet2op11CastComputeIN7mshadow3cpuEEEvRKN4nnvm9NodeAttrsERKNS_9OpContextERKSt6vectorINS_5TBlobESaISC_EERKSB_INS_9OpReqTypeESaISH_EESG_
libmxnet.so:_ZN5mxnet2op11ConcatParam11__MANAGER__Ev
libmxnet.so:_ZN5mxnet2op11DiagOpShapeERKN4nnvm9NodeAttrsEPSt6vectorINS_6TShapeESaIS6_EES9_
libmxnet.so:_ZN5mxnet2op11DotForward_IN7mshadow3cpuEEEvRKN4nnvm9NodeAttrsERKNS_9OpContextERKSt6vectorINS_5TBlobESaISC_EERKSB_INS_9OpReqTypeESaISH_EESG_
libmxnet.so:_ZN5mxnet2op11EdgeIDShapeERKN4nnvm9NodeAttrsEPSt6vectorINS_6TShapeESaIS6_EES9_
libmxnet.so:_ZN5mxnet2op11FillComputeIN7mshadow3cpuELi0EEEvRKN4nnvm9NodeAttrsERKNS_9OpContextERKSt6vectorINS_5TBlobESaISC_EERKSB_INS_9OpReqTypeESaISH_EESG_
libmxnet.so:_ZN5mxnet2op11FillComputeIN7mshadow3cpuELi1EEEvRKN4nnvm9NodeAttrsERKNS_9OpContextERKSt6vectorINS_5TBlobESaISC_EERKSB_INS_9OpReqTypeESaISH_EESG_
libmxnet.so:_ZN5mxnet2op11InitOpParam11__MANAGER__Ev
libmxnet.so:_ZN5mxnet2op11LaDiagParam11__MANAGER__Ev
libmxnet.so:_ZN5mxnet2op11LaOpForwardIN7mshadow3cpuELi1ELi2ELi1ELi1ENS0_8copydiagEEEvRKN4nnvm9NodeAttrsERKNS_9OpContextERKSt6vectorINS_5TBlobESaISD_EERKSC_INS_9OpReqTypeESaISI_EESH_
libmxnet.so:_ZN5mxnet2op11LaOpForwardIN7mshadow3cpuELi1ELi2ELi1ELi1ENS0_9copytrianEEEvRKN4nnvm9NodeAttrsERKNS_9OpContextERKSt6vectorINS_5TBlobESaISD_EERKSC_INS_9OpReqTypeESaISI_EESH_
libmxnet.so:_ZN5mxnet2op11LaOpForwardIN7mshadow3cpuELi2ELi0ELi1ELi1ENS0_10sumlogdiagEEEvRKN4nnvm9NodeAttrsERKNS_9OpContextERKSt6vectorINS_5TBlobESaISD_EERKSC_INS_9OpReqTypeESaISI_EESH_
libmxnet.so:_ZN5mxnet2op11LaOpForwardIN7mshadow3cpuELi2ELi1ELi1ELi1ENS0_8copydiagEEEvRKN4nnvm9NodeAttrsERKNS_9OpContextERKSt6vectorINS_5TBlobESaISD_EERKSC_INS_9OpReqTypeESaISI_EESH_
libmxnet.so:_ZN5mxnet2op11LaOpForwardIN7mshadow3cpuELi2ELi1ELi1ELi1ENS0_9copytrianEEEvRKN4nnvm9NodeAttrsERKNS_9OpContextERKSt6vectorINS_5TBlobESaISD_EERKSC_INS_9OpReqTypeESaISI_EESH_
libmxnet.so:_ZN5mxnet2op11LaOpForwardIN7mshadow3cpuELi2ELi2ELi1ELi1ENS0_4syrkEEEvRKN4nnvm9NodeAttrsERKNS_9OpContextERKSt6vectorINS_5TBlobESaISD_EERKSC_INS_9OpReqTypeESaISI_EESH_
libmxnet.so:_ZN5mxnet2op11LaOpForwardIN7mshadow3cpuELi2ELi2ELi1ELi1ENS0_5potrfEEEvRKN4nnvm9NodeAttrsERKNS_9OpContextERKSt6vectorINS_5TBlobESaISD_EERKSC_INS_9OpReqTypeESaISI_EESH_
libmxnet.so:_ZN5mxnet2op11LaOpForwardIN7mshadow3cpuELi2ELi2ELi1ELi1ENS0_5potriEEEvRKN4nnvm9NodeAttrsERKNS_9OpContextERKSt6vectorINS_5TBlobESaISD_EERKSC_INS_9OpReqTypeESaISI_EESH_
libmxnet.so:_ZN5mxnet2op11LaOpForwardIN7mshadow3cpuELi2ELi2ELi1ELi1ENS0_7inverseEEEvRKN4nnvm9NodeAttrsERKNS_9OpContextERKSt6vectorINS_5TBlobESaISD_EERKSC_INS_9OpReqTypeESaISI_EESH_
libmxnet.so:_ZN5mxnet2op11LaOpForwardIN7mshadow3cpuELi2ELi2ELi1ELi2ENS0_5gelqfEEEvRKN4nnvm9NodeAttrsERKNS_9OpContextERKSt6vectorINS_5TBlobESaISD_EERKSC_INS_9OpReqTypeESaISI_EESH_
libmxnet.so:_ZN5mxnet2op11LaOpForwardIN7mshadow3cpuELi2ELi2ELi2ELi1ENS0_4trmmEEEvRKN4nnvm9NodeAttrsERKNS_9OpContextERKSt6vectorINS_5TBlobESaISD_EERKSC_INS_9OpReqTypeESaISI_EESH_
libmxnet.so:_ZN5mxnet2op11LaOpForwardIN7mshadow3cpuELi2ELi2ELi2ELi1ENS0_4trsmEEEvRKN4nnvm9NodeAttrsERKNS_9OpContextERKSt6vectorINS_5TBlobESaISD_EERKSC_INS_9OpReqTypeESaISI_EESH_
libmxnet.so:_ZN5mxnet2op11LaSyrkParam11__MANAGER__Ev
libmxnet.so:_ZN5mxnet2op11LaSyrkShapeERKN4nnvm9NodeAttrsEPSt6vectorINS_6TShapeESaIS6_EES9_
libmxnet.so:_ZN5mxnet2op11MPUpdateCPUINS0_11AdamWUpdateEEEvRKN4nnvm9NodeAttrsERKNS_9OpContextERKSt6vectorINS_5TBlobESaISB_EERKSA_INS_9OpReqTypeESaISG_EESF_
libmxnet.so:_ZN5mxnet2op11MPUpdateCPUINS0_13MPAdamWUpdateEEEvRKN4nnvm9NodeAttrsERKNS_9OpContextERKSt6vectorINS_5TBlobESaISB_EERKSA_INS_9OpReqTypeESaISG_EESF_
libmxnet.so:_ZN5mxnet2op11MomentsTypeERKN4nnvm9NodeAttrsEPSt6vectorIiSaIiEES8_
libmxnet.so:_ZN5mxnet2op11NAGMomParam11__MANAGER__Ev
libmxnet.so:_ZN5mxnet2op11OneHotParam11__MANAGER__Ev
libmxnet.so:_ZN5mxnet2op11ParamParserINS0_10AdamWParamEEEvPN4nnvm9NodeAttrsE
libmxnet.so:_ZN5mxnet2op11ParamParserINS0_10RavelParamEEEvPN4nnvm9NodeAttrsE
libmxnet.so:_ZN5mxnet2op11ParamParserINS0_10SliceParamEEEvPN4nnvm9NodeAttrsE
libmxnet.so:_ZN5mxnet2op11ParamParserINS0_10SplitParamEEEvPN4nnvm9NodeAttrsE
libmxnet.so:_ZN5mxnet2op11ParamParserINS0_10StackParamEEEvPN4nnvm9NodeAttrsE
libmxnet.so:_ZN5mxnet2op11ParamParserINS0_11BoxNMSParamEEEvPN4nnvm9NodeAttrsE
libmxnet.so:_ZN5mxnet2op11ParamParserINS0_11ConcatParamEEEvPN4nnvm9NodeAttrsE
libmxnet.so:_ZN5mxnet2op11ParamParserINS0_11InitOpParamEEEvPN4nnvm9NodeAttrsE
libmxnet.so:_ZN5mxnet2op11ParamParserINS0_11LaDiagParamEEEvPN4nnvm9NodeAttrsE
libmxnet.so:_ZN5mxnet2op11ParamParserINS0_11LaSyrkParamEEEvPN4nnvm9NodeAttrsE
libmxnet.so:_ZN5mxnet2op11ParamParserINS0_11NAGMomParamEEEvPN4nnvm9NodeAttrsE
libmxnet.so:_ZN5mxnet2op11ParamParserINS0_11OneHotParamEEEvPN4nnvm9NodeAttrsE
libmxnet.so:_ZN5mxnet2op11ParamParserINS0_11RepeatParamEEEvPN4nnvm9NodeAttrsE
libmxnet.so:_ZN5mxnet2op11ParamParserINS0_11SGDMomParamEEEvPN4nnvm9NodeAttrsE
libmxnet.so:_ZN5mxnet2op11ParamParserINS0_11SignumParamEEEvPN4nnvm9NodeAttrsE
libmxnet.so:_ZN5mxnet2op11ParamParserINS0_12AMPCastParamEEEvPN4nnvm9NodeAttrsE
libmxnet.so:_ZN5mxnet2op11ParamParserINS0_12AdagradParamEEEvPN4nnvm9NodeAttrsE
libmxnet.so:_ZN5mxnet2op11ParamParserINS0_12ArgSortParamEEEvPN4nnvm9NodeAttrsE
libmxnet.so:_ZN5mxnet2op11ParamParserINS0_12DropoutParamEEEvPN4nnvm9NodeAttrsE
libmxnet.so:_ZN5mxnet2op11ParamParserINS0_12ForeachParamEEEvPN4nnvm9NodeAttrsE
libmxnet.so:_ZN5mxnet2op11ParamParserINS0_12LaTrianParamEEEvPN4nnvm9NodeAttrsE
libmxnet.so:_ZN5mxnet2op11ParamParserINS0_12MomentsParamEEEvPN4nnvm9NodeAttrsE
libmxnet.so:_ZN5mxnet2op11ParamParserINS0_12RMSPropParamEEEvPN4nnvm9NodeAttrsE
libmxnet.so:_ZN5mxnet2op11ParamParserINS0_12ReshapeParamEEEvPN4nnvm9NodeAttrsE
libmxnet.so:_ZN5mxnet2op11ParamParserINS0_12ReverseParamEEEvPN4nnvm9NodeAttrsE
libmxnet.so:_ZN5mxnet2op11ParamParserINS0_12SignSGDParamEEEvPN4nnvm9NodeAttrsE
libmxnet.so:_ZN5mxnet2op11ParamParserINS0_12SoftmaxParamEEEvPN4nnvm9NodeAttrsE
libmxnet.so:_ZN5mxnet2op11ParamParserINS0_12SqueezeParamEEEvPN4nnvm9NodeAttrsE
libmxnet.so:_ZN5mxnet2op11ParamParserINS0_13LinspaceParamEEEvPN4nnvm9NodeAttrsE
libmxnet.so:_ZN5mxnet2op11ParamParserINS0_13MultiSGDParamEEEvPN4nnvm9NodeAttrsE
libmxnet.so:_ZN5mxnet2op11ParamParserINS0_13QuantizeParamEEEvPN4nnvm9NodeAttrsE
libmxnet.so:_ZN5mxnet2op11ParamParserINS0_13ROIAlignParamEEEvPN4nnvm9NodeAttrsE
libmxnet.so:_ZN5mxnet2op11ParamParserINS0_14AllFiniteParamEEEvPN4nnvm9NodeAttrsE
libmxnet.so:_ZN5mxnet2op11ParamParserINS0_14BatchNormParamEEEvPN4nnvm9NodeAttrsE
libmxnet.so:_ZN5mxnet2op11ParamParserINS0_14CTCLossOpParamEEEvPN4nnvm9NodeAttrsE
libmxnet.so:_ZN5mxnet2op11ParamParserINS0_14EmbeddingParamEEEvPN4nnvm9NodeAttrsE
libmxnet.so:_ZN5mxnet2op11ParamParserINS0_14ExpandDimParamEEEvPN4nnvm9NodeAttrsE
libmxnet.so:_ZN5mxnet2op11ParamParserINS0_14HistogramParamEEEvPN4nnvm9NodeAttrsE
libmxnet.so:_ZN5mxnet2op11ParamParserINS0_14KhatriRaoParamEEEvPN4nnvm9NodeAttrsE
libmxnet.so:_ZN5mxnet2op11ParamParserINS0_14LayerNormParamEEEvPN4nnvm9NodeAttrsE
libmxnet.so:_ZN5mxnet2op11ParamParserINS0_14QuadraticParamEEEvPN4nnvm9NodeAttrsE
libmxnet.so:_ZN5mxnet2op11ParamParserINS0_14ScatterNDParamEEEvPN4nnvm9NodeAttrsE
libmxnet.so:_ZN5mxnet2op11ParamParserINS0_14SliceAxisParamEEEvPN4nnvm9NodeAttrsE
libmxnet.so:_ZN5mxnet2op11ParamParserINS0_14SliceLikeParamEEEvPN4nnvm9NodeAttrsE
libmxnet.so:_ZN5mxnet2op11ParamParserINS0_14TransposeParamEEEvPN4nnvm9NodeAttrsE
libmxnet.so:_ZN5mxnet2op11ParamParserINS0_14WhileLoopParamEEEvPN4nnvm9NodeAttrsE
libmxnet.so:_ZN5mxnet2op11ParamParserINS0_15ActivationParamEEEvPN4nnvm9NodeAttrsE
libmxnet.so:_ZN5mxnet2op11ParamParserINS0_15BoxOverlapParamEEEvPN4nnvm9NodeAttrsE
libmxnet.so:_ZN5mxnet2op11ParamParserINS0_15DequantizeParamEEEvPN4nnvm9NodeAttrsE
libmxnet.so:_ZN5mxnet2op11ParamParserINS0_15IndexArrayParamEEEvPN4nnvm9NodeAttrsE
libmxnet.so:_ZN5mxnet2op11ParamParserINS0_15LaCholeskyParamEEEvPN4nnvm9NodeAttrsE
libmxnet.so:_ZN5mxnet2op11ParamParserINS0_15QuantizeV2ParamEEEvPN4nnvm9NodeAttrsE
libmxnet.so:_ZN5mxnet2op11ParamParserINS0_15ReduceAxesParamEEEvPN4nnvm9NodeAttrsE
libmxnet.so:_ZN5mxnet2op11ParamParserINS0_15ReduceAxisParamEEEvPN4nnvm9NodeAttrsE
libmxnet.so:_ZN5mxnet2op11ParamParserINS0_15RequantizeParamEEEvPN4nnvm9NodeAttrsE
libmxnet.so:_ZN5mxnet2op11ParamParserINS0_15UpSamplingParamEEEvPN4nnvm9NodeAttrsE
libmxnet.so:_ZN5mxnet2op11ParamParserINS0_16BooleanMaskParamEEEvPN4nnvm9NodeAttrsE
libmxnet.so:_ZN5mxnet2op11ParamParserINS0_16BroadcastToParamEEEvPN4nnvm9NodeAttrsE
libmxnet.so:_ZN5mxnet2op11ParamParserINS0_16CastStorageParamEEEvPN4nnvm9NodeAttrsE
libmxnet.so:_ZN5mxnet2op11ParamParserINS0_16DGLSubgraphParamEEEvPN4nnvm9NodeAttrsE
libmxnet.so:_ZN5mxnet2op11ParamParserINS0_16HardSigmoidParamEEEvPN4nnvm9NodeAttrsE
libmxnet.so:_ZN5mxnet2op11ParamParserINS0_16LaMatrixMacParamEEEvPN4nnvm9NodeAttrsE
libmxnet.so:_ZN5mxnet2op11ParamParserINS0_16MultiSGDMomParamEEEvPN4nnvm9NodeAttrsE
libmxnet.so:_ZN5mxnet2op11ParamParserINS0_16MultiSampleParamEEEvPN4nnvm9NodeAttrsE
libmxnet.so:_ZN5mxnet2op11ParamParserINS0_16RMSPropAlexParamEEEvPN4nnvm9NodeAttrsE
libmxnet.so:_ZN5mxnet2op11ParamParserINS0_16ReshapeLikeParamEEEvPN4nnvm9NodeAttrsE
libmxnet.so:_ZN5mxnet2op11ParamParserINS0_16SampleGammaParamEEEvPN4nnvm9NodeAttrsE
libmxnet.so:_ZN5mxnet2op11ParamParserINS0_17AMPMultiCastParamEEEvPN4nnvm9NodeAttrsE
libmxnet.so:_ZN5mxnet2op11ParamParserINS0_17DepthToSpaceParamEEEvPN4nnvm9NodeAttrsE
libmxnet.so:_ZN5mxnet2op11ParamParserINS0_17GroupAdagradParamEEEvPN4nnvm9NodeAttrsE
libmxnet.so:_ZN5mxnet2op11ParamParserINS0_17LaMatrixMultParamEEEvPN4nnvm9NodeAttrsE
libmxnet.so:_ZN5mxnet2op11ParamParserINS0_17SampleNormalParamEEEvPN4nnvm9NodeAttrsE
libmxnet.so:_ZN5mxnet2op11ParamParserINS0_18BroadcastAxesParamEEEvPN4nnvm9NodeAttrsE
libmxnet.so:_ZN5mxnet2op11ParamParserINS0_18BroadcastLikeParamEEEvPN4nnvm9NodeAttrsE
libmxnet.so:_ZN5mxnet2op11ParamParserINS0_18SamplePoissonParamEEEvPN4nnvm9NodeAttrsE
libmxnet.so:_ZN5mxnet2op11ParamParserINS0_18SampleRandIntParamEEEvPN4nnvm9NodeAttrsE
libmxnet.so:_ZN5mxnet2op11ParamParserINS0_18SampleUniformParamEEEvPN4nnvm9NodeAttrsE
libmxnet.so:_ZN5mxnet2op11ParamParserINS0_18SoftmaxOutputParamEEEvPN4nnvm9NodeAttrsE
libmxnet.so:_ZN5mxnet2op11ParamParserINS0_19BilinearSampleParamEEEvPN4nnvm9NodeAttrsE
libmxnet.so:_ZN5mxnet2op11ParamParserINS0_19ElementWiseSumParamEEEvPN4nnvm9NodeAttrsE
libmxnet.so:_ZN5mxnet2op11ParamParserINS0_19FullyConnectedParamEEEvPN4nnvm9NodeAttrsE
libmxnet.so:_ZN5mxnet2op11ParamParserINS0_19MultiAllFiniteParamEEEvPN4nnvm9NodeAttrsE
libmxnet.so:_ZN5mxnet2op11ParamParserINS0_19NeighborSampleParamEEEvPN4nnvm9NodeAttrsE
libmxnet.so:_ZN5mxnet2op11ParamParserINS0_20AdaptiveAvgPoolParamEEEvPN4nnvm9NodeAttrsE
libmxnet.so:_ZN5mxnet2op11ParamParserINS0_20SampleGammaLikeParamEEEvPN4nnvm9NodeAttrsE
libmxnet.so:_ZN5mxnet2op11ParamParserINS0_20SparseEmbeddingParamEEEvPN4nnvm9NodeAttrsE
libmxnet.so:_ZN5mxnet2op11ParamParserINS0_20SubgraphCompactParamEEEvPN4nnvm9NodeAttrsE
libmxnet.so:_ZN5mxnet2op11ParamParserINS0_21InitOpWithScalarParamEEEvPN4nnvm9NodeAttrsE
libmxnet.so:_ZN5mxnet2op11ParamParserINS0_21RegressionOutputParamEEEvPN4nnvm9NodeAttrsE
libmxnet.so:_ZN5mxnet2op11ParamParserINS0_21SampleNormalLikeParamEEEvPN4nnvm9NodeAttrsE
libmxnet.so:_ZN5mxnet2op11ParamParserINS0_22BipartiteMatchingParamEEEvPN4nnvm9NodeAttrsE
libmxnet.so:_ZN5mxnet2op11ParamParserINS0_22SampleExponentialParamEEEvPN4nnvm9NodeAttrsE
libmxnet.so:_ZN5mxnet2op11ParamParserINS0_22SampleMultinomialParamEEEvPN4nnvm9NodeAttrsE
libmxnet.so:_ZN5mxnet2op11ParamParserINS0_22SampleNegBinomialParamEEEvPN4nnvm9NodeAttrsE
libmxnet.so:_ZN5mxnet2op11ParamParserINS0_22SamplePoissonLikeParamEEEvPN4nnvm9NodeAttrsE
libmxnet.so:_ZN5mxnet2op11ParamParserINS0_22SampleUniformLikeParamEEEvPN4nnvm9NodeAttrsE
libmxnet.so:_ZN5mxnet2op11ParamParserINS0_22SliceAssignScalarParamEEEvPN4nnvm9NodeAttrsE
libmxnet.so:_ZN5mxnet2op11ParamParserINS0_22SoftmaxActivationParamEEEvPN4nnvm9NodeAttrsE
libmxnet.so:_ZN5mxnet2op11ParamParserINS0_23InitOpWithoutDTypeParamEEEvPN4nnvm9NodeAttrsE
libmxnet.so:_ZN5mxnet2op11ParamParserINS0_23LaTriangMatrixMultParamEEEvPN4nnvm9NodeAttrsE
libmxnet.so:_ZN5mxnet2op11ParamParserINS0_24SampleUniqueZifpianParamEEEvPN4nnvm9NodeAttrsE
libmxnet.so:_ZN5mxnet2op11ParamParserINS0_25SampleGenNegBinomialParamEEEvPN4nnvm9NodeAttrsE
libmxnet.so:_ZN5mxnet2op11ParamParserINS0_26SampleExponentialLikeParamEEEvPN4nnvm9NodeAttrsE
libmxnet.so:_ZN5mxnet2op11ParamParserINS0_26SampleNegBinomialLikeParamEEEvPN4nnvm9NodeAttrsE
libmxnet.so:_ZN5mxnet2op11ParamParserINS0_29SampleGenNegBinomialLikeParamEEEvPN4nnvm9NodeAttrsE
libmxnet.so:_ZN5mxnet2op11ParamParserINS0_5image11ResizeParamEEEvPN4nnvm9NodeAttrsE
libmxnet.so:_ZN5mxnet2op11ParamParserINS0_5image14NormalizeParamEEEvPN4nnvm9NodeAttrsE
libmxnet.so:_ZN5mxnet2op11ParamParserINS0_5image18RandomEnhanceParamEEEvPN4nnvm9NodeAttrsE
libmxnet.so:_ZN5mxnet2op11ParamParserINS0_5image19AdjustLightingParamEEEvPN4nnvm9NodeAttrsE
libmxnet.so:_ZN5mxnet2op11ParamParserINS0_5image19RandomLightingParamEEEvPN4nnvm9NodeAttrsE
libmxnet.so:_ZN5mxnet2op11ParamParserINS0_5image22RandomColorJitterParamEEEvPN4nnvm9NodeAttrsE
libmxnet.so:_ZN5mxnet2op11ParamParserINS0_5image9CropParamEEEvPN4nnvm9NodeAttrsE
libmxnet.so:_ZN5mxnet2op11ParamParserINS0_8DotParamEEEvPN4nnvm9NodeAttrsE
libmxnet.so:_ZN5mxnet2op11ParamParserINS0_8EyeParamEEEvPN4nnvm9NodeAttrsE
libmxnet.so:_ZN5mxnet2op11ParamParserINS0_8LRNParamEEEvPN4nnvm9NodeAttrsE
libmxnet.so:_ZN5mxnet2op11ParamParserINS0_8NNZParamEEEvPN4nnvm9NodeAttrsE
libmxnet.so:_ZN5mxnet2op11ParamParserINS0_8RNNParamEEEvPN4nnvm9NodeAttrsE
libmxnet.so:_ZN5mxnet2op11ParamParserINS0_8SGDParamEEEvPN4nnvm9NodeAttrsE
libmxnet.so:_ZN5mxnet2op11ParamParserINS0_9AdamParamEEEvPN4nnvm9NodeAttrsE
libmxnet.so:_ZN5mxnet2op11ParamParserINS0_9CastParamEEEvPN4nnvm9NodeAttrsE
libmxnet.so:_ZN5mxnet2op11ParamParserINS0_9ClipParamEEEvPN4nnvm9NodeAttrsE
libmxnet.so:_ZN5mxnet2op11ParamParserINS0_9CondParamEEEvPN4nnvm9NodeAttrsE
libmxnet.so:_ZN5mxnet2op11ParamParserINS0_9DiagParamEEEvPN4nnvm9NodeAttrsE
libmxnet.so:_ZN5mxnet2op11ParamParserINS0_9FTMLParamEEEvPN4nnvm9NodeAttrsE
libmxnet.so:_ZN5mxnet2op11ParamParserINS0_9FtrlParamEEEvPN4nnvm9NodeAttrsE
libmxnet.so:_ZN5mxnet2op11ParamParserINS0_9NormParamEEEvPN4nnvm9NodeAttrsE
libmxnet.so:_ZN5mxnet2op11ParamParserINS0_9PickParamEEEvPN4nnvm9NodeAttrsE
libmxnet.so:_ZN5mxnet2op11ParamParserINS0_9SortParamEEEvPN4nnvm9NodeAttrsE
libmxnet.so:_ZN5mxnet2op11ParamParserINS0_9TakeParamEEEvPN4nnvm9NodeAttrsE
libmxnet.so:_ZN5mxnet2op11ParamParserINS0_9TileParamEEEvPN4nnvm9NodeAttrsE
libmxnet.so:_ZN5mxnet2op11ParamParserINS0_9TopKParamEEEvPN4nnvm9NodeAttrsE
libmxnet.so:_ZN5mxnet2op11ParamParserINS_2io11ImreadParamEEEvPN4nnvm9NodeAttrsE
libmxnet.so:_ZN5mxnet2op11ParamParserINS_2io11ResizeParamEEEvPN4nnvm9NodeAttrsE
libmxnet.so:_ZN5mxnet2op11ParamParserINS_2io13ImdecodeParamEEEvPN4nnvm9NodeAttrsE
libmxnet.so:_ZN5mxnet2op11ParamParserINS_2io15MakeBorderParamEEEvPN4nnvm9NodeAttrsE
libmxnet.so:_ZN5mxnet2op11PickOpShapeERKN4nnvm9NodeAttrsEPSt6vectorINS_6TShapeESaIS6_EES9_
libmxnet.so:_ZN5mxnet2op11RepeatParam11__MANAGER__Ev
libmxnet.so:_ZN5mxnet2op11SGDMomParam11__MANAGER__Ev
libmxnet.so:_ZN5mxnet2op11SGDUpdateExIN7mshadow3cpuEEEvRKN4nnvm9NodeAttrsERKNS_9OpContextERKSt6vectorINS_7NDArrayESaISC_EERKSB_INS_9OpReqTypeESaISH_EESG_
libmxnet.so:_ZN5mxnet2op11SignumParam11__MANAGER__Ev
libmxnet.so:_ZN5mxnet2op11SplitOpTypeERKN4nnvm9NodeAttrsEPSt6vectorIiSaIiEES8_
libmxnet.so:_ZN5mxnet2op11TakeOpShapeERKN4nnvm9NodeAttrsEPSt6vectorINS_6TShapeESaIS6_EES9_
libmxnet.so:_ZN5mxnet2op11TileOpShapeERKN4nnvm9NodeAttrsEPSt6vectorINS_6TShapeESaIS6_EES9_
libmxnet.so:_ZN5mxnet2op11UnaryOpTuneIN7mshadow4half6half_tEE17TuneUnaryOperatorINS0_10mshadow_op10reciprocalEEEvv
libmxnet.so:_ZN5mxnet2op11UnaryOpTuneIN7mshadow4half6half_tEE17TuneUnaryOperatorINS0_10mshadow_op11square_rootEEEvv
libmxnet.so:_ZN5mxnet2op11UnaryOpTuneIN7mshadow4half6half_tEE17TuneUnaryOperatorINS0_10mshadow_op20reciprocal_cube_rootEEEvv
libmxnet.so:_ZN5mxnet2op11UnaryOpTuneIN7mshadow4half6half_tEE17TuneUnaryOperatorINS0_10mshadow_op22reciprocal_square_rootEEEvv
libmxnet.so:_ZN5mxnet2op11UnaryOpTuneIN7mshadow4half6half_tEE17TuneUnaryOperatorINS0_10mshadow_op2ntEEEvv
libmxnet.so:_ZN5mxnet2op11UnaryOpTuneIN7mshadow4half6half_tEE17TuneUnaryOperatorINS0_10mshadow_op3absEEEvv
libmxnet.so:_ZN5mxnet2op11UnaryOpTuneIN7mshadow4half6half_tEE17TuneUnaryOperatorINS0_10mshadow_op3cosEEEvv
libmxnet.so:_ZN5mxnet2op11UnaryOpTuneIN7mshadow4half6half_tEE17TuneUnaryOperatorINS0_10mshadow_op3erfEEEvv
libmxnet.so:_ZN5mxnet2op11UnaryOpTuneIN7mshadow4half6half_tEE17TuneUnaryOperatorINS0_10mshadow_op3expEEEvv
libmxnet.so:_ZN5mxnet2op11UnaryOpTuneIN7mshadow4half6half_tEE17TuneUnaryOperatorINS0_10mshadow_op3fixEEEvv
libmxnet.so:_ZN5mxnet2op11UnaryOpTuneIN7mshadow4half6half_tEE17TuneUnaryOperatorINS0_10mshadow_op3logEEEvv
libmxnet.so:_ZN5mxnet2op11UnaryOpTuneIN7mshadow4half6half_tEE17TuneUnaryOperatorINS0_10mshadow_op3sinEEEvv
libmxnet.so:_ZN5mxnet2op11UnaryOpTuneIN7mshadow4half6half_tEE17TuneUnaryOperatorINS0_10mshadow_op3tanEEEvv
libmxnet.so:_ZN5mxnet2op11UnaryOpTuneIN7mshadow4half6half_tEE17TuneUnaryOperatorINS0_10mshadow_op4ceilEEEvv
libmxnet.so:_ZN5mxnet2op11UnaryOpTuneIN7mshadow4half6half_tEE17TuneUnaryOperatorINS0_10mshadow_op4coshEEEvv
libmxnet.so:_ZN5mxnet2op11UnaryOpTuneIN7mshadow4half6half_tEE17TuneUnaryOperatorINS0_10mshadow_op4geluEEEvv
libmxnet.so:_ZN5mxnet2op11UnaryOpTuneIN7mshadow4half6half_tEE17TuneUnaryOperatorINS0_10mshadow_op4log2EEEvv
libmxnet.so:_ZN5mxnet2op11UnaryOpTuneIN7mshadow4half6half_tEE17TuneUnaryOperatorINS0_10mshadow_op4reluEEEvv
libmxnet.so:_ZN5mxnet2op11UnaryOpTuneIN7mshadow4half6half_tEE17TuneUnaryOperatorINS0_10mshadow_op4rintEEEvv
libmxnet.so:_ZN5mxnet2op11UnaryOpTuneIN7mshadow4half6half_tEE17TuneUnaryOperatorINS0_10mshadow_op4seluEEEvv
libmxnet.so:_ZN5mxnet2op11UnaryOpTuneIN7mshadow4half6half_tEE17TuneUnaryOperatorINS0_10mshadow_op4signEEEvv
libmxnet.so:_ZN5mxnet2op11UnaryOpTuneIN7mshadow4half6half_tEE17TuneUnaryOperatorINS0_10mshadow_op4sinhEEEvv
libmxnet.so:_ZN5mxnet2op11UnaryOpTuneIN7mshadow4half6half_tEE17TuneUnaryOperatorINS0_10mshadow_op4tanhEEEvv
libmxnet.so:_ZN5mxnet2op11UnaryOpTuneIN7mshadow4half6half_tEE17TuneUnaryOperatorINS0_10mshadow_op5expm1EEEvv
libmxnet.so:_ZN5mxnet2op11UnaryOpTuneIN7mshadow4half6half_tEE17TuneUnaryOperatorINS0_10mshadow_op5floorEEEvv
libmxnet.so:_ZN5mxnet2op11UnaryOpTuneIN7mshadow4half6half_tEE17TuneUnaryOperatorINS0_10mshadow_op5gammaEEEvv
libmxnet.so:_ZN5mxnet2op11UnaryOpTuneIN7mshadow4half6half_tEE17TuneUnaryOperatorINS0_10mshadow_op5log10EEEvv
libmxnet.so:_ZN5mxnet2op11UnaryOpTuneIN7mshadow4half6half_tEE17TuneUnaryOperatorINS0_10mshadow_op5log1pEEEvv
libmxnet.so:_ZN5mxnet2op11UnaryOpTuneIN7mshadow4half6half_tEE17TuneUnaryOperatorINS0_10mshadow_op5roundEEEvv
libmxnet.so:_ZN5mxnet2op11UnaryOpTuneIN7mshadow4half6half_tEE17TuneUnaryOperatorINS0_10mshadow_op5truncEEEvv
libmxnet.so:_ZN5mxnet2op11UnaryOpTuneIN7mshadow4half6half_tEE17TuneUnaryOperatorINS0_10mshadow_op6arccosEEEvv
libmxnet.so:_ZN5mxnet2op11UnaryOpTuneIN7mshadow4half6half_tEE17TuneUnaryOperatorINS0_10mshadow_op6arcsinEEEvv
libmxnet.so:_ZN5mxnet2op11UnaryOpTuneIN7mshadow4half6half_tEE17TuneUnaryOperatorINS0_10mshadow_op6arctanEEEvv
libmxnet.so:_ZN5mxnet2op11UnaryOpTuneIN7mshadow4half6half_tEE17TuneUnaryOperatorINS0_10mshadow_op6erfinvEEEvv
libmxnet.so:_ZN5mxnet2op11UnaryOpTuneIN7mshadow4half6half_tEE17TuneUnaryOperatorINS0_10mshadow_op6squareEEEvv
libmxnet.so:_ZN5mxnet2op11UnaryOpTuneIN7mshadow4half6half_tEE17TuneUnaryOperatorINS0_10mshadow_op7arccoshEEEvv
libmxnet.so:_ZN5mxnet2op11UnaryOpTuneIN7mshadow4half6half_tEE17TuneUnaryOperatorINS0_10mshadow_op7arcsinhEEEvv
libmxnet.so:_ZN5mxnet2op11UnaryOpTuneIN7mshadow4half6half_tEE17TuneUnaryOperatorINS0_10mshadow_op7arctanhEEEvv
libmxnet.so:_ZN5mxnet2op11UnaryOpTuneIN7mshadow4half6half_tEE17TuneUnaryOperatorINS0_10mshadow_op7degreesEEEvv
libmxnet.so:_ZN5mxnet2op11UnaryOpTuneIN7mshadow4half6half_tEE17TuneUnaryOperatorINS0_10mshadow_op7gammalnEEEvv
libmxnet.so:_ZN5mxnet2op11UnaryOpTuneIN7mshadow4half6half_tEE17TuneUnaryOperatorINS0_10mshadow_op7radiansEEEvv
libmxnet.so:_ZN5mxnet2op11UnaryOpTuneIN7mshadow4half6half_tEE17TuneUnaryOperatorINS0_10mshadow_op7sigmoidEEEvv
libmxnet.so:_ZN5mxnet2op11UnaryOpTuneIN7mshadow4half6half_tEE17TuneUnaryOperatorINS0_10mshadow_op8identityEEEvv
libmxnet.so:_ZN5mxnet2op11UnaryOpTuneIN7mshadow4half6half_tEE17TuneUnaryOperatorINS0_10mshadow_op8negationEEEvv
libmxnet.so:_ZN5mxnet2op11UnaryOpTuneIN7mshadow4half6half_tEE17TuneUnaryOperatorINS0_10mshadow_op8softreluEEEvv
libmxnet.so:_ZN5mxnet2op11UnaryOpTuneIN7mshadow4half6half_tEE17TuneUnaryOperatorINS0_10mshadow_op8softsignEEEvv
libmxnet.so:_ZN5mxnet2op11UnaryOpTuneIN7mshadow4half6half_tEE17TuneUnaryOperatorINS0_10mshadow_op9cube_rootEEEvv
libmxnet.so:_ZN5mxnet2op11UnaryOpTuneIN7mshadow4half6half_tEE19TuneBlankOperatorExINS0_24PopulateFullIdxRspKernelEEEvv
libmxnet.so:_ZN5mxnet2op11UnaryOpTuneIN7mshadow4half6half_tEE19TuneBlankOperatorExINS0_8mxnet_op10set_to_intILi0EEEEEvv
libmxnet.so:_ZN5mxnet2op11UnaryOpTuneIN7mshadow4half6half_tEE19TuneBlankOperatorExINS0_8mxnet_op10set_to_intILi1EEEEEvv
libmxnet.so:_ZN5mxnet2op11UnaryOpTuneIN7mshadow4half6half_tEE25TuneUnaryBackwardOperatorINS0_10mshadow_op10gamma_gradEEEvv
libmxnet.so:_ZN5mxnet2op11UnaryOpTuneIN7mshadow4half6half_tEE25TuneUnaryBackwardOperatorINS0_10mshadow_op10log10_gradEEEvv
libmxnet.so:_ZN5mxnet2op11UnaryOpTuneIN7mshadow4half6half_tEE25TuneUnaryBackwardOperatorINS0_10mshadow_op10log1p_gradEEEvv
libmxnet.so:_ZN5mxnet2op11UnaryOpTuneIN7mshadow4half6half_tEE25TuneUnaryBackwardOperatorINS0_10mshadow_op11arccos_gradEEEvv
libmxnet.so:_ZN5mxnet2op11UnaryOpTuneIN7mshadow4half6half_tEE25TuneUnaryBackwardOperatorINS0_10mshadow_op11arcsin_gradEEEvv
libmxnet.so:_ZN5mxnet2op11UnaryOpTuneIN7mshadow4half6half_tEE25TuneUnaryBackwardOperatorINS0_10mshadow_op11arctan_gradEEEvv
libmxnet.so:_ZN5mxnet2op11UnaryOpTuneIN7mshadow4half6half_tEE25TuneUnaryBackwardOperatorINS0_10mshadow_op11erfinv_gradEEEvv
libmxnet.so:_ZN5mxnet2op11UnaryOpTuneIN7mshadow4half6half_tEE25TuneUnaryBackwardOperatorINS0_10mshadow_op11square_gradEEEvv
libmxnet.so:_ZN5mxnet2op11UnaryOpTuneIN7mshadow4half6half_tEE25TuneUnaryBackwardOperatorINS0_10mshadow_op12arccosh_gradEEEvv
libmxnet.so:_ZN5mxnet2op11UnaryOpTuneIN7mshadow4half6half_tEE25TuneUnaryBackwardOperatorINS0_10mshadow_op12arcsinh_gradEEEvv
libmxnet.so:_ZN5mxnet2op11UnaryOpTuneIN7mshadow4half6half_tEE25TuneUnaryBackwardOperatorINS0_10mshadow_op12arctanh_gradEEEvv
libmxnet.so:_ZN5mxnet2op11UnaryOpTuneIN7mshadow4half6half_tEE25TuneUnaryBackwardOperatorINS0_10mshadow_op12degrees_gradEEEvv
libmxnet.so:_ZN5mxnet2op11UnaryOpTuneIN7mshadow4half6half_tEE25TuneUnaryBackwardOperatorINS0_10mshadow_op12gammaln_gradEEEvv
libmxnet.so:_ZN5mxnet2op11UnaryOpTuneIN7mshadow4half6half_tEE25TuneUnaryBackwardOperatorINS0_10mshadow_op12radians_gradEEEvv
libmxnet.so:_ZN5mxnet2op11UnaryOpTuneIN7mshadow4half6half_tEE25TuneUnaryBackwardOperatorINS0_10mshadow_op12sigmoid_gradEEEvv
libmxnet.so:_ZN5mxnet2op11UnaryOpTuneIN7mshadow4half6half_tEE25TuneUnaryBackwardOperatorINS0_10mshadow_op13identity_gradEEEvv
libmxnet.so:_ZN5mxnet2op11UnaryOpTuneIN7mshadow4half6half_tEE25TuneUnaryBackwardOperatorINS0_10mshadow_op13softrelu_gradEEEvv
libmxnet.so:_ZN5mxnet2op11UnaryOpTuneIN7mshadow4half6half_tEE25TuneUnaryBackwardOperatorINS0_10mshadow_op13softsign_gradEEEvv
libmxnet.so:_ZN5mxnet2op11UnaryOpTuneIN7mshadow4half6half_tEE25TuneUnaryBackwardOperatorINS0_10mshadow_op14cube_root_gradEEEvv
libmxnet.so:_ZN5mxnet2op11UnaryOpTuneIN7mshadow4half6half_tEE25TuneUnaryBackwardOperatorINS0_10mshadow_op15reciprocal_gradEEEvv
libmxnet.so:_ZN5mxnet2op11UnaryOpTuneIN7mshadow4half6half_tEE25TuneUnaryBackwardOperatorINS0_10mshadow_op16square_root_gradEEEvv
libmxnet.so:_ZN5mxnet2op11UnaryOpTuneIN7mshadow4half6half_tEE25TuneUnaryBackwardOperatorINS0_10mshadow_op25reciprocal_cube_root_gradEEEvv
libmxnet.so:_ZN5mxnet2op11UnaryOpTuneIN7mshadow4half6half_tEE25TuneUnaryBackwardOperatorINS0_10mshadow_op27reciprocal_square_root_gradEEEvv
libmxnet.so:_ZN5mxnet2op11UnaryOpTuneIN7mshadow4half6half_tEE25TuneUnaryBackwardOperatorINS0_10mshadow_op2ntEEEvv
libmxnet.so:_ZN5mxnet2op11UnaryOpTuneIN7mshadow4half6half_tEE25TuneUnaryBackwardOperatorINS0_10mshadow_op3expEEEvv
libmxnet.so:_ZN5mxnet2op11UnaryOpTuneIN7mshadow4half6half_tEE25TuneUnaryBackwardOperatorINS0_10mshadow_op4signEEEvv
libmxnet.so:_ZN5mxnet2op11UnaryOpTuneIN7mshadow4half6half_tEE25TuneUnaryBackwardOperatorINS0_10mshadow_op8cos_gradEEEvv
libmxnet.so:_ZN5mxnet2op11UnaryOpTuneIN7mshadow4half6half_tEE25TuneUnaryBackwardOperatorINS0_10mshadow_op8erf_gradEEEvv
libmxnet.so:_ZN5mxnet2op11UnaryOpTuneIN7mshadow4half6half_tEE25TuneUnaryBackwardOperatorINS0_10mshadow_op8log_gradEEEvv
libmxnet.so:_ZN5mxnet2op11UnaryOpTuneIN7mshadow4half6half_tEE25TuneUnaryBackwardOperatorINS0_10mshadow_op8sin_gradEEEvv
libmxnet.so:_ZN5mxnet2op11UnaryOpTuneIN7mshadow4half6half_tEE25TuneUnaryBackwardOperatorINS0_10mshadow_op8tan_gradEEEvv
libmxnet.so:_ZN5mxnet2op11UnaryOpTuneIN7mshadow4half6half_tEE25TuneUnaryBackwardOperatorINS0_10mshadow_op9cosh_gradEEEvv
libmxnet.so:_ZN5mxnet2op11UnaryOpTuneIN7mshadow4half6half_tEE25TuneUnaryBackwardOperatorINS0_10mshadow_op9log2_gradEEEvv
libmxnet.so:_ZN5mxnet2op11UnaryOpTuneIN7mshadow4half6half_tEE25TuneUnaryBackwardOperatorINS0_10mshadow_op9relu_gradEEEvv
libmxnet.so:_ZN5mxnet2op11UnaryOpTuneIN7mshadow4half6half_tEE25TuneUnaryBackwardOperatorINS0_10mshadow_op9selu_gradEEEvv
libmxnet.so:_ZN5mxnet2op11UnaryOpTuneIN7mshadow4half6half_tEE25TuneUnaryBackwardOperatorINS0_10mshadow_op9sign_gradEEEvv
libmxnet.so:_ZN5mxnet2op11UnaryOpTuneIN7mshadow4half6half_tEE25TuneUnaryBackwardOperatorINS0_10mshadow_op9sinh_gradEEEvv
libmxnet.so:_ZN5mxnet2op11UnaryOpTuneIN7mshadow4half6half_tEE25TuneUnaryBackwardOperatorINS0_10mshadow_op9tanh_gradEEEvv
libmxnet.so:_ZN5mxnet2op11UnaryOpTuneIaE17TuneUnaryOperatorINS0_10mshadow_op10reciprocalEEEvv
libmxnet.so:_ZN5mxnet2op11UnaryOpTuneIaE17TuneUnaryOperatorINS0_10mshadow_op11square_rootEEEvv
libmxnet.so:_ZN5mxnet2op11UnaryOpTuneIaE17TuneUnaryOperatorINS0_10mshadow_op20reciprocal_cube_rootEEEvv
libmxnet.so:_ZN5mxnet2op11UnaryOpTuneIaE17TuneUnaryOperatorINS0_10mshadow_op22reciprocal_square_rootEEEvv
libmxnet.so:_ZN5mxnet2op11UnaryOpTuneIaE17TuneUnaryOperatorINS0_10mshadow_op2ntEEEvv
libmxnet.so:_ZN5mxnet2op11UnaryOpTuneIaE17TuneUnaryOperatorINS0_10mshadow_op3absEEEvv
libmxnet.so:_ZN5mxnet2op11UnaryOpTuneIaE17TuneUnaryOperatorINS0_10mshadow_op3cosEEEvv
libmxnet.so:_ZN5mxnet2op11UnaryOpTuneIaE17TuneUnaryOperatorINS0_10mshadow_op3erfEEEvv
libmxnet.so:_ZN5mxnet2op11UnaryOpTuneIaE17TuneUnaryOperatorINS0_10mshadow_op3expEEEvv
libmxnet.so:_ZN5mxnet2op11UnaryOpTuneIaE17TuneUnaryOperatorINS0_10mshadow_op3fixEEEvv
libmxnet.so:_ZN5mxnet2op11UnaryOpTuneIaE17TuneUnaryOperatorINS0_10mshadow_op3logEEEvv
libmxnet.so:_ZN5mxnet2op11UnaryOpTuneIaE17TuneUnaryOperatorINS0_10mshadow_op3sinEEEvv
libmxnet.so:_ZN5mxnet2op11UnaryOpTuneIaE17TuneUnaryOperatorINS0_10mshadow_op3tanEEEvv
libmxnet.so:_ZN5mxnet2op11UnaryOpTuneIaE17TuneUnaryOperatorINS0_10mshadow_op4ceilEEEvv
libmxnet.so:_ZN5mxnet2op11UnaryOpTuneIaE17TuneUnaryOperatorINS0_10mshadow_op4coshEEEvv
libmxnet.so:_ZN5mxnet2op11UnaryOpTuneIaE17TuneUnaryOperatorINS0_10mshadow_op4geluEEEvv
libmxnet.so:_ZN5mxnet2op11UnaryOpTuneIaE17TuneUnaryOperatorINS0_10mshadow_op4log2EEEvv
libmxnet.so:_ZN5mxnet2op11UnaryOpTuneIaE17TuneUnaryOperatorINS0_10mshadow_op4reluEEEvv
libmxnet.so:_ZN5mxnet2op11UnaryOpTuneIaE17TuneUnaryOperatorINS0_10mshadow_op4rintEEEvv
libmxnet.so:_ZN5mxnet2op11UnaryOpTuneIaE17TuneUnaryOperatorINS0_10mshadow_op4seluEEEvv
libmxnet.so:_ZN5mxnet2op11UnaryOpTuneIaE17TuneUnaryOperatorINS0_10mshadow_op4signEEEvv
libmxnet.so:_ZN5mxnet2op11UnaryOpTuneIaE17TuneUnaryOperatorINS0_10mshadow_op4sinhEEEvv
libmxnet.so:_ZN5mxnet2op11UnaryOpTuneIaE17TuneUnaryOperatorINS0_10mshadow_op4tanhEEEvv
libmxnet.so:_ZN5mxnet2op11UnaryOpTuneIaE17TuneUnaryOperatorINS0_10mshadow_op5expm1EEEvv
libmxnet.so:_ZN5mxnet2op11UnaryOpTuneIaE17TuneUnaryOperatorINS0_10mshadow_op5floorEEEvv
libmxnet.so:_ZN5mxnet2op11UnaryOpTuneIaE17TuneUnaryOperatorINS0_10mshadow_op5gammaEEEvv
libmxnet.so:_ZN5mxnet2op11UnaryOpTuneIaE17TuneUnaryOperatorINS0_10mshadow_op5log10EEEvv
libmxnet.so:_ZN5mxnet2op11UnaryOpTuneIaE17TuneUnaryOperatorINS0_10mshadow_op5log1pEEEvv
libmxnet.so:_ZN5mxnet2op11UnaryOpTuneIaE17TuneUnaryOperatorINS0_10mshadow_op5roundEEEvv
libmxnet.so:_ZN5mxnet2op11UnaryOpTuneIaE17TuneUnaryOperatorINS0_10mshadow_op5truncEEEvv
libmxnet.so:_ZN5mxnet2op11UnaryOpTuneIaE17TuneUnaryOperatorINS0_10mshadow_op6arccosEEEvv
libmxnet.so:_ZN5mxnet2op11UnaryOpTuneIaE17TuneUnaryOperatorINS0_10mshadow_op6arcsinEEEvv
libmxnet.so:_ZN5mxnet2op11UnaryOpTuneIaE17TuneUnaryOperatorINS0_10mshadow_op6arctanEEEvv
libmxnet.so:_ZN5mxnet2op11UnaryOpTuneIaE17TuneUnaryOperatorINS0_10mshadow_op6erfinvEEEvv
libmxnet.so:_ZN5mxnet2op11UnaryOpTuneIaE17TuneUnaryOperatorINS0_10mshadow_op6squareEEEvv
libmxnet.so:_ZN5mxnet2op11UnaryOpTuneIaE17TuneUnaryOperatorINS0_10mshadow_op7arccoshEEEvv
libmxnet.so:_ZN5mxnet2op11UnaryOpTuneIaE17TuneUnaryOperatorINS0_10mshadow_op7arcsinhEEEvv
libmxnet.so:_ZN5mxnet2op11UnaryOpTuneIaE17TuneUnaryOperatorINS0_10mshadow_op7arctanhEEEvv
libmxnet.so:_ZN5mxnet2op11UnaryOpTuneIaE17TuneUnaryOperatorINS0_10mshadow_op7degreesEEEvv
libmxnet.so:_ZN5mxnet2op11UnaryOpTuneIaE17TuneUnaryOperatorINS0_10mshadow_op7gammalnEEEvv
libmxnet.so:_ZN5mxnet2op11UnaryOpTuneIaE17TuneUnaryOperatorINS0_10mshadow_op7radiansEEEvv
libmxnet.so:_ZN5mxnet2op11UnaryOpTuneIaE17TuneUnaryOperatorINS0_10mshadow_op7sigmoidEEEvv
libmxnet.so:_ZN5mxnet2op11UnaryOpTuneIaE17TuneUnaryOperatorINS0_10mshadow_op8identityEEEvv
libmxnet.so:_ZN5mxnet2op11UnaryOpTuneIaE17TuneUnaryOperatorINS0_10mshadow_op8negationEEEvv
libmxnet.so:_ZN5mxnet2op11UnaryOpTuneIaE17TuneUnaryOperatorINS0_10mshadow_op8softreluEEEvv
libmxnet.so:_ZN5mxnet2op11UnaryOpTuneIaE17TuneUnaryOperatorINS0_10mshadow_op8softsignEEEvv
libmxnet.so:_ZN5mxnet2op11UnaryOpTuneIaE17TuneUnaryOperatorINS0_10mshadow_op9cube_rootEEEvv
libmxnet.so:_ZN5mxnet2op11UnaryOpTuneIaE19TuneBlankOperatorExINS0_24PopulateFullIdxRspKernelEEEvv
libmxnet.so:_ZN5mxnet2op11UnaryOpTuneIaE19TuneBlankOperatorExINS0_8mxnet_op10set_to_intILi0EEEEEvv
libmxnet.so:_ZN5mxnet2op11UnaryOpTuneIaE19TuneBlankOperatorExINS0_8mxnet_op10set_to_intILi1EEEEEvv
libmxnet.so:_ZN5mxnet2op11UnaryOpTuneIaE25TuneUnaryBackwardOperatorINS0_10mshadow_op10gamma_gradEEEvv
libmxnet.so:_ZN5mxnet2op11UnaryOpTuneIaE25TuneUnaryBackwardOperatorINS0_10mshadow_op10log10_gradEEEvv
libmxnet.so:_ZN5mxnet2op11UnaryOpTuneIaE25TuneUnaryBackwardOperatorINS0_10mshadow_op10log1p_gradEEEvv
libmxnet.so:_ZN5mxnet2op11UnaryOpTuneIaE25TuneUnaryBackwardOperatorINS0_10mshadow_op11arccos_gradEEEvv
libmxnet.so:_ZN5mxnet2op11UnaryOpTuneIaE25TuneUnaryBackwardOperatorINS0_10mshadow_op11arcsin_gradEEEvv
libmxnet.so:_ZN5mxnet2op11UnaryOpTuneIaE25TuneUnaryBackwardOperatorINS0_10mshadow_op11arctan_gradEEEvv
libmxnet.so:_ZN5mxnet2op11UnaryOpTuneIaE25TuneUnaryBackwardOperatorINS0_10mshadow_op11erfinv_gradEEEvv
libmxnet.so:_ZN5mxnet2op11UnaryOpTuneIaE25TuneUnaryBackwardOperatorINS0_10mshadow_op11square_gradEEEvv
libmxnet.so:_ZN5mxnet2op11UnaryOpTuneIaE25TuneUnaryBackwardOperatorINS0_10mshadow_op12arccosh_gradEEEvv
libmxnet.so:_ZN5mxnet2op11UnaryOpTuneIaE25TuneUnaryBackwardOperatorINS0_10mshadow_op12arcsinh_gradEEEvv
libmxnet.so:_ZN5mxnet2op11UnaryOpTuneIaE25TuneUnaryBackwardOperatorINS0_10mshadow_op12arctanh_gradEEEvv
libmxnet.so:_ZN5mxnet2op11UnaryOpTuneIaE25TuneUnaryBackwardOperatorINS0_10mshadow_op12degrees_gradEEEvv
libmxnet.so:_ZN5mxnet2op11UnaryOpTuneIaE25TuneUnaryBackwardOperatorINS0_10mshadow_op12gammaln_gradEEEvv
libmxnet.so:_ZN5mxnet2op11UnaryOpTuneIaE25TuneUnaryBackwardOperatorINS0_10mshadow_op12radians_gradEEEvv
libmxnet.so:_ZN5mxnet2op11UnaryOpTuneIaE25TuneUnaryBackwardOperatorINS0_10mshadow_op12sigmoid_gradEEEvv
libmxnet.so:_ZN5mxnet2op11UnaryOpTuneIaE25TuneUnaryBackwardOperatorINS0_10mshadow_op13identity_gradEEEvv
libmxnet.so:_ZN5mxnet2op11UnaryOpTuneIaE25TuneUnaryBackwardOperatorINS0_10mshadow_op13softrelu_gradEEEvv
libmxnet.so:_ZN5mxnet2op11UnaryOpTuneIaE25TuneUnaryBackwardOperatorINS0_10mshadow_op13softsign_gradEEEvv
libmxnet.so:_ZN5mxnet2op11UnaryOpTuneIaE25TuneUnaryBackwardOperatorINS0_10mshadow_op14cube_root_gradEEEvv
libmxnet.so:_ZN5mxnet2op11UnaryOpTuneIaE25TuneUnaryBackwardOperatorINS0_10mshadow_op15reciprocal_gradEEEvv
libmxnet.so:_ZN5mxnet2op11UnaryOpTuneIaE25TuneUnaryBackwardOperatorINS0_10mshadow_op16square_root_gradEEEvv
libmxnet.so:_ZN5mxnet2op11UnaryOpTuneIaE25TuneUnaryBackwardOperatorINS0_10mshadow_op25reciprocal_cube_root_gradEEEvv
libmxnet.so:_ZN5mxnet2op11UnaryOpTuneIaE25TuneUnaryBackwardOperatorINS0_10mshadow_op27reciprocal_square_root_gradEEEvv
libmxnet.so:_ZN5mxnet2op11UnaryOpTuneIaE25TuneUnaryBackwardOperatorINS0_10mshadow_op2ntEEEvv
libmxnet.so:_ZN5mxnet2op11UnaryOpTuneIaE25TuneUnaryBackwardOperatorINS0_10mshadow_op3expEEEvv
libmxnet.so:_ZN5mxnet2op11UnaryOpTuneIaE25TuneUnaryBackwardOperatorINS0_10mshadow_op4signEEEvv
libmxnet.so:_ZN5mxnet2op11UnaryOpTuneIaE25TuneUnaryBackwardOperatorINS0_10mshadow_op8cos_gradEEEvv
libmxnet.so:_ZN5mxnet2op11UnaryOpTuneIaE25TuneUnaryBackwardOperatorINS0_10mshadow_op8erf_gradEEEvv
libmxnet.so:_ZN5mxnet2op11UnaryOpTuneIaE25TuneUnaryBackwardOperatorINS0_10mshadow_op8log_gradEEEvv
libmxnet.so:_ZN5mxnet2op11UnaryOpTuneIaE25TuneUnaryBackwardOperatorINS0_10mshadow_op8sin_gradEEEvv
libmxnet.so:_ZN5mxnet2op11UnaryOpTuneIaE25TuneUnaryBackwardOperatorINS0_10mshadow_op8tan_gradEEEvv
libmxnet.so:_ZN5mxnet2op11UnaryOpTuneIaE25TuneUnaryBackwardOperatorINS0_10mshadow_op9cosh_gradEEEvv
libmxnet.so:_ZN5mxnet2op11UnaryOpTuneIaE25TuneUnaryBackwardOperatorINS0_10mshadow_op9log2_gradEEEvv
libmxnet.so:_ZN5mxnet2op11UnaryOpTuneIaE25TuneUnaryBackwardOperatorINS0_10mshadow_op9relu_gradEEEvv
libmxnet.so:_ZN5mxnet2op11UnaryOpTuneIaE25TuneUnaryBackwardOperatorINS0_10mshadow_op9selu_gradEEEvv
libmxnet.so:_ZN5mxnet2op11UnaryOpTuneIaE25TuneUnaryBackwardOperatorINS0_10mshadow_op9sign_gradEEEvv
libmxnet.so:_ZN5mxnet2op11UnaryOpTuneIaE25TuneUnaryBackwardOperatorINS0_10mshadow_op9sinh_gradEEEvv
libmxnet.so:_ZN5mxnet2op11UnaryOpTuneIaE25TuneUnaryBackwardOperatorINS0_10mshadow_op9tanh_gradEEEvv
libmxnet.so:_ZN5mxnet2op11UnaryOpTuneIdE17TuneUnaryOperatorINS0_10mshadow_op10reciprocalEEEvv
libmxnet.so:_ZN5mxnet2op11UnaryOpTuneIdE17TuneUnaryOperatorINS0_10mshadow_op11square_rootEEEvv
libmxnet.so:_ZN5mxnet2op11UnaryOpTuneIdE17TuneUnaryOperatorINS0_10mshadow_op20reciprocal_cube_rootEEEvv
libmxnet.so:_ZN5mxnet2op11UnaryOpTuneIdE17TuneUnaryOperatorINS0_10mshadow_op22reciprocal_square_rootEEEvv
libmxnet.so:_ZN5mxnet2op11UnaryOpTuneIdE17TuneUnaryOperatorINS0_10mshadow_op2ntEEEvv
libmxnet.so:_ZN5mxnet2op11UnaryOpTuneIdE17TuneUnaryOperatorINS0_10mshadow_op3absEEEvv
libmxnet.so:_ZN5mxnet2op11UnaryOpTuneIdE17TuneUnaryOperatorINS0_10mshadow_op3cosEEEvv
libmxnet.so:_ZN5mxnet2op11UnaryOpTuneIdE17TuneUnaryOperatorINS0_10mshadow_op3erfEEEvv
libmxnet.so:_ZN5mxnet2op11UnaryOpTuneIdE17TuneUnaryOperatorINS0_10mshadow_op3expEEEvv
libmxnet.so:_ZN5mxnet2op11UnaryOpTuneIdE17TuneUnaryOperatorINS0_10mshadow_op3fixEEEvv
libmxnet.so:_ZN5mxnet2op11UnaryOpTuneIdE17TuneUnaryOperatorINS0_10mshadow_op3logEEEvv
libmxnet.so:_ZN5mxnet2op11UnaryOpTuneIdE17TuneUnaryOperatorINS0_10mshadow_op3sinEEEvv
libmxnet.so:_ZN5mxnet2op11UnaryOpTuneIdE17TuneUnaryOperatorINS0_10mshadow_op3tanEEEvv
libmxnet.so:_ZN5mxnet2op11UnaryOpTuneIdE17TuneUnaryOperatorINS0_10mshadow_op4ceilEEEvv
libmxnet.so:_ZN5mxnet2op11UnaryOpTuneIdE17TuneUnaryOperatorINS0_10mshadow_op4coshEEEvv
libmxnet.so:_ZN5mxnet2op11UnaryOpTuneIdE17TuneUnaryOperatorINS0_10mshadow_op4geluEEEvv
libmxnet.so:_ZN5mxnet2op11UnaryOpTuneIdE17TuneUnaryOperatorINS0_10mshadow_op4log2EEEvv
libmxnet.so:_ZN5mxnet2op11UnaryOpTuneIdE17TuneUnaryOperatorINS0_10mshadow_op4reluEEEvv
libmxnet.so:_ZN5mxnet2op11UnaryOpTuneIdE17TuneUnaryOperatorINS0_10mshadow_op4rintEEEvv
libmxnet.so:_ZN5mxnet2op11UnaryOpTuneIdE17TuneUnaryOperatorINS0_10mshadow_op4seluEEEvv
libmxnet.so:_ZN5mxnet2op11UnaryOpTuneIdE17TuneUnaryOperatorINS0_10mshadow_op4signEEEvv
libmxnet.so:_ZN5mxnet2op11UnaryOpTuneIdE17TuneUnaryOperatorINS0_10mshadow_op4sinhEEEvv
libmxnet.so:_ZN5mxnet2op11UnaryOpTuneIdE17TuneUnaryOperatorINS0_10mshadow_op4tanhEEEvv
libmxnet.so:_ZN5mxnet2op11UnaryOpTuneIdE17TuneUnaryOperatorINS0_10mshadow_op5expm1EEEvv
libmxnet.so:_ZN5mxnet2op11UnaryOpTuneIdE17TuneUnaryOperatorINS0_10mshadow_op5floorEEEvv
libmxnet.so:_ZN5mxnet2op11UnaryOpTuneIdE17TuneUnaryOperatorINS0_10mshadow_op5gammaEEEvv
libmxnet.so:_ZN5mxnet2op11UnaryOpTuneIdE17TuneUnaryOperatorINS0_10mshadow_op5log10EEEvv
libmxnet.so:_ZN5mxnet2op11UnaryOpTuneIdE17TuneUnaryOperatorINS0_10mshadow_op5log1pEEEvv
libmxnet.so:_ZN5mxnet2op11UnaryOpTuneIdE17TuneUnaryOperatorINS0_10mshadow_op5roundEEEvv
libmxnet.so:_ZN5mxnet2op11UnaryOpTuneIdE17TuneUnaryOperatorINS0_10mshadow_op5truncEEEvv
libmxnet.so:_ZN5mxnet2op11UnaryOpTuneIdE17TuneUnaryOperatorINS0_10mshadow_op6arccosEEEvv
libmxnet.so:_ZN5mxnet2op11UnaryOpTuneIdE17TuneUnaryOperatorINS0_10mshadow_op6arcsinEEEvv
libmxnet.so:_ZN5mxnet2op11UnaryOpTuneIdE17TuneUnaryOperatorINS0_10mshadow_op6arctanEEEvv
libmxnet.so:_ZN5mxnet2op11UnaryOpTuneIdE17TuneUnaryOperatorINS0_10mshadow_op6erfinvEEEvv
libmxnet.so:_ZN5mxnet2op11UnaryOpTuneIdE17TuneUnaryOperatorINS0_10mshadow_op6squareEEEvv
libmxnet.so:_ZN5mxnet2op11UnaryOpTuneIdE17TuneUnaryOperatorINS0_10mshadow_op7arccoshEEEvv
libmxnet.so:_ZN5mxnet2op11UnaryOpTuneIdE17TuneUnaryOperatorINS0_10mshadow_op7arcsinhEEEvv
libmxnet.so:_ZN5mxnet2op11UnaryOpTuneIdE17TuneUnaryOperatorINS0_10mshadow_op7arctanhEEEvv
libmxnet.so:_ZN5mxnet2op11UnaryOpTuneIdE17TuneUnaryOperatorINS0_10mshadow_op7degreesEEEvv
libmxnet.so:_ZN5mxnet2op11UnaryOpTuneIdE17TuneUnaryOperatorINS0_10mshadow_op7gammalnEEEvv
libmxnet.so:_ZN5mxnet2op11UnaryOpTuneIdE17TuneUnaryOperatorINS0_10mshadow_op7radiansEEEvv
libmxnet.so:_ZN5mxnet2op11UnaryOpTuneIdE17TuneUnaryOperatorINS0_10mshadow_op7sigmoidEEEvv
libmxnet.so:_ZN5mxnet2op11UnaryOpTuneIdE17TuneUnaryOperatorINS0_10mshadow_op8identityEEEvv
libmxnet.so:_ZN5mxnet2op11UnaryOpTuneIdE17TuneUnaryOperatorINS0_10mshadow_op8negationEEEvv
libmxnet.so:_ZN5mxnet2op11UnaryOpTuneIdE17TuneUnaryOperatorINS0_10mshadow_op8softreluEEEvv
libmxnet.so:_ZN5mxnet2op11UnaryOpTuneIdE17TuneUnaryOperatorINS0_10mshadow_op8softsignEEEvv
libmxnet.so:_ZN5mxnet2op11UnaryOpTuneIdE17TuneUnaryOperatorINS0_10mshadow_op9cube_rootEEEvv
libmxnet.so:_ZN5mxnet2op11UnaryOpTuneIdE19TuneBlankOperatorExINS0_24PopulateFullIdxRspKernelEEEvv
libmxnet.so:_ZN5mxnet2op11UnaryOpTuneIdE19TuneBlankOperatorExINS0_8mxnet_op10set_to_intILi0EEEEEvv
libmxnet.so:_ZN5mxnet2op11UnaryOpTuneIdE19TuneBlankOperatorExINS0_8mxnet_op10set_to_intILi1EEEEEvv
libmxnet.so:_ZN5mxnet2op11UnaryOpTuneIdE25TuneUnaryBackwardOperatorINS0_10mshadow_op10gamma_gradEEEvv
libmxnet.so:_ZN5mxnet2op11UnaryOpTuneIdE25TuneUnaryBackwardOperatorINS0_10mshadow_op10log10_gradEEEvv
libmxnet.so:_ZN5mxnet2op11UnaryOpTuneIdE25TuneUnaryBackwardOperatorINS0_10mshadow_op10log1p_gradEEEvv
libmxnet.so:_ZN5mxnet2op11UnaryOpTuneIdE25TuneUnaryBackwardOperatorINS0_10mshadow_op11arccos_gradEEEvv
libmxnet.so:_ZN5mxnet2op11UnaryOpTuneIdE25TuneUnaryBackwardOperatorINS0_10mshadow_op11arcsin_gradEEEvv
libmxnet.so:_ZN5mxnet2op11UnaryOpTuneIdE25TuneUnaryBackwardOperatorINS0_10mshadow_op11arctan_gradEEEvv
libmxnet.so:_ZN5mxnet2op11UnaryOpTuneIdE25TuneUnaryBackwardOperatorINS0_10mshadow_op11erfinv_gradEEEvv
libmxnet.so:_ZN5mxnet2op11UnaryOpTuneIdE25TuneUnaryBackwardOperatorINS0_10mshadow_op11square_gradEEEvv
libmxnet.so:_ZN5mxnet2op11UnaryOpTuneIdE25TuneUnaryBackwardOperatorINS0_10mshadow_op12arccosh_gradEEEvv
libmxnet.so:_ZN5mxnet2op11UnaryOpTuneIdE25TuneUnaryBackwardOperatorINS0_10mshadow_op12arcsinh_gradEEEvv
libmxnet.so:_ZN5mxnet2op11UnaryOpTuneIdE25TuneUnaryBackwardOperatorINS0_10mshadow_op12arctanh_gradEEEvv
libmxnet.so:_ZN5mxnet2op11UnaryOpTuneIdE25TuneUnaryBackwardOperatorINS0_10mshadow_op12degrees_gradEEEvv
libmxnet.so:_ZN5mxnet2op11UnaryOpTuneIdE25TuneUnaryBackwardOperatorINS0_10mshadow_op12gammaln_gradEEEvv
libmxnet.so:_ZN5mxnet2op11UnaryOpTuneIdE25TuneUnaryBackwardOperatorINS0_10mshadow_op12radians_gradEEEvv
libmxnet.so:_ZN5mxnet2op11UnaryOpTuneIdE25TuneUnaryBackwardOperatorINS0_10mshadow_op12sigmoid_gradEEEvv
libmxnet.so:_ZN5mxnet2op11UnaryOpTuneIdE25TuneUnaryBackwardOperatorINS0_10mshadow_op13identity_gradEEEvv
libmxnet.so:_ZN5mxnet2op11UnaryOpTuneIdE25TuneUnaryBackwardOperatorINS0_10mshadow_op13softrelu_gradEEEvv
libmxnet.so:_ZN5mxnet2op11UnaryOpTuneIdE25TuneUnaryBackwardOperatorINS0_10mshadow_op13softsign_gradEEEvv
libmxnet.so:_ZN5mxnet2op11UnaryOpTuneIdE25TuneUnaryBackwardOperatorINS0_10mshadow_op14cube_root_gradEEEvv
libmxnet.so:_ZN5mxnet2op11UnaryOpTuneIdE25TuneUnaryBackwardOperatorINS0_10mshadow_op15reciprocal_gradEEEvv
libmxnet.so:_ZN5mxnet2op11UnaryOpTuneIdE25TuneUnaryBackwardOperatorINS0_10mshadow_op16square_root_gradEEEvv
libmxnet.so:_ZN5mxnet2op11UnaryOpTuneIdE25TuneUnaryBackwardOperatorINS0_10mshadow_op25reciprocal_cube_root_gradEEEvv
libmxnet.so:_ZN5mxnet2op11UnaryOpTuneIdE25TuneUnaryBackwardOperatorINS0_10mshadow_op27reciprocal_square_root_gradEEEvv
libmxnet.so:_ZN5mxnet2op11UnaryOpTuneIdE25TuneUnaryBackwardOperatorINS0_10mshadow_op2ntEEEvv
libmxnet.so:_ZN5mxnet2op11UnaryOpTuneIdE25TuneUnaryBackwardOperatorINS0_10mshadow_op3expEEEvv
libmxnet.so:_ZN5mxnet2op11UnaryOpTuneIdE25TuneUnaryBackwardOperatorINS0_10mshadow_op4signEEEvv
libmxnet.so:_ZN5mxnet2op11UnaryOpTuneIdE25TuneUnaryBackwardOperatorINS0_10mshadow_op8cos_gradEEEvv
libmxnet.so:_ZN5mxnet2op11UnaryOpTuneIdE25TuneUnaryBackwardOperatorINS0_10mshadow_op8erf_gradEEEvv
libmxnet.so:_ZN5mxnet2op11UnaryOpTuneIdE25TuneUnaryBackwardOperatorINS0_10mshadow_op8log_gradEEEvv
libmxnet.so:_ZN5mxnet2op11UnaryOpTuneIdE25TuneUnaryBackwardOperatorINS0_10mshadow_op8sin_gradEEEvv
libmxnet.so:_ZN5mxnet2op11UnaryOpTuneIdE25TuneUnaryBackwardOperatorINS0_10mshadow_op8tan_gradEEEvv
libmxnet.so:_ZN5mxnet2op11UnaryOpTuneIdE25TuneUnaryBackwardOperatorINS0_10mshadow_op9cosh_gradEEEvv
libmxnet.so:_ZN5mxnet2op11UnaryOpTuneIdE25TuneUnaryBackwardOperatorINS0_10mshadow_op9log2_gradEEEvv
libmxnet.so:_ZN5mxnet2op11UnaryOpTuneIdE25TuneUnaryBackwardOperatorINS0_10mshadow_op9relu_gradEEEvv
libmxnet.so:_ZN5mxnet2op11UnaryOpTuneIdE25TuneUnaryBackwardOperatorINS0_10mshadow_op9selu_gradEEEvv
libmxnet.so:_ZN5mxnet2op11UnaryOpTuneIdE25TuneUnaryBackwardOperatorINS0_10mshadow_op9sign_gradEEEvv
libmxnet.so:_ZN5mxnet2op11UnaryOpTuneIdE25TuneUnaryBackwardOperatorINS0_10mshadow_op9sinh_gradEEEvv
libmxnet.so:_ZN5mxnet2op11UnaryOpTuneIdE25TuneUnaryBackwardOperatorINS0_10mshadow_op9tanh_gradEEEvv
libmxnet.so:_ZN5mxnet2op11UnaryOpTuneIfE17TuneUnaryOperatorINS0_10mshadow_op10reciprocalEEEvv
libmxnet.so:_ZN5mxnet2op11UnaryOpTuneIfE17TuneUnaryOperatorINS0_10mshadow_op11square_rootEEEvv
libmxnet.so:_ZN5mxnet2op11UnaryOpTuneIfE17TuneUnaryOperatorINS0_10mshadow_op20reciprocal_cube_rootEEEvv
libmxnet.so:_ZN5mxnet2op11UnaryOpTuneIfE17TuneUnaryOperatorINS0_10mshadow_op22reciprocal_square_rootEEEvv
libmxnet.so:_ZN5mxnet2op11UnaryOpTuneIfE17TuneUnaryOperatorINS0_10mshadow_op2ntEEEvv
libmxnet.so:_ZN5mxnet2op11UnaryOpTuneIfE17TuneUnaryOperatorINS0_10mshadow_op3absEEEvv
libmxnet.so:_ZN5mxnet2op11UnaryOpTuneIfE17TuneUnaryOperatorINS0_10mshadow_op3cosEEEvv
libmxnet.so:_ZN5mxnet2op11UnaryOpTuneIfE17TuneUnaryOperatorINS0_10mshadow_op3erfEEEvv
libmxnet.so:_ZN5mxnet2op11UnaryOpTuneIfE17TuneUnaryOperatorINS0_10mshadow_op3expEEEvv
libmxnet.so:_ZN5mxnet2op11UnaryOpTuneIfE17TuneUnaryOperatorINS0_10mshadow_op3fixEEEvv
libmxnet.so:_ZN5mxnet2op11UnaryOpTuneIfE17TuneUnaryOperatorINS0_10mshadow_op3logEEEvv
libmxnet.so:_ZN5mxnet2op11UnaryOpTuneIfE17TuneUnaryOperatorINS0_10mshadow_op3sinEEEvv
libmxnet.so:_ZN5mxnet2op11UnaryOpTuneIfE17TuneUnaryOperatorINS0_10mshadow_op3tanEEEvv
libmxnet.so:_ZN5mxnet2op11UnaryOpTuneIfE17TuneUnaryOperatorINS0_10mshadow_op4ceilEEEvv
libmxnet.so:_ZN5mxnet2op11UnaryOpTuneIfE17TuneUnaryOperatorINS0_10mshadow_op4coshEEEvv
libmxnet.so:_ZN5mxnet2op11UnaryOpTuneIfE17TuneUnaryOperatorINS0_10mshadow_op4geluEEEvv
libmxnet.so:_ZN5mxnet2op11UnaryOpTuneIfE17TuneUnaryOperatorINS0_10mshadow_op4log2EEEvv
libmxnet.so:_ZN5mxnet2op11UnaryOpTuneIfE17TuneUnaryOperatorINS0_10mshadow_op4reluEEEvv
libmxnet.so:_ZN5mxnet2op11UnaryOpTuneIfE17TuneUnaryOperatorINS0_10mshadow_op4rintEEEvv
libmxnet.so:_ZN5mxnet2op11UnaryOpTuneIfE17TuneUnaryOperatorINS0_10mshadow_op4seluEEEvv
libmxnet.so:_ZN5mxnet2op11UnaryOpTuneIfE17TuneUnaryOperatorINS0_10mshadow_op4signEEEvv
libmxnet.so:_ZN5mxnet2op11UnaryOpTuneIfE17TuneUnaryOperatorINS0_10mshadow_op4sinhEEEvv
libmxnet.so:_ZN5mxnet2op11UnaryOpTuneIfE17TuneUnaryOperatorINS0_10mshadow_op4tanhEEEvv
libmxnet.so:_ZN5mxnet2op11UnaryOpTuneIfE17TuneUnaryOperatorINS0_10mshadow_op5expm1EEEvv
libmxnet.so:_ZN5mxnet2op11UnaryOpTuneIfE17TuneUnaryOperatorINS0_10mshadow_op5floorEEEvv
libmxnet.so:_ZN5mxnet2op11UnaryOpTuneIfE17TuneUnaryOperatorINS0_10mshadow_op5gammaEEEvv
libmxnet.so:_ZN5mxnet2op11UnaryOpTuneIfE17TuneUnaryOperatorINS0_10mshadow_op5log10EEEvv
libmxnet.so:_ZN5mxnet2op11UnaryOpTuneIfE17TuneUnaryOperatorINS0_10mshadow_op5log1pEEEvv
libmxnet.so:_ZN5mxnet2op11UnaryOpTuneIfE17TuneUnaryOperatorINS0_10mshadow_op5roundEEEvv
libmxnet.so:_ZN5mxnet2op11UnaryOpTuneIfE17TuneUnaryOperatorINS0_10mshadow_op5truncEEEvv
libmxnet.so:_ZN5mxnet2op11UnaryOpTuneIfE17TuneUnaryOperatorINS0_10mshadow_op6arccosEEEvv
libmxnet.so:_ZN5mxnet2op11UnaryOpTuneIfE17TuneUnaryOperatorINS0_10mshadow_op6arcsinEEEvv
libmxnet.so:_ZN5mxnet2op11UnaryOpTuneIfE17TuneUnaryOperatorINS0_10mshadow_op6arctanEEEvv
libmxnet.so:_ZN5mxnet2op11UnaryOpTuneIfE17TuneUnaryOperatorINS0_10mshadow_op6erfinvEEEvv
libmxnet.so:_ZN5mxnet2op11UnaryOpTuneIfE17TuneUnaryOperatorINS0_10mshadow_op6squareEEEvv
libmxnet.so:_ZN5mxnet2op11UnaryOpTuneIfE17TuneUnaryOperatorINS0_10mshadow_op7arccoshEEEvv
libmxnet.so:_ZN5mxnet2op11UnaryOpTuneIfE17TuneUnaryOperatorINS0_10mshadow_op7arcsinhEEEvv
libmxnet.so:_ZN5mxnet2op11UnaryOpTuneIfE17TuneUnaryOperatorINS0_10mshadow_op7arctanhEEEvv
libmxnet.so:_ZN5mxnet2op11UnaryOpTuneIfE17TuneUnaryOperatorINS0_10mshadow_op7degreesEEEvv
libmxnet.so:_ZN5mxnet2op11UnaryOpTuneIfE17TuneUnaryOperatorINS0_10mshadow_op7gammalnEEEvv
libmxnet.so:_ZN5mxnet2op11UnaryOpTuneIfE17TuneUnaryOperatorINS0_10mshadow_op7radiansEEEvv
libmxnet.so:_ZN5mxnet2op11UnaryOpTuneIfE17TuneUnaryOperatorINS0_10mshadow_op7sigmoidEEEvv
libmxnet.so:_ZN5mxnet2op11UnaryOpTuneIfE17TuneUnaryOperatorINS0_10mshadow_op8identityEEEvv
libmxnet.so:_ZN5mxnet2op11UnaryOpTuneIfE17TuneUnaryOperatorINS0_10mshadow_op8negationEEEvv
libmxnet.so:_ZN5mxnet2op11UnaryOpTuneIfE17TuneUnaryOperatorINS0_10mshadow_op8softreluEEEvv
libmxnet.so:_ZN5mxnet2op11UnaryOpTuneIfE17TuneUnaryOperatorINS0_10mshadow_op8softsignEEEvv
libmxnet.so:_ZN5mxnet2op11UnaryOpTuneIfE17TuneUnaryOperatorINS0_10mshadow_op9cube_rootEEEvv
libmxnet.so:_ZN5mxnet2op11UnaryOpTuneIfE19TuneBlankOperatorExINS0_24PopulateFullIdxRspKernelEEEvv
libmxnet.so:_ZN5mxnet2op11UnaryOpTuneIfE19TuneBlankOperatorExINS0_8mxnet_op10set_to_intILi0EEEEEvv
libmxnet.so:_ZN5mxnet2op11UnaryOpTuneIfE19TuneBlankOperatorExINS0_8mxnet_op10set_to_intILi1EEEEEvv
libmxnet.so:_ZN5mxnet2op11UnaryOpTuneIfE25TuneUnaryBackwardOperatorINS0_10mshadow_op10gamma_gradEEEvv
libmxnet.so:_ZN5mxnet2op11UnaryOpTuneIfE25TuneUnaryBackwardOperatorINS0_10mshadow_op10log10_gradEEEvv
libmxnet.so:_ZN5mxnet2op11UnaryOpTuneIfE25TuneUnaryBackwardOperatorINS0_10mshadow_op10log1p_gradEEEvv
libmxnet.so:_ZN5mxnet2op11UnaryOpTuneIfE25TuneUnaryBackwardOperatorINS0_10mshadow_op11arccos_gradEEEvv
libmxnet.so:_ZN5mxnet2op11UnaryOpTuneIfE25TuneUnaryBackwardOperatorINS0_10mshadow_op11arcsin_gradEEEvv
libmxnet.so:_ZN5mxnet2op11UnaryOpTuneIfE25TuneUnaryBackwardOperatorINS0_10mshadow_op11arctan_gradEEEvv
libmxnet.so:_ZN5mxnet2op11UnaryOpTuneIfE25TuneUnaryBackwardOperatorINS0_10mshadow_op11erfinv_gradEEEvv
libmxnet.so:_ZN5mxnet2op11UnaryOpTuneIfE25TuneUnaryBackwardOperatorINS0_10mshadow_op11square_gradEEEvv
libmxnet.so:_ZN5mxnet2op11UnaryOpTuneIfE25TuneUnaryBackwardOperatorINS0_10mshadow_op12arccosh_gradEEEvv
libmxnet.so:_ZN5mxnet2op11UnaryOpTuneIfE25TuneUnaryBackwardOperatorINS0_10mshadow_op12arcsinh_gradEEEvv
libmxnet.so:_ZN5mxnet2op11UnaryOpTuneIfE25TuneUnaryBackwardOperatorINS0_10mshadow_op12arctanh_gradEEEvv
libmxnet.so:_ZN5mxnet2op11UnaryOpTuneIfE25TuneUnaryBackwardOperatorINS0_10mshadow_op12degrees_gradEEEvv
libmxnet.so:_ZN5mxnet2op11UnaryOpTuneIfE25TuneUnaryBackwardOperatorINS0_10mshadow_op12gammaln_gradEEEvv
libmxnet.so:_ZN5mxnet2op11UnaryOpTuneIfE25TuneUnaryBackwardOperatorINS0_10mshadow_op12radians_gradEEEvv
libmxnet.so:_ZN5mxnet2op11UnaryOpTuneIfE25TuneUnaryBackwardOperatorINS0_10mshadow_op12sigmoid_gradEEEvv
libmxnet.so:_ZN5mxnet2op11UnaryOpTuneIfE25TuneUnaryBackwardOperatorINS0_10mshadow_op13identity_gradEEEvv
libmxnet.so:_ZN5mxnet2op11UnaryOpTuneIfE25TuneUnaryBackwardOperatorINS0_10mshadow_op13softrelu_gradEEEvv
libmxnet.so:_ZN5mxnet2op11UnaryOpTuneIfE25TuneUnaryBackwardOperatorINS0_10mshadow_op13softsign_gradEEEvv
libmxnet.so:_ZN5mxnet2op11UnaryOpTuneIfE25TuneUnaryBackwardOperatorINS0_10mshadow_op14cube_root_gradEEEvv
libmxnet.so:_ZN5mxnet2op11UnaryOpTuneIfE25TuneUnaryBackwardOperatorINS0_10mshadow_op15reciprocal_gradEEEvv
libmxnet.so:_ZN5mxnet2op11UnaryOpTuneIfE25TuneUnaryBackwardOperatorINS0_10mshadow_op16square_root_gradEEEvv
libmxnet.so:_ZN5mxnet2op11UnaryOpTuneIfE25TuneUnaryBackwardOperatorINS0_10mshadow_op25reciprocal_cube_root_gradEEEvv
libmxnet.so:_ZN5mxnet2op11UnaryOpTuneIfE25TuneUnaryBackwardOperatorINS0_10mshadow_op27reciprocal_square_root_gradEEEvv
libmxnet.so:_ZN5mxnet2op11UnaryOpTuneIfE25TuneUnaryBackwardOperatorINS0_10mshadow_op2ntEEEvv
libmxnet.so:_ZN5mxnet2op11UnaryOpTuneIfE25TuneUnaryBackwardOperatorINS0_10mshadow_op3expEEEvv
libmxnet.so:_ZN5mxnet2op11UnaryOpTuneIfE25TuneUnaryBackwardOperatorINS0_10mshadow_op4signEEEvv
libmxnet.so:_ZN5mxnet2op11UnaryOpTuneIfE25TuneUnaryBackwardOperatorINS0_10mshadow_op8cos_gradEEEvv
libmxnet.so:_ZN5mxnet2op11UnaryOpTuneIfE25TuneUnaryBackwardOperatorINS0_10mshadow_op8erf_gradEEEvv
libmxnet.so:_ZN5mxnet2op11UnaryOpTuneIfE25TuneUnaryBackwardOperatorINS0_10mshadow_op8log_gradEEEvv
libmxnet.so:_ZN5mxnet2op11UnaryOpTuneIfE25TuneUnaryBackwardOperatorINS0_10mshadow_op8sin_gradEEEvv
libmxnet.so:_ZN5mxnet2op11UnaryOpTuneIfE25TuneUnaryBackwardOperatorINS0_10mshadow_op8tan_gradEEEvv
libmxnet.so:_ZN5mxnet2op11UnaryOpTuneIfE25TuneUnaryBackwardOperatorINS0_10mshadow_op9cosh_gradEEEvv
libmxnet.so:_ZN5mxnet2op11UnaryOpTuneIfE25TuneUnaryBackwardOperatorINS0_10mshadow_op9log2_gradEEEvv
libmxnet.so:_ZN5mxnet2op11UnaryOpTuneIfE25TuneUnaryBackwardOperatorINS0_10mshadow_op9relu_gradEEEvv
libmxnet.so:_ZN5mxnet2op11UnaryOpTuneIfE25TuneUnaryBackwardOperatorINS0_10mshadow_op9selu_gradEEEvv
libmxnet.so:_ZN5mxnet2op11UnaryOpTuneIfE25TuneUnaryBackwardOperatorINS0_10mshadow_op9sign_gradEEEvv
libmxnet.so:_ZN5mxnet2op11UnaryOpTuneIfE25TuneUnaryBackwardOperatorINS0_10mshadow_op9sinh_gradEEEvv
libmxnet.so:_ZN5mxnet2op11UnaryOpTuneIfE25TuneUnaryBackwardOperatorINS0_10mshadow_op9tanh_gradEEEvv
libmxnet.so:_ZN5mxnet2op11UnaryOpTuneIhE17TuneUnaryOperatorINS0_10mshadow_op10reciprocalEEEvv
libmxnet.so:_ZN5mxnet2op11UnaryOpTuneIhE17TuneUnaryOperatorINS0_10mshadow_op11square_rootEEEvv
libmxnet.so:_ZN5mxnet2op11UnaryOpTuneIhE17TuneUnaryOperatorINS0_10mshadow_op20reciprocal_cube_rootEEEvv
libmxnet.so:_ZN5mxnet2op11UnaryOpTuneIhE17TuneUnaryOperatorINS0_10mshadow_op22reciprocal_square_rootEEEvv
libmxnet.so:_ZN5mxnet2op11UnaryOpTuneIhE17TuneUnaryOperatorINS0_10mshadow_op2ntEEEvv
libmxnet.so:_ZN5mxnet2op11UnaryOpTuneIhE17TuneUnaryOperatorINS0_10mshadow_op3absEEEvv
libmxnet.so:_ZN5mxnet2op11UnaryOpTuneIhE17TuneUnaryOperatorINS0_10mshadow_op3cosEEEvv
libmxnet.so:_ZN5mxnet2op11UnaryOpTuneIhE17TuneUnaryOperatorINS0_10mshadow_op3erfEEEvv
libmxnet.so:_ZN5mxnet2op11UnaryOpTuneIhE17TuneUnaryOperatorINS0_10mshadow_op3expEEEvv
libmxnet.so:_ZN5mxnet2op11UnaryOpTuneIhE17TuneUnaryOperatorINS0_10mshadow_op3fixEEEvv
libmxnet.so:_ZN5mxnet2op11UnaryOpTuneIhE17TuneUnaryOperatorINS0_10mshadow_op3logEEEvv
libmxnet.so:_ZN5mxnet2op11UnaryOpTuneIhE17TuneUnaryOperatorINS0_10mshadow_op3sinEEEvv
libmxnet.so:_ZN5mxnet2op11UnaryOpTuneIhE17TuneUnaryOperatorINS0_10mshadow_op3tanEEEvv
libmxnet.so:_ZN5mxnet2op11UnaryOpTuneIhE17TuneUnaryOperatorINS0_10mshadow_op4ceilEEEvv
libmxnet.so:_ZN5mxnet2op11UnaryOpTuneIhE17TuneUnaryOperatorINS0_10mshadow_op4coshEEEvv
libmxnet.so:_ZN5mxnet2op11UnaryOpTuneIhE17TuneUnaryOperatorINS0_10mshadow_op4geluEEEvv
libmxnet.so:_ZN5mxnet2op11UnaryOpTuneIhE17TuneUnaryOperatorINS0_10mshadow_op4log2EEEvv
libmxnet.so:_ZN5mxnet2op11UnaryOpTuneIhE17TuneUnaryOperatorINS0_10mshadow_op4reluEEEvv
libmxnet.so:_ZN5mxnet2op11UnaryOpTuneIhE17TuneUnaryOperatorINS0_10mshadow_op4rintEEEvv
libmxnet.so:_ZN5mxnet2op11UnaryOpTuneIhE17TuneUnaryOperatorINS0_10mshadow_op4seluEEEvv
libmxnet.so:_ZN5mxnet2op11UnaryOpTuneIhE17TuneUnaryOperatorINS0_10mshadow_op4signEEEvv
libmxnet.so:_ZN5mxnet2op11UnaryOpTuneIhE17TuneUnaryOperatorINS0_10mshadow_op4sinhEEEvv
libmxnet.so:_ZN5mxnet2op11UnaryOpTuneIhE17TuneUnaryOperatorINS0_10mshadow_op4tanhEEEvv
libmxnet.so:_ZN5mxnet2op11UnaryOpTuneIhE17TuneUnaryOperatorINS0_10mshadow_op5expm1EEEvv
libmxnet.so:_ZN5mxnet2op11UnaryOpTuneIhE17TuneUnaryOperatorINS0_10mshadow_op5floorEEEvv
libmxnet.so:_ZN5mxnet2op11UnaryOpTuneIhE17TuneUnaryOperatorINS0_10mshadow_op5gammaEEEvv
libmxnet.so:_ZN5mxnet2op11UnaryOpTuneIhE17TuneUnaryOperatorINS0_10mshadow_op5log10EEEvv
libmxnet.so:_ZN5mxnet2op11UnaryOpTuneIhE17TuneUnaryOperatorINS0_10mshadow_op5log1pEEEvv
libmxnet.so:_ZN5mxnet2op11UnaryOpTuneIhE17TuneUnaryOperatorINS0_10mshadow_op5roundEEEvv
libmxnet.so:_ZN5mxnet2op11UnaryOpTuneIhE17TuneUnaryOperatorINS0_10mshadow_op5truncEEEvv
libmxnet.so:_ZN5mxnet2op11UnaryOpTuneIhE17TuneUnaryOperatorINS0_10mshadow_op6arccosEEEvv
libmxnet.so:_ZN5mxnet2op11UnaryOpTuneIhE17TuneUnaryOperatorINS0_10mshadow_op6arcsinEEEvv
libmxnet.so:_ZN5mxnet2op11UnaryOpTuneIhE17TuneUnaryOperatorINS0_10mshadow_op6arctanEEEvv
libmxnet.so:_ZN5mxnet2op11UnaryOpTuneIhE17TuneUnaryOperatorINS0_10mshadow_op6erfinvEEEvv
libmxnet.so:_ZN5mxnet2op11UnaryOpTuneIhE17TuneUnaryOperatorINS0_10mshadow_op6squareEEEvv
libmxnet.so:_ZN5mxnet2op11UnaryOpTuneIhE17TuneUnaryOperatorINS0_10mshadow_op7arccoshEEEvv
libmxnet.so:_ZN5mxnet2op11UnaryOpTuneIhE17TuneUnaryOperatorINS0_10mshadow_op7arcsinhEEEvv
libmxnet.so:_ZN5mxnet2op11UnaryOpTuneIhE17TuneUnaryOperatorINS0_10mshadow_op7arctanhEEEvv
libmxnet.so:_ZN5mxnet2op11UnaryOpTuneIhE17TuneUnaryOperatorINS0_10mshadow_op7degreesEEEvv
libmxnet.so:_ZN5mxnet2op11UnaryOpTuneIhE17TuneUnaryOperatorINS0_10mshadow_op7gammalnEEEvv
libmxnet.so:_ZN5mxnet2op11UnaryOpTuneIhE17TuneUnaryOperatorINS0_10mshadow_op7radiansEEEvv
libmxnet.so:_ZN5mxnet2op11UnaryOpTuneIhE17TuneUnaryOperatorINS0_10mshadow_op7sigmoidEEEvv
libmxnet.so:_ZN5mxnet2op11UnaryOpTuneIhE17TuneUnaryOperatorINS0_10mshadow_op8identityEEEvv
libmxnet.so:_ZN5mxnet2op11UnaryOpTuneIhE17TuneUnaryOperatorINS0_10mshadow_op8negationEEEvv
libmxnet.so:_ZN5mxnet2op11UnaryOpTuneIhE17TuneUnaryOperatorINS0_10mshadow_op8softreluEEEvv
libmxnet.so:_ZN5mxnet2op11UnaryOpTuneIhE17TuneUnaryOperatorINS0_10mshadow_op8softsignEEEvv
libmxnet.so:_ZN5mxnet2op11UnaryOpTuneIhE17TuneUnaryOperatorINS0_10mshadow_op9cube_rootEEEvv
libmxnet.so:_ZN5mxnet2op11UnaryOpTuneIhE19TuneBlankOperatorExINS0_24PopulateFullIdxRspKernelEEEvv
libmxnet.so:_ZN5mxnet2op11UnaryOpTuneIhE19TuneBlankOperatorExINS0_8mxnet_op10set_to_intILi0EEEEEvv
libmxnet.so:_ZN5mxnet2op11UnaryOpTuneIhE19TuneBlankOperatorExINS0_8mxnet_op10set_to_intILi1EEEEEvv
libmxnet.so:_ZN5mxnet2op11UnaryOpTuneIhE25TuneUnaryBackwardOperatorINS0_10mshadow_op10gamma_gradEEEvv
libmxnet.so:_ZN5mxnet2op11UnaryOpTuneIhE25TuneUnaryBackwardOperatorINS0_10mshadow_op10log10_gradEEEvv
libmxnet.so:_ZN5mxnet2op11UnaryOpTuneIhE25TuneUnaryBackwardOperatorINS0_10mshadow_op10log1p_gradEEEvv
libmxnet.so:_ZN5mxnet2op11UnaryOpTuneIhE25TuneUnaryBackwardOperatorINS0_10mshadow_op11arccos_gradEEEvv
libmxnet.so:_ZN5mxnet2op11UnaryOpTuneIhE25TuneUnaryBackwardOperatorINS0_10mshadow_op11arcsin_gradEEEvv
libmxnet.so:_ZN5mxnet2op11UnaryOpTuneIhE25TuneUnaryBackwardOperatorINS0_10mshadow_op11arctan_gradEEEvv
libmxnet.so:_ZN5mxnet2op11UnaryOpTuneIhE25TuneUnaryBackwardOperatorINS0_10mshadow_op11erfinv_gradEEEvv
libmxnet.so:_ZN5mxnet2op11UnaryOpTuneIhE25TuneUnaryBackwardOperatorINS0_10mshadow_op11square_gradEEEvv
libmxnet.so:_ZN5mxnet2op11UnaryOpTuneIhE25TuneUnaryBackwardOperatorINS0_10mshadow_op12arccosh_gradEEEvv
libmxnet.so:_ZN5mxnet2op11UnaryOpTuneIhE25TuneUnaryBackwardOperatorINS0_10mshadow_op12arcsinh_gradEEEvv
libmxnet.so:_ZN5mxnet2op11UnaryOpTuneIhE25TuneUnaryBackwardOperatorINS0_10mshadow_op12arctanh_gradEEEvv
libmxnet.so:_ZN5mxnet2op11UnaryOpTuneIhE25TuneUnaryBackwardOperatorINS0_10mshadow_op12degrees_gradEEEvv
libmxnet.so:_ZN5mxnet2op11UnaryOpTuneIhE25TuneUnaryBackwardOperatorINS0_10mshadow_op12gammaln_gradEEEvv
libmxnet.so:_ZN5mxnet2op11UnaryOpTuneIhE25TuneUnaryBackwardOperatorINS0_10mshadow_op12radians_gradEEEvv
libmxnet.so:_ZN5mxnet2op11UnaryOpTuneIhE25TuneUnaryBackwardOperatorINS0_10mshadow_op12sigmoid_gradEEEvv
libmxnet.so:_ZN5mxnet2op11UnaryOpTuneIhE25TuneUnaryBackwardOperatorINS0_10mshadow_op13identity_gradEEEvv
libmxnet.so:_ZN5mxnet2op11UnaryOpTuneIhE25TuneUnaryBackwardOperatorINS0_10mshadow_op13softrelu_gradEEEvv
libmxnet.so:_ZN5mxnet2op11UnaryOpTuneIhE25TuneUnaryBackwardOperatorINS0_10mshadow_op13softsign_gradEEEvv
libmxnet.so:_ZN5mxnet2op11UnaryOpTuneIhE25TuneUnaryBackwardOperatorINS0_10mshadow_op14cube_root_gradEEEvv
libmxnet.so:_ZN5mxnet2op11UnaryOpTuneIhE25TuneUnaryBackwardOperatorINS0_10mshadow_op15reciprocal_gradEEEvv
libmxnet.so:_ZN5mxnet2op11UnaryOpTuneIhE25TuneUnaryBackwardOperatorINS0_10mshadow_op16square_root_gradEEEvv
libmxnet.so:_ZN5mxnet2op11UnaryOpTuneIhE25TuneUnaryBackwardOperatorINS0_10mshadow_op25reciprocal_cube_root_gradEEEvv
libmxnet.so:_ZN5mxnet2op11UnaryOpTuneIhE25TuneUnaryBackwardOperatorINS0_10mshadow_op27reciprocal_square_root_gradEEEvv
libmxnet.so:_ZN5mxnet2op11UnaryOpTuneIhE25TuneUnaryBackwardOperatorINS0_10mshadow_op2ntEEEvv
libmxnet.so:_ZN5mxnet2op11UnaryOpTuneIhE25TuneUnaryBackwardOperatorINS0_10mshadow_op3expEEEvv
libmxnet.so:_ZN5mxnet2op11UnaryOpTuneIhE25TuneUnaryBackwardOperatorINS0_10mshadow_op4signEEEvv
libmxnet.so:_ZN5mxnet2op11UnaryOpTuneIhE25TuneUnaryBackwardOperatorINS0_10mshadow_op8cos_gradEEEvv
libmxnet.so:_ZN5mxnet2op11UnaryOpTuneIhE25TuneUnaryBackwardOperatorINS0_10mshadow_op8erf_gradEEEvv
libmxnet.so:_ZN5mxnet2op11UnaryOpTuneIhE25TuneUnaryBackwardOperatorINS0_10mshadow_op8log_gradEEEvv
libmxnet.so:_ZN5mxnet2op11UnaryOpTuneIhE25TuneUnaryBackwardOperatorINS0_10mshadow_op8sin_gradEEEvv
libmxnet.so:_ZN5mxnet2op11UnaryOpTuneIhE25TuneUnaryBackwardOperatorINS0_10mshadow_op8tan_gradEEEvv
libmxnet.so:_ZN5mxnet2op11UnaryOpTuneIhE25TuneUnaryBackwardOperatorINS0_10mshadow_op9cosh_gradEEEvv
libmxnet.so:_ZN5mxnet2op11UnaryOpTuneIhE25TuneUnaryBackwardOperatorINS0_10mshadow_op9log2_gradEEEvv
libmxnet.so:_ZN5mxnet2op11UnaryOpTuneIhE25TuneUnaryBackwardOperatorINS0_10mshadow_op9relu_gradEEEvv
libmxnet.so:_ZN5mxnet2op11UnaryOpTuneIhE25TuneUnaryBackwardOperatorINS0_10mshadow_op9selu_gradEEEvv
libmxnet.so:_ZN5mxnet2op11UnaryOpTuneIhE25TuneUnaryBackwardOperatorINS0_10mshadow_op9sign_gradEEEvv
libmxnet.so:_ZN5mxnet2op11UnaryOpTuneIhE25TuneUnaryBackwardOperatorINS0_10mshadow_op9sinh_gradEEEvv
libmxnet.so:_ZN5mxnet2op11UnaryOpTuneIhE25TuneUnaryBackwardOperatorINS0_10mshadow_op9tanh_gradEEEvv
libmxnet.so:_ZN5mxnet2op11UnaryOpTuneIiE17TuneUnaryOperatorINS0_10mshadow_op10reciprocalEEEvv
libmxnet.so:_ZN5mxnet2op11UnaryOpTuneIiE17TuneUnaryOperatorINS0_10mshadow_op11square_rootEEEvv
libmxnet.so:_ZN5mxnet2op11UnaryOpTuneIiE17TuneUnaryOperatorINS0_10mshadow_op20reciprocal_cube_rootEEEvv
libmxnet.so:_ZN5mxnet2op11UnaryOpTuneIiE17TuneUnaryOperatorINS0_10mshadow_op22reciprocal_square_rootEEEvv
libmxnet.so:_ZN5mxnet2op11UnaryOpTuneIiE17TuneUnaryOperatorINS0_10mshadow_op2ntEEEvv
libmxnet.so:_ZN5mxnet2op11UnaryOpTuneIiE17TuneUnaryOperatorINS0_10mshadow_op3absEEEvv
libmxnet.so:_ZN5mxnet2op11UnaryOpTuneIiE17TuneUnaryOperatorINS0_10mshadow_op3cosEEEvv
libmxnet.so:_ZN5mxnet2op11UnaryOpTuneIiE17TuneUnaryOperatorINS0_10mshadow_op3erfEEEvv
libmxnet.so:_ZN5mxnet2op11UnaryOpTuneIiE17TuneUnaryOperatorINS0_10mshadow_op3expEEEvv
libmxnet.so:_ZN5mxnet2op11UnaryOpTuneIiE17TuneUnaryOperatorINS0_10mshadow_op3fixEEEvv
libmxnet.so:_ZN5mxnet2op11UnaryOpTuneIiE17TuneUnaryOperatorINS0_10mshadow_op3logEEEvv
libmxnet.so:_ZN5mxnet2op11UnaryOpTuneIiE17TuneUnaryOperatorINS0_10mshadow_op3sinEEEvv
libmxnet.so:_ZN5mxnet2op11UnaryOpTuneIiE17TuneUnaryOperatorINS0_10mshadow_op3tanEEEvv
libmxnet.so:_ZN5mxnet2op11UnaryOpTuneIiE17TuneUnaryOperatorINS0_10mshadow_op4ceilEEEvv
libmxnet.so:_ZN5mxnet2op11UnaryOpTuneIiE17TuneUnaryOperatorINS0_10mshadow_op4coshEEEvv
libmxnet.so:_ZN5mxnet2op11UnaryOpTuneIiE17TuneUnaryOperatorINS0_10mshadow_op4geluEEEvv
libmxnet.so:_ZN5mxnet2op11UnaryOpTuneIiE17TuneUnaryOperatorINS0_10mshadow_op4log2EEEvv
libmxnet.so:_ZN5mxnet2op11UnaryOpTuneIiE17TuneUnaryOperatorINS0_10mshadow_op4reluEEEvv
libmxnet.so:_ZN5mxnet2op11UnaryOpTuneIiE17TuneUnaryOperatorINS0_10mshadow_op4rintEEEvv
libmxnet.so:_ZN5mxnet2op11UnaryOpTuneIiE17TuneUnaryOperatorINS0_10mshadow_op4seluEEEvv
libmxnet.so:_ZN5mxnet2op11UnaryOpTuneIiE17TuneUnaryOperatorINS0_10mshadow_op4signEEEvv
libmxnet.so:_ZN5mxnet2op11UnaryOpTuneIiE17TuneUnaryOperatorINS0_10mshadow_op4sinhEEEvv
libmxnet.so:_ZN5mxnet2op11UnaryOpTuneIiE17TuneUnaryOperatorINS0_10mshadow_op4tanhEEEvv
libmxnet.so:_ZN5mxnet2op11UnaryOpTuneIiE17TuneUnaryOperatorINS0_10mshadow_op5expm1EEEvv
libmxnet.so:_ZN5mxnet2op11UnaryOpTuneIiE17TuneUnaryOperatorINS0_10mshadow_op5floorEEEvv
libmxnet.so:_ZN5mxnet2op11UnaryOpTuneIiE17TuneUnaryOperatorINS0_10mshadow_op5gammaEEEvv
libmxnet.so:_ZN5mxnet2op11UnaryOpTuneIiE17TuneUnaryOperatorINS0_10mshadow_op5log10EEEvv
libmxnet.so:_ZN5mxnet2op11UnaryOpTuneIiE17TuneUnaryOperatorINS0_10mshadow_op5log1pEEEvv
libmxnet.so:_ZN5mxnet2op11UnaryOpTuneIiE17TuneUnaryOperatorINS0_10mshadow_op5roundEEEvv
libmxnet.so:_ZN5mxnet2op11UnaryOpTuneIiE17TuneUnaryOperatorINS0_10mshadow_op5truncEEEvv
libmxnet.so:_ZN5mxnet2op11UnaryOpTuneIiE17TuneUnaryOperatorINS0_10mshadow_op6arccosEEEvv
libmxnet.so:_ZN5mxnet2op11UnaryOpTuneIiE17TuneUnaryOperatorINS0_10mshadow_op6arcsinEEEvv
libmxnet.so:_ZN5mxnet2op11UnaryOpTuneIiE17TuneUnaryOperatorINS0_10mshadow_op6arctanEEEvv
libmxnet.so:_ZN5mxnet2op11UnaryOpTuneIiE17TuneUnaryOperatorINS0_10mshadow_op6erfinvEEEvv
libmxnet.so:_ZN5mxnet2op11UnaryOpTuneIiE17TuneUnaryOperatorINS0_10mshadow_op6squareEEEvv
libmxnet.so:_ZN5mxnet2op11UnaryOpTuneIiE17TuneUnaryOperatorINS0_10mshadow_op7arccoshEEEvv
libmxnet.so:_ZN5mxnet2op11UnaryOpTuneIiE17TuneUnaryOperatorINS0_10mshadow_op7arcsinhEEEvv
libmxnet.so:_ZN5mxnet2op11UnaryOpTuneIiE17TuneUnaryOperatorINS0_10mshadow_op7arctanhEEEvv
libmxnet.so:_ZN5mxnet2op11UnaryOpTuneIiE17TuneUnaryOperatorINS0_10mshadow_op7degreesEEEvv
libmxnet.so:_ZN5mxnet2op11UnaryOpTuneIiE17TuneUnaryOperatorINS0_10mshadow_op7gammalnEEEvv
libmxnet.so:_ZN5mxnet2op11UnaryOpTuneIiE17TuneUnaryOperatorINS0_10mshadow_op7radiansEEEvv
libmxnet.so:_ZN5mxnet2op11UnaryOpTuneIiE17TuneUnaryOperatorINS0_10mshadow_op7sigmoidEEEvv
libmxnet.so:_ZN5mxnet2op11UnaryOpTuneIiE17TuneUnaryOperatorINS0_10mshadow_op8identityEEEvv
libmxnet.so:_ZN5mxnet2op11UnaryOpTuneIiE17TuneUnaryOperatorINS0_10mshadow_op8negationEEEvv
libmxnet.so:_ZN5mxnet2op11UnaryOpTuneIiE17TuneUnaryOperatorINS0_10mshadow_op8softreluEEEvv
libmxnet.so:_ZN5mxnet2op11UnaryOpTuneIiE17TuneUnaryOperatorINS0_10mshadow_op8softsignEEEvv
libmxnet.so:_ZN5mxnet2op11UnaryOpTuneIiE17TuneUnaryOperatorINS0_10mshadow_op9cube_rootEEEvv
libmxnet.so:_ZN5mxnet2op11UnaryOpTuneIiE19TuneBlankOperatorExINS0_24PopulateFullIdxRspKernelEEEvv
libmxnet.so:_ZN5mxnet2op11UnaryOpTuneIiE19TuneBlankOperatorExINS0_8mxnet_op10set_to_intILi0EEEEEvv
libmxnet.so:_ZN5mxnet2op11UnaryOpTuneIiE19TuneBlankOperatorExINS0_8mxnet_op10set_to_intILi1EEEEEvv
libmxnet.so:_ZN5mxnet2op11UnaryOpTuneIiE25TuneUnaryBackwardOperatorINS0_10mshadow_op10gamma_gradEEEvv
libmxnet.so:_ZN5mxnet2op11UnaryOpTuneIiE25TuneUnaryBackwardOperatorINS0_10mshadow_op10log10_gradEEEvv
libmxnet.so:_ZN5mxnet2op11UnaryOpTuneIiE25TuneUnaryBackwardOperatorINS0_10mshadow_op10log1p_gradEEEvv
libmxnet.so:_ZN5mxnet2op11UnaryOpTuneIiE25TuneUnaryBackwardOperatorINS0_10mshadow_op11arccos_gradEEEvv
libmxnet.so:_ZN5mxnet2op11UnaryOpTuneIiE25TuneUnaryBackwardOperatorINS0_10mshadow_op11arcsin_gradEEEvv
libmxnet.so:_ZN5mxnet2op11UnaryOpTuneIiE25TuneUnaryBackwardOperatorINS0_10mshadow_op11arctan_gradEEEvv
libmxnet.so:_ZN5mxnet2op11UnaryOpTuneIiE25TuneUnaryBackwardOperatorINS0_10mshadow_op11erfinv_gradEEEvv
libmxnet.so:_ZN5mxnet2op11UnaryOpTuneIiE25TuneUnaryBackwardOperatorINS0_10mshadow_op11square_gradEEEvv
libmxnet.so:_ZN5mxnet2op11UnaryOpTuneIiE25TuneUnaryBackwardOperatorINS0_10mshadow_op12arccosh_gradEEEvv
libmxnet.so:_ZN5mxnet2op11UnaryOpTuneIiE25TuneUnaryBackwardOperatorINS0_10mshadow_op12arcsinh_gradEEEvv
libmxnet.so:_ZN5mxnet2op11UnaryOpTuneIiE25TuneUnaryBackwardOperatorINS0_10mshadow_op12arctanh_gradEEEvv
libmxnet.so:_ZN5mxnet2op11UnaryOpTuneIiE25TuneUnaryBackwardOperatorINS0_10mshadow_op12degrees_gradEEEvv
libmxnet.so:_ZN5mxnet2op11UnaryOpTuneIiE25TuneUnaryBackwardOperatorINS0_10mshadow_op12gammaln_gradEEEvv
libmxnet.so:_ZN5mxnet2op11UnaryOpTuneIiE25TuneUnaryBackwardOperatorINS0_10mshadow_op12radians_gradEEEvv
libmxnet.so:_ZN5mxnet2op11UnaryOpTuneIiE25TuneUnaryBackwardOperatorINS0_10mshadow_op12sigmoid_gradEEEvv
libmxnet.so:_ZN5mxnet2op11UnaryOpTuneIiE25TuneUnaryBackwardOperatorINS0_10mshadow_op13identity_gradEEEvv
libmxnet.so:_ZN5mxnet2op11UnaryOpTuneIiE25TuneUnaryBackwardOperatorINS0_10mshadow_op13softrelu_gradEEEvv
libmxnet.so:_ZN5mxnet2op11UnaryOpTuneIiE25TuneUnaryBackwardOperatorINS0_10mshadow_op13softsign_gradEEEvv
libmxnet.so:_ZN5mxnet2op11UnaryOpTuneIiE25TuneUnaryBackwardOperatorINS0_10mshadow_op14cube_root_gradEEEvv
libmxnet.so:_ZN5mxnet2op11UnaryOpTuneIiE25TuneUnaryBackwardOperatorINS0_10mshadow_op15reciprocal_gradEEEvv
libmxnet.so:_ZN5mxnet2op11UnaryOpTuneIiE25TuneUnaryBackwardOperatorINS0_10mshadow_op16square_root_gradEEEvv
libmxnet.so:_ZN5mxnet2op11UnaryOpTuneIiE25TuneUnaryBackwardOperatorINS0_10mshadow_op25reciprocal_cube_root_gradEEEvv
libmxnet.so:_ZN5mxnet2op11UnaryOpTuneIiE25TuneUnaryBackwardOperatorINS0_10mshadow_op27reciprocal_square_root_gradEEEvv
libmxnet.so:_ZN5mxnet2op11UnaryOpTuneIiE25TuneUnaryBackwardOperatorINS0_10mshadow_op2ntEEEvv
libmxnet.so:_ZN5mxnet2op11UnaryOpTuneIiE25TuneUnaryBackwardOperatorINS0_10mshadow_op3expEEEvv
libmxnet.so:_ZN5mxnet2op11UnaryOpTuneIiE25TuneUnaryBackwardOperatorINS0_10mshadow_op4signEEEvv
libmxnet.so:_ZN5mxnet2op11UnaryOpTuneIiE25TuneUnaryBackwardOperatorINS0_10mshadow_op8cos_gradEEEvv
libmxnet.so:_ZN5mxnet2op11UnaryOpTuneIiE25TuneUnaryBackwardOperatorINS0_10mshadow_op8erf_gradEEEvv
libmxnet.so:_ZN5mxnet2op11UnaryOpTuneIiE25TuneUnaryBackwardOperatorINS0_10mshadow_op8log_gradEEEvv
libmxnet.so:_ZN5mxnet2op11UnaryOpTuneIiE25TuneUnaryBackwardOperatorINS0_10mshadow_op8sin_gradEEEvv
libmxnet.so:_ZN5mxnet2op11UnaryOpTuneIiE25TuneUnaryBackwardOperatorINS0_10mshadow_op8tan_gradEEEvv
libmxnet.so:_ZN5mxnet2op11UnaryOpTuneIiE25TuneUnaryBackwardOperatorINS0_10mshadow_op9cosh_gradEEEvv
libmxnet.so:_ZN5mxnet2op11UnaryOpTuneIiE25TuneUnaryBackwardOperatorINS0_10mshadow_op9log2_gradEEEvv
libmxnet.so:_ZN5mxnet2op11UnaryOpTuneIiE25TuneUnaryBackwardOperatorINS0_10mshadow_op9relu_gradEEEvv
libmxnet.so:_ZN5mxnet2op11UnaryOpTuneIiE25TuneUnaryBackwardOperatorINS0_10mshadow_op9selu_gradEEEvv
libmxnet.so:_ZN5mxnet2op11UnaryOpTuneIiE25TuneUnaryBackwardOperatorINS0_10mshadow_op9sign_gradEEEvv
libmxnet.so:_ZN5mxnet2op11UnaryOpTuneIiE25TuneUnaryBackwardOperatorINS0_10mshadow_op9sinh_gradEEEvv
libmxnet.so:_ZN5mxnet2op11UnaryOpTuneIiE25TuneUnaryBackwardOperatorINS0_10mshadow_op9tanh_gradEEEvv
libmxnet.so:_ZN5mxnet2op11UnaryOpTuneIlE17TuneUnaryOperatorINS0_10mshadow_op10reciprocalEEEvv
libmxnet.so:_ZN5mxnet2op11UnaryOpTuneIlE17TuneUnaryOperatorINS0_10mshadow_op11square_rootEEEvv
libmxnet.so:_ZN5mxnet2op11UnaryOpTuneIlE17TuneUnaryOperatorINS0_10mshadow_op20reciprocal_cube_rootEEEvv
libmxnet.so:_ZN5mxnet2op11UnaryOpTuneIlE17TuneUnaryOperatorINS0_10mshadow_op22reciprocal_square_rootEEEvv
libmxnet.so:_ZN5mxnet2op11UnaryOpTuneIlE17TuneUnaryOperatorINS0_10mshadow_op2ntEEEvv
libmxnet.so:_ZN5mxnet2op11UnaryOpTuneIlE17TuneUnaryOperatorINS0_10mshadow_op3absEEEvv
libmxnet.so:_ZN5mxnet2op11UnaryOpTuneIlE17TuneUnaryOperatorINS0_10mshadow_op3cosEEEvv
libmxnet.so:_ZN5mxnet2op11UnaryOpTuneIlE17TuneUnaryOperatorINS0_10mshadow_op3erfEEEvv
libmxnet.so:_ZN5mxnet2op11UnaryOpTuneIlE17TuneUnaryOperatorINS0_10mshadow_op3expEEEvv
libmxnet.so:_ZN5mxnet2op11UnaryOpTuneIlE17TuneUnaryOperatorINS0_10mshadow_op3fixEEEvv
libmxnet.so:_ZN5mxnet2op11UnaryOpTuneIlE17TuneUnaryOperatorINS0_10mshadow_op3logEEEvv
libmxnet.so:_ZN5mxnet2op11UnaryOpTuneIlE17TuneUnaryOperatorINS0_10mshadow_op3sinEEEvv
libmxnet.so:_ZN5mxnet2op11UnaryOpTuneIlE17TuneUnaryOperatorINS0_10mshadow_op3tanEEEvv
libmxnet.so:_ZN5mxnet2op11UnaryOpTuneIlE17TuneUnaryOperatorINS0_10mshadow_op4ceilEEEvv
libmxnet.so:_ZN5mxnet2op11UnaryOpTuneIlE17TuneUnaryOperatorINS0_10mshadow_op4coshEEEvv
libmxnet.so:_ZN5mxnet2op11UnaryOpTuneIlE17TuneUnaryOperatorINS0_10mshadow_op4geluEEEvv
libmxnet.so:_ZN5mxnet2op11UnaryOpTuneIlE17TuneUnaryOperatorINS0_10mshadow_op4log2EEEvv
libmxnet.so:_ZN5mxnet2op11UnaryOpTuneIlE17TuneUnaryOperatorINS0_10mshadow_op4reluEEEvv
libmxnet.so:_ZN5mxnet2op11UnaryOpTuneIlE17TuneUnaryOperatorINS0_10mshadow_op4rintEEEvv
libmxnet.so:_ZN5mxnet2op11UnaryOpTuneIlE17TuneUnaryOperatorINS0_10mshadow_op4seluEEEvv
libmxnet.so:_ZN5mxnet2op11UnaryOpTuneIlE17TuneUnaryOperatorINS0_10mshadow_op4signEEEvv
libmxnet.so:_ZN5mxnet2op11UnaryOpTuneIlE17TuneUnaryOperatorINS0_10mshadow_op4sinhEEEvv
libmxnet.so:_ZN5mxnet2op11UnaryOpTuneIlE17TuneUnaryOperatorINS0_10mshadow_op4tanhEEEvv
libmxnet.so:_ZN5mxnet2op11UnaryOpTuneIlE17TuneUnaryOperatorINS0_10mshadow_op5expm1EEEvv
libmxnet.so:_ZN5mxnet2op11UnaryOpTuneIlE17TuneUnaryOperatorINS0_10mshadow_op5floorEEEvv
libmxnet.so:_ZN5mxnet2op11UnaryOpTuneIlE17TuneUnaryOperatorINS0_10mshadow_op5gammaEEEvv
libmxnet.so:_ZN5mxnet2op11UnaryOpTuneIlE17TuneUnaryOperatorINS0_10mshadow_op5log10EEEvv
libmxnet.so:_ZN5mxnet2op11UnaryOpTuneIlE17TuneUnaryOperatorINS0_10mshadow_op5log1pEEEvv
libmxnet.so:_ZN5mxnet2op11UnaryOpTuneIlE17TuneUnaryOperatorINS0_10mshadow_op5roundEEEvv
libmxnet.so:_ZN5mxnet2op11UnaryOpTuneIlE17TuneUnaryOperatorINS0_10mshadow_op5truncEEEvv
libmxnet.so:_ZN5mxnet2op11UnaryOpTuneIlE17TuneUnaryOperatorINS0_10mshadow_op6arccosEEEvv
libmxnet.so:_ZN5mxnet2op11UnaryOpTuneIlE17TuneUnaryOperatorINS0_10mshadow_op6arcsinEEEvv
libmxnet.so:_ZN5mxnet2op11UnaryOpTuneIlE17TuneUnaryOperatorINS0_10mshadow_op6arctanEEEvv
libmxnet.so:_ZN5mxnet2op11UnaryOpTuneIlE17TuneUnaryOperatorINS0_10mshadow_op6erfinvEEEvv
libmxnet.so:_ZN5mxnet2op11UnaryOpTuneIlE17TuneUnaryOperatorINS0_10mshadow_op6squareEEEvv
libmxnet.so:_ZN5mxnet2op11UnaryOpTuneIlE17TuneUnaryOperatorINS0_10mshadow_op7arccoshEEEvv
libmxnet.so:_ZN5mxnet2op11UnaryOpTuneIlE17TuneUnaryOperatorINS0_10mshadow_op7arcsinhEEEvv
libmxnet.so:_ZN5mxnet2op11UnaryOpTuneIlE17TuneUnaryOperatorINS0_10mshadow_op7arctanhEEEvv
libmxnet.so:_ZN5mxnet2op11UnaryOpTuneIlE17TuneUnaryOperatorINS0_10mshadow_op7degreesEEEvv
libmxnet.so:_ZN5mxnet2op11UnaryOpTuneIlE17TuneUnaryOperatorINS0_10mshadow_op7gammalnEEEvv
libmxnet.so:_ZN5mxnet2op11UnaryOpTuneIlE17TuneUnaryOperatorINS0_10mshadow_op7radiansEEEvv
libmxnet.so:_ZN5mxnet2op11UnaryOpTuneIlE17TuneUnaryOperatorINS0_10mshadow_op7sigmoidEEEvv
libmxnet.so:_ZN5mxnet2op11UnaryOpTuneIlE17TuneUnaryOperatorINS0_10mshadow_op8identityEEEvv
libmxnet.so:_ZN5mxnet2op11UnaryOpTuneIlE17TuneUnaryOperatorINS0_10mshadow_op8negationEEEvv
libmxnet.so:_ZN5mxnet2op11UnaryOpTuneIlE17TuneUnaryOperatorINS0_10mshadow_op8softreluEEEvv
libmxnet.so:_ZN5mxnet2op11UnaryOpTuneIlE17TuneUnaryOperatorINS0_10mshadow_op8softsignEEEvv
libmxnet.so:_ZN5mxnet2op11UnaryOpTuneIlE17TuneUnaryOperatorINS0_10mshadow_op9cube_rootEEEvv
libmxnet.so:_ZN5mxnet2op11UnaryOpTuneIlE19TuneBlankOperatorExINS0_24PopulateFullIdxRspKernelEEEvv
libmxnet.so:_ZN5mxnet2op11UnaryOpTuneIlE19TuneBlankOperatorExINS0_8mxnet_op10set_to_intILi0EEEEEvv
libmxnet.so:_ZN5mxnet2op11UnaryOpTuneIlE19TuneBlankOperatorExINS0_8mxnet_op10set_to_intILi1EEEEEvv
libmxnet.so:_ZN5mxnet2op11UnaryOpTuneIlE25TuneUnaryBackwardOperatorINS0_10mshadow_op10gamma_gradEEEvv
libmxnet.so:_ZN5mxnet2op11UnaryOpTuneIlE25TuneUnaryBackwardOperatorINS0_10mshadow_op10log10_gradEEEvv
libmxnet.so:_ZN5mxnet2op11UnaryOpTuneIlE25TuneUnaryBackwardOperatorINS0_10mshadow_op10log1p_gradEEEvv
libmxnet.so:_ZN5mxnet2op11UnaryOpTuneIlE25TuneUnaryBackwardOperatorINS0_10mshadow_op11arccos_gradEEEvv
libmxnet.so:_ZN5mxnet2op11UnaryOpTuneIlE25TuneUnaryBackwardOperatorINS0_10mshadow_op11arcsin_gradEEEvv
libmxnet.so:_ZN5mxnet2op11UnaryOpTuneIlE25TuneUnaryBackwardOperatorINS0_10mshadow_op11arctan_gradEEEvv
libmxnet.so:_ZN5mxnet2op11UnaryOpTuneIlE25TuneUnaryBackwardOperatorINS0_10mshadow_op11erfinv_gradEEEvv
libmxnet.so:_ZN5mxnet2op11UnaryOpTuneIlE25TuneUnaryBackwardOperatorINS0_10mshadow_op11square_gradEEEvv
libmxnet.so:_ZN5mxnet2op11UnaryOpTuneIlE25TuneUnaryBackwardOperatorINS0_10mshadow_op12arccosh_gradEEEvv
libmxnet.so:_ZN5mxnet2op11UnaryOpTuneIlE25TuneUnaryBackwardOperatorINS0_10mshadow_op12arcsinh_gradEEEvv
libmxnet.so:_ZN5mxnet2op11UnaryOpTuneIlE25TuneUnaryBackwardOperatorINS0_10mshadow_op12arctanh_gradEEEvv
libmxnet.so:_ZN5mxnet2op11UnaryOpTuneIlE25TuneUnaryBackwardOperatorINS0_10mshadow_op12degrees_gradEEEvv
libmxnet.so:_ZN5mxnet2op11UnaryOpTuneIlE25TuneUnaryBackwardOperatorINS0_10mshadow_op12gammaln_gradEEEvv
libmxnet.so:_ZN5mxnet2op11UnaryOpTuneIlE25TuneUnaryBackwardOperatorINS0_10mshadow_op12radians_gradEEEvv
libmxnet.so:_ZN5mxnet2op11UnaryOpTuneIlE25TuneUnaryBackwardOperatorINS0_10mshadow_op12sigmoid_gradEEEvv
libmxnet.so:_ZN5mxnet2op11UnaryOpTuneIlE25TuneUnaryBackwardOperatorINS0_10mshadow_op13identity_gradEEEvv
libmxnet.so:_ZN5mxnet2op11UnaryOpTuneIlE25TuneUnaryBackwardOperatorINS0_10mshadow_op13softrelu_gradEEEvv
libmxnet.so:_ZN5mxnet2op11UnaryOpTuneIlE25TuneUnaryBackwardOperatorINS0_10mshadow_op13softsign_gradEEEvv
libmxnet.so:_ZN5mxnet2op11UnaryOpTuneIlE25TuneUnaryBackwardOperatorINS0_10mshadow_op14cube_root_gradEEEvv
libmxnet.so:_ZN5mxnet2op11UnaryOpTuneIlE25TuneUnaryBackwardOperatorINS0_10mshadow_op15reciprocal_gradEEEvv
libmxnet.so:_ZN5mxnet2op11UnaryOpTuneIlE25TuneUnaryBackwardOperatorINS0_10mshadow_op16square_root_gradEEEvv
libmxnet.so:_ZN5mxnet2op11UnaryOpTuneIlE25TuneUnaryBackwardOperatorINS0_10mshadow_op25reciprocal_cube_root_gradEEEvv
libmxnet.so:_ZN5mxnet2op11UnaryOpTuneIlE25TuneUnaryBackwardOperatorINS0_10mshadow_op27reciprocal_square_root_gradEEEvv
libmxnet.so:_ZN5mxnet2op11UnaryOpTuneIlE25TuneUnaryBackwardOperatorINS0_10mshadow_op2ntEEEvv
libmxnet.so:_ZN5mxnet2op11UnaryOpTuneIlE25TuneUnaryBackwardOperatorINS0_10mshadow_op3expEEEvv
libmxnet.so:_ZN5mxnet2op11UnaryOpTuneIlE25TuneUnaryBackwardOperatorINS0_10mshadow_op4signEEEvv
libmxnet.so:_ZN5mxnet2op11UnaryOpTuneIlE25TuneUnaryBackwardOperatorINS0_10mshadow_op8cos_gradEEEvv
libmxnet.so:_ZN5mxnet2op11UnaryOpTuneIlE25TuneUnaryBackwardOperatorINS0_10mshadow_op8erf_gradEEEvv
libmxnet.so:_ZN5mxnet2op11UnaryOpTuneIlE25TuneUnaryBackwardOperatorINS0_10mshadow_op8log_gradEEEvv
libmxnet.so:_ZN5mxnet2op11UnaryOpTuneIlE25TuneUnaryBackwardOperatorINS0_10mshadow_op8sin_gradEEEvv
libmxnet.so:_ZN5mxnet2op11UnaryOpTuneIlE25TuneUnaryBackwardOperatorINS0_10mshadow_op8tan_gradEEEvv
libmxnet.so:_ZN5mxnet2op11UnaryOpTuneIlE25TuneUnaryBackwardOperatorINS0_10mshadow_op9cosh_gradEEEvv
libmxnet.so:_ZN5mxnet2op11UnaryOpTuneIlE25TuneUnaryBackwardOperatorINS0_10mshadow_op9log2_gradEEEvv
libmxnet.so:_ZN5mxnet2op11UnaryOpTuneIlE25TuneUnaryBackwardOperatorINS0_10mshadow_op9relu_gradEEEvv
libmxnet.so:_ZN5mxnet2op11UnaryOpTuneIlE25TuneUnaryBackwardOperatorINS0_10mshadow_op9selu_gradEEEvv
libmxnet.so:_ZN5mxnet2op11UnaryOpTuneIlE25TuneUnaryBackwardOperatorINS0_10mshadow_op9sign_gradEEEvv
libmxnet.so:_ZN5mxnet2op11UnaryOpTuneIlE25TuneUnaryBackwardOperatorINS0_10mshadow_op9sinh_gradEEEvv
libmxnet.so:_ZN5mxnet2op11UnaryOpTuneIlE25TuneUnaryBackwardOperatorINS0_10mshadow_op9tanh_gradEEEvv
libmxnet.so:_ZN5mxnet2op11WhereOpTypeERKN4nnvm9NodeAttrsEPSt6vectorIiSaIiEES8_
libmxnet.so:_ZN5mxnet2op11is_type_udfERKi
libmxnet.so:_ZN5mxnet2op12AMPCastParam11__MANAGER__Ev
libmxnet.so:_ZN5mxnet2op12AdagradParam11__MANAGER__Ev
libmxnet.so:_ZN5mxnet2op12AdamUpdateExIN7mshadow3cpuEEEvRKN4nnvm9NodeAttrsERKNS_9OpContextERKSt6vectorINS_7NDArrayESaISC_EERKSB_INS_9OpReqTypeESaISH_EESG_
libmxnet.so:_ZN5mxnet2op12AllFiniteCPUERKN4nnvm9NodeAttrsERKNS_9OpContextERKSt6vectorINS_5TBlobESaIS9_EERKS8_INS_9OpReqTypeESaISE_EESD_
libmxnet.so:_ZN5mxnet2op12ArgSortParam11__MANAGER__Ev
libmxnet.so:_ZN5mxnet2op12ArgSortShapeERKN4nnvm9NodeAttrsEPSt6vectorINS_6TShapeESaIS6_EES9_
libmxnet.so:_ZN5mxnet2op12BinaryOpTuneIN7mshadow4half6half_tEE18TuneBinaryOperatorINS0_10mshadow_op10logical_orEEEvv
libmxnet.so:_ZN5mxnet2op12BinaryOpTuneIN7mshadow4half6half_tEE18TuneBinaryOperatorINS0_10mshadow_op10minus_signEEEvv
libmxnet.so:_ZN5mxnet2op12BinaryOpTuneIN7mshadow4half6half_tEE18TuneBinaryOperatorINS0_10mshadow_op11logical_andEEEvv
libmxnet.so:_ZN5mxnet2op12BinaryOpTuneIN7mshadow4half6half_tEE18TuneBinaryOperatorINS0_10mshadow_op11logical_xorEEEvv
libmxnet.so:_ZN5mxnet2op12BinaryOpTuneIN7mshadow4half6half_tEE18TuneBinaryOperatorINS0_10mshadow_op14smooth_l1_lossEEEvv
libmxnet.so:_ZN5mxnet2op12BinaryOpTuneIN7mshadow4half6half_tEE18TuneBinaryOperatorINS0_10mshadow_op15hypot_grad_leftEEEvv
libmxnet.so:_ZN5mxnet2op12BinaryOpTuneIN7mshadow4half6half_tEE18TuneBinaryOperatorINS0_10mshadow_op16hypot_grad_rightEEEvv
libmxnet.so:_ZN5mxnet2op12BinaryOpTuneIN7mshadow4half6half_tEE18TuneBinaryOperatorINS0_10mshadow_op2eqEEEvv
libmxnet.so:_ZN5mxnet2op12BinaryOpTuneIN7mshadow4half6half_tEE18TuneBinaryOperatorINS0_10mshadow_op2geEEEvv
libmxnet.so:_ZN5mxnet2op12BinaryOpTuneIN7mshadow4half6half_tEE18TuneBinaryOperatorINS0_10mshadow_op2gtEEEvv
libmxnet.so:_ZN5mxnet2op12BinaryOpTuneIN7mshadow4half6half_tEE18TuneBinaryOperatorINS0_10mshadow_op2leEEEvv
libmxnet.so:_ZN5mxnet2op12BinaryOpTuneIN7mshadow4half6half_tEE18TuneBinaryOperatorINS0_10mshadow_op2ltEEEvv
libmxnet.so:_ZN5mxnet2op12BinaryOpTuneIN7mshadow4half6half_tEE18TuneBinaryOperatorINS0_10mshadow_op2neEEEvv
libmxnet.so:_ZN5mxnet2op12BinaryOpTuneIN7mshadow4half6half_tEE18TuneBinaryOperatorINS0_10mshadow_op3divEEEvv
libmxnet.so:_ZN5mxnet2op12BinaryOpTuneIN7mshadow4half6half_tEE18TuneBinaryOperatorINS0_10mshadow_op3eluEEEvv
libmxnet.so:_ZN5mxnet2op12BinaryOpTuneIN7mshadow4half6half_tEE18TuneBinaryOperatorINS0_10mshadow_op3modEEEvv
libmxnet.so:_ZN5mxnet2op12BinaryOpTuneIN7mshadow4half6half_tEE18TuneBinaryOperatorINS0_10mshadow_op3mulEEEvv
libmxnet.so:_ZN5mxnet2op12BinaryOpTuneIN7mshadow4half6half_tEE18TuneBinaryOperatorINS0_10mshadow_op4clipEEEvv
libmxnet.so:_ZN5mxnet2op12BinaryOpTuneIN7mshadow4half6half_tEE18TuneBinaryOperatorINS0_10mshadow_op4leftEEEvv
libmxnet.so:_ZN5mxnet2op12BinaryOpTuneIN7mshadow4half6half_tEE18TuneBinaryOperatorINS0_10mshadow_op4plusEEEvv
libmxnet.so:_ZN5mxnet2op12BinaryOpTuneIN7mshadow4half6half_tEE18TuneBinaryOperatorINS0_10mshadow_op4rdivEEEvv
libmxnet.so:_ZN5mxnet2op12BinaryOpTuneIN7mshadow4half6half_tEE18TuneBinaryOperatorINS0_10mshadow_op4rmodEEEvv
libmxnet.so:_ZN5mxnet2op12BinaryOpTuneIN7mshadow4half6half_tEE18TuneBinaryOperatorINS0_10mshadow_op4xeluEEEvv
libmxnet.so:_ZN5mxnet2op12BinaryOpTuneIN7mshadow4half6half_tEE18TuneBinaryOperatorINS0_10mshadow_op5hypotEEEvv
libmxnet.so:_ZN5mxnet2op12BinaryOpTuneIN7mshadow4half6half_tEE18TuneBinaryOperatorINS0_10mshadow_op5minusEEEvv
libmxnet.so:_ZN5mxnet2op12BinaryOpTuneIN7mshadow4half6half_tEE18TuneBinaryOperatorINS0_10mshadow_op5powerEEEvv
libmxnet.so:_ZN5mxnet2op12BinaryOpTuneIN7mshadow4half6half_tEE18TuneBinaryOperatorINS0_10mshadow_op5rightEEEvv
libmxnet.so:_ZN5mxnet2op12BinaryOpTuneIN7mshadow4half6half_tEE18TuneBinaryOperatorINS0_10mshadow_op6rminusEEEvv
libmxnet.so:_ZN5mxnet2op12BinaryOpTuneIN7mshadow4half6half_tEE18TuneBinaryOperatorINS0_10mshadow_op6rpowerEEEvv
libmxnet.so:_ZN5mxnet2op12BinaryOpTuneIN7mshadow4half6half_tEE18TuneBinaryOperatorINS0_10mshadow_op7maximumEEEvv
libmxnet.so:_ZN5mxnet2op12BinaryOpTuneIN7mshadow4half6half_tEE18TuneBinaryOperatorINS0_10mshadow_op7minimumEEEvv
libmxnet.so:_ZN5mxnet2op12BinaryOpTuneIN7mshadow4half6half_tEE18TuneBinaryOperatorINS0_10mshadow_op8div_gradEEEvv
libmxnet.so:_ZN5mxnet2op12BinaryOpTuneIN7mshadow4half6half_tEE18TuneBinaryOperatorINS0_10mshadow_op9div_rgradEEEvv
libmxnet.so:_ZN5mxnet2op12BinaryOpTuneIN7mshadow4half6half_tEE26TuneBinaryBackwardOperatorINS0_10mshadow_op10logical_orEEEvv
libmxnet.so:_ZN5mxnet2op12BinaryOpTuneIN7mshadow4half6half_tEE26TuneBinaryBackwardOperatorINS0_10mshadow_op10minus_signEEEvv
libmxnet.so:_ZN5mxnet2op12BinaryOpTuneIN7mshadow4half6half_tEE26TuneBinaryBackwardOperatorINS0_10mshadow_op10power_gradEEEvv
libmxnet.so:_ZN5mxnet2op12BinaryOpTuneIN7mshadow4half6half_tEE26TuneBinaryBackwardOperatorINS0_10mshadow_op10prelu_gradEEEvv
libmxnet.so:_ZN5mxnet2op12BinaryOpTuneIN7mshadow4half6half_tEE26TuneBinaryBackwardOperatorINS0_10mshadow_op11logical_andEEEvv
libmxnet.so:_ZN5mxnet2op12BinaryOpTuneIN7mshadow4half6half_tEE26TuneBinaryBackwardOperatorINS0_10mshadow_op11logical_xorEEEvv
libmxnet.so:_ZN5mxnet2op12BinaryOpTuneIN7mshadow4half6half_tEE26TuneBinaryBackwardOperatorINS0_10mshadow_op11power_rgradEEEvv
libmxnet.so:_ZN5mxnet2op12BinaryOpTuneIN7mshadow4half6half_tEE26TuneBinaryBackwardOperatorINS0_10mshadow_op11rpower_gradEEEvv
libmxnet.so:_ZN5mxnet2op12BinaryOpTuneIN7mshadow4half6half_tEE26TuneBinaryBackwardOperatorINS0_10mshadow_op15hypot_grad_leftEEEvv
libmxnet.so:_ZN5mxnet2op12BinaryOpTuneIN7mshadow4half6half_tEE26TuneBinaryBackwardOperatorINS0_10mshadow_op16hypot_grad_rightEEEvv
libmxnet.so:_ZN5mxnet2op12BinaryOpTuneIN7mshadow4half6half_tEE26TuneBinaryBackwardOperatorINS0_10mshadow_op18smooth_l1_gradientEEEvv
libmxnet.so:_ZN5mxnet2op12BinaryOpTuneIN7mshadow4half6half_tEE26TuneBinaryBackwardOperatorINS0_10mshadow_op2eqEEEvv
libmxnet.so:_ZN5mxnet2op12BinaryOpTuneIN7mshadow4half6half_tEE26TuneBinaryBackwardOperatorINS0_10mshadow_op2geEEEvv
libmxnet.so:_ZN5mxnet2op12BinaryOpTuneIN7mshadow4half6half_tEE26TuneBinaryBackwardOperatorINS0_10mshadow_op2gtEEEvv
libmxnet.so:_ZN5mxnet2op12BinaryOpTuneIN7mshadow4half6half_tEE26TuneBinaryBackwardOperatorINS0_10mshadow_op2leEEEvv
libmxnet.so:_ZN5mxnet2op12BinaryOpTuneIN7mshadow4half6half_tEE26TuneBinaryBackwardOperatorINS0_10mshadow_op2ltEEEvv
libmxnet.so:_ZN5mxnet2op12BinaryOpTuneIN7mshadow4half6half_tEE26TuneBinaryBackwardOperatorINS0_10mshadow_op2neEEEvv
libmxnet.so:_ZN5mxnet2op12BinaryOpTuneIN7mshadow4half6half_tEE26TuneBinaryBackwardOperatorINS0_10mshadow_op3divEEEvv
libmxnet.so:_ZN5mxnet2op12BinaryOpTuneIN7mshadow4half6half_tEE26TuneBinaryBackwardOperatorINS0_10mshadow_op3mulEEEvv
libmxnet.so:_ZN5mxnet2op12BinaryOpTuneIN7mshadow4half6half_tEE26TuneBinaryBackwardOperatorINS0_10mshadow_op4clipEEEvv
libmxnet.so:_ZN5mxnet2op12BinaryOpTuneIN7mshadow4half6half_tEE26TuneBinaryBackwardOperatorINS0_10mshadow_op4leftEEEvv
libmxnet.so:_ZN5mxnet2op12BinaryOpTuneIN7mshadow4half6half_tEE26TuneBinaryBackwardOperatorINS0_10mshadow_op4plusEEEvv
libmxnet.so:_ZN5mxnet2op12BinaryOpTuneIN7mshadow4half6half_tEE26TuneBinaryBackwardOperatorINS0_10mshadow_op4rdivEEEvv
libmxnet.so:_ZN5mxnet2op12BinaryOpTuneIN7mshadow4half6half_tEE26TuneBinaryBackwardOperatorINS0_10mshadow_op5minusEEEvv
libmxnet.so:_ZN5mxnet2op12BinaryOpTuneIN7mshadow4half6half_tEE26TuneBinaryBackwardOperatorINS0_10mshadow_op5rightEEEvv
libmxnet.so:_ZN5mxnet2op12BinaryOpTuneIN7mshadow4half6half_tEE26TuneBinaryBackwardOperatorINS0_10mshadow_op6rminusEEEvv
libmxnet.so:_ZN5mxnet2op12BinaryOpTuneIN7mshadow4half6half_tEE26TuneBinaryBackwardOperatorINS0_10mshadow_op8div_gradEEEvv
libmxnet.so:_ZN5mxnet2op12BinaryOpTuneIN7mshadow4half6half_tEE26TuneBinaryBackwardOperatorINS0_10mshadow_op8elu_gradEEEvv
libmxnet.so:_ZN5mxnet2op12BinaryOpTuneIN7mshadow4half6half_tEE26TuneBinaryBackwardOperatorINS0_10mshadow_op8mod_gradEEEvv
libmxnet.so:_ZN5mxnet2op12BinaryOpTuneIN7mshadow4half6half_tEE26TuneBinaryBackwardOperatorINS0_10mshadow_op9div_rgradEEEvv
libmxnet.so:_ZN5mxnet2op12BinaryOpTuneIN7mshadow4half6half_tEE26TuneBinaryBackwardOperatorINS0_10mshadow_op9gelu_gradEEEvv
libmxnet.so:_ZN5mxnet2op12BinaryOpTuneIN7mshadow4half6half_tEE26TuneBinaryBackwardOperatorINS0_10mshadow_op9mod_rgradEEEvv
libmxnet.so:_ZN5mxnet2op12BinaryOpTuneIN7mshadow4half6half_tEE26TuneBinaryBackwardOperatorINS0_10mshadow_op9rdiv_gradEEEvv
libmxnet.so:_ZN5mxnet2op12BinaryOpTuneIN7mshadow4half6half_tEE26TuneBinaryBackwardOperatorINS0_10mshadow_op9rmod_gradEEEvv
libmxnet.so:_ZN5mxnet2op12BinaryOpTuneIN7mshadow4half6half_tEE26TuneBinaryBackwardOperatorINS0_10mshadow_op9xelu_gradEEEvv
libmxnet.so:_ZN5mxnet2op12BinaryOpTuneIaE18TuneBinaryOperatorINS0_10mshadow_op10logical_orEEEvv
libmxnet.so:_ZN5mxnet2op12BinaryOpTuneIaE18TuneBinaryOperatorINS0_10mshadow_op10minus_signEEEvv
libmxnet.so:_ZN5mxnet2op12BinaryOpTuneIaE18TuneBinaryOperatorINS0_10mshadow_op11logical_andEEEvv
libmxnet.so:_ZN5mxnet2op12BinaryOpTuneIaE18TuneBinaryOperatorINS0_10mshadow_op11logical_xorEEEvv
libmxnet.so:_ZN5mxnet2op12BinaryOpTuneIaE18TuneBinaryOperatorINS0_10mshadow_op14smooth_l1_lossEEEvv
libmxnet.so:_ZN5mxnet2op12BinaryOpTuneIaE18TuneBinaryOperatorINS0_10mshadow_op15hypot_grad_leftEEEvv
libmxnet.so:_ZN5mxnet2op12BinaryOpTuneIaE18TuneBinaryOperatorINS0_10mshadow_op16hypot_grad_rightEEEvv
libmxnet.so:_ZN5mxnet2op12BinaryOpTuneIaE18TuneBinaryOperatorINS0_10mshadow_op2eqEEEvv
libmxnet.so:_ZN5mxnet2op12BinaryOpTuneIaE18TuneBinaryOperatorINS0_10mshadow_op2geEEEvv
libmxnet.so:_ZN5mxnet2op12BinaryOpTuneIaE18TuneBinaryOperatorINS0_10mshadow_op2gtEEEvv
libmxnet.so:_ZN5mxnet2op12BinaryOpTuneIaE18TuneBinaryOperatorINS0_10mshadow_op2leEEEvv
libmxnet.so:_ZN5mxnet2op12BinaryOpTuneIaE18TuneBinaryOperatorINS0_10mshadow_op2ltEEEvv
libmxnet.so:_ZN5mxnet2op12BinaryOpTuneIaE18TuneBinaryOperatorINS0_10mshadow_op2neEEEvv
libmxnet.so:_ZN5mxnet2op12BinaryOpTuneIaE18TuneBinaryOperatorINS0_10mshadow_op3divEEEvv
libmxnet.so:_ZN5mxnet2op12BinaryOpTuneIaE18TuneBinaryOperatorINS0_10mshadow_op3eluEEEvv
libmxnet.so:_ZN5mxnet2op12BinaryOpTuneIaE18TuneBinaryOperatorINS0_10mshadow_op3modEEEvv
libmxnet.so:_ZN5mxnet2op12BinaryOpTuneIaE18TuneBinaryOperatorINS0_10mshadow_op3mulEEEvv
libmxnet.so:_ZN5mxnet2op12BinaryOpTuneIaE18TuneBinaryOperatorINS0_10mshadow_op4clipEEEvv
libmxnet.so:_ZN5mxnet2op12BinaryOpTuneIaE18TuneBinaryOperatorINS0_10mshadow_op4leftEEEvv
libmxnet.so:_ZN5mxnet2op12BinaryOpTuneIaE18TuneBinaryOperatorINS0_10mshadow_op4plusEEEvv
libmxnet.so:_ZN5mxnet2op12BinaryOpTuneIaE18TuneBinaryOperatorINS0_10mshadow_op4rdivEEEvv
libmxnet.so:_ZN5mxnet2op12BinaryOpTuneIaE18TuneBinaryOperatorINS0_10mshadow_op4rmodEEEvv
libmxnet.so:_ZN5mxnet2op12BinaryOpTuneIaE18TuneBinaryOperatorINS0_10mshadow_op4xeluEEEvv
libmxnet.so:_ZN5mxnet2op12BinaryOpTuneIaE18TuneBinaryOperatorINS0_10mshadow_op5hypotEEEvv
libmxnet.so:_ZN5mxnet2op12BinaryOpTuneIaE18TuneBinaryOperatorINS0_10mshadow_op5minusEEEvv
libmxnet.so:_ZN5mxnet2op12BinaryOpTuneIaE18TuneBinaryOperatorINS0_10mshadow_op5powerEEEvv
libmxnet.so:_ZN5mxnet2op12BinaryOpTuneIaE18TuneBinaryOperatorINS0_10mshadow_op5rightEEEvv
libmxnet.so:_ZN5mxnet2op12BinaryOpTuneIaE18TuneBinaryOperatorINS0_10mshadow_op6rminusEEEvv
libmxnet.so:_ZN5mxnet2op12BinaryOpTuneIaE18TuneBinaryOperatorINS0_10mshadow_op6rpowerEEEvv
libmxnet.so:_ZN5mxnet2op12BinaryOpTuneIaE18TuneBinaryOperatorINS0_10mshadow_op7maximumEEEvv
libmxnet.so:_ZN5mxnet2op12BinaryOpTuneIaE18TuneBinaryOperatorINS0_10mshadow_op7minimumEEEvv
libmxnet.so:_ZN5mxnet2op12BinaryOpTuneIaE18TuneBinaryOperatorINS0_10mshadow_op8div_gradEEEvv
libmxnet.so:_ZN5mxnet2op12BinaryOpTuneIaE18TuneBinaryOperatorINS0_10mshadow_op9div_rgradEEEvv
libmxnet.so:_ZN5mxnet2op12BinaryOpTuneIaE26TuneBinaryBackwardOperatorINS0_10mshadow_op10logical_orEEEvv
libmxnet.so:_ZN5mxnet2op12BinaryOpTuneIaE26TuneBinaryBackwardOperatorINS0_10mshadow_op10minus_signEEEvv
libmxnet.so:_ZN5mxnet2op12BinaryOpTuneIaE26TuneBinaryBackwardOperatorINS0_10mshadow_op10power_gradEEEvv
libmxnet.so:_ZN5mxnet2op12BinaryOpTuneIaE26TuneBinaryBackwardOperatorINS0_10mshadow_op10prelu_gradEEEvv
libmxnet.so:_ZN5mxnet2op12BinaryOpTuneIaE26TuneBinaryBackwardOperatorINS0_10mshadow_op11logical_andEEEvv
libmxnet.so:_ZN5mxnet2op12BinaryOpTuneIaE26TuneBinaryBackwardOperatorINS0_10mshadow_op11logical_xorEEEvv
libmxnet.so:_ZN5mxnet2op12BinaryOpTuneIaE26TuneBinaryBackwardOperatorINS0_10mshadow_op11power_rgradEEEvv
libmxnet.so:_ZN5mxnet2op12BinaryOpTuneIaE26TuneBinaryBackwardOperatorINS0_10mshadow_op11rpower_gradEEEvv
libmxnet.so:_ZN5mxnet2op12BinaryOpTuneIaE26TuneBinaryBackwardOperatorINS0_10mshadow_op15hypot_grad_leftEEEvv
libmxnet.so:_ZN5mxnet2op12BinaryOpTuneIaE26TuneBinaryBackwardOperatorINS0_10mshadow_op16hypot_grad_rightEEEvv
libmxnet.so:_ZN5mxnet2op12BinaryOpTuneIaE26TuneBinaryBackwardOperatorINS0_10mshadow_op18smooth_l1_gradientEEEvv
libmxnet.so:_ZN5mxnet2op12BinaryOpTuneIaE26TuneBinaryBackwardOperatorINS0_10mshadow_op2eqEEEvv
libmxnet.so:_ZN5mxnet2op12BinaryOpTuneIaE26TuneBinaryBackwardOperatorINS0_10mshadow_op2geEEEvv
libmxnet.so:_ZN5mxnet2op12BinaryOpTuneIaE26TuneBinaryBackwardOperatorINS0_10mshadow_op2gtEEEvv
libmxnet.so:_ZN5mxnet2op12BinaryOpTuneIaE26TuneBinaryBackwardOperatorINS0_10mshadow_op2leEEEvv
libmxnet.so:_ZN5mxnet2op12BinaryOpTuneIaE26TuneBinaryBackwardOperatorINS0_10mshadow_op2ltEEEvv
libmxnet.so:_ZN5mxnet2op12BinaryOpTuneIaE26TuneBinaryBackwardOperatorINS0_10mshadow_op2neEEEvv
libmxnet.so:_ZN5mxnet2op12BinaryOpTuneIaE26TuneBinaryBackwardOperatorINS0_10mshadow_op3divEEEvv
libmxnet.so:_ZN5mxnet2op12BinaryOpTuneIaE26TuneBinaryBackwardOperatorINS0_10mshadow_op3mulEEEvv
libmxnet.so:_ZN5mxnet2op12BinaryOpTuneIaE26TuneBinaryBackwardOperatorINS0_10mshadow_op4clipEEEvv
libmxnet.so:_ZN5mxnet2op12BinaryOpTuneIaE26TuneBinaryBackwardOperatorINS0_10mshadow_op4leftEEEvv
libmxnet.so:_ZN5mxnet2op12BinaryOpTuneIaE26TuneBinaryBackwardOperatorINS0_10mshadow_op4plusEEEvv
libmxnet.so:_ZN5mxnet2op12BinaryOpTuneIaE26TuneBinaryBackwardOperatorINS0_10mshadow_op4rdivEEEvv
libmxnet.so:_ZN5mxnet2op12BinaryOpTuneIaE26TuneBinaryBackwardOperatorINS0_10mshadow_op5minusEEEvv
libmxnet.so:_ZN5mxnet2op12BinaryOpTuneIaE26TuneBinaryBackwardOperatorINS0_10mshadow_op5rightEEEvv
libmxnet.so:_ZN5mxnet2op12BinaryOpTuneIaE26TuneBinaryBackwardOperatorINS0_10mshadow_op6rminusEEEvv
libmxnet.so:_ZN5mxnet2op12BinaryOpTuneIaE26TuneBinaryBackwardOperatorINS0_10mshadow_op8div_gradEEEvv
libmxnet.so:_ZN5mxnet2op12BinaryOpTuneIaE26TuneBinaryBackwardOperatorINS0_10mshadow_op8elu_gradEEEvv
libmxnet.so:_ZN5mxnet2op12BinaryOpTuneIaE26TuneBinaryBackwardOperatorINS0_10mshadow_op8mod_gradEEEvv
libmxnet.so:_ZN5mxnet2op12BinaryOpTuneIaE26TuneBinaryBackwardOperatorINS0_10mshadow_op9div_rgradEEEvv
libmxnet.so:_ZN5mxnet2op12BinaryOpTuneIaE26TuneBinaryBackwardOperatorINS0_10mshadow_op9gelu_gradEEEvv
libmxnet.so:_ZN5mxnet2op12BinaryOpTuneIaE26TuneBinaryBackwardOperatorINS0_10mshadow_op9mod_rgradEEEvv
libmxnet.so:_ZN5mxnet2op12BinaryOpTuneIaE26TuneBinaryBackwardOperatorINS0_10mshadow_op9rdiv_gradEEEvv
libmxnet.so:_ZN5mxnet2op12BinaryOpTuneIaE26TuneBinaryBackwardOperatorINS0_10mshadow_op9rmod_gradEEEvv
libmxnet.so:_ZN5mxnet2op12BinaryOpTuneIaE26TuneBinaryBackwardOperatorINS0_10mshadow_op9xelu_gradEEEvv
libmxnet.so:_ZN5mxnet2op12BinaryOpTuneIdE18TuneBinaryOperatorINS0_10mshadow_op10logical_orEEEvv
libmxnet.so:_ZN5mxnet2op12BinaryOpTuneIdE18TuneBinaryOperatorINS0_10mshadow_op10minus_signEEEvv
libmxnet.so:_ZN5mxnet2op12BinaryOpTuneIdE18TuneBinaryOperatorINS0_10mshadow_op11logical_andEEEvv
libmxnet.so:_ZN5mxnet2op12BinaryOpTuneIdE18TuneBinaryOperatorINS0_10mshadow_op11logical_xorEEEvv
libmxnet.so:_ZN5mxnet2op12BinaryOpTuneIdE18TuneBinaryOperatorINS0_10mshadow_op14smooth_l1_lossEEEvv
libmxnet.so:_ZN5mxnet2op12BinaryOpTuneIdE18TuneBinaryOperatorINS0_10mshadow_op15hypot_grad_leftEEEvv
libmxnet.so:_ZN5mxnet2op12BinaryOpTuneIdE18TuneBinaryOperatorINS0_10mshadow_op16hypot_grad_rightEEEvv
libmxnet.so:_ZN5mxnet2op12BinaryOpTuneIdE18TuneBinaryOperatorINS0_10mshadow_op2eqEEEvv
libmxnet.so:_ZN5mxnet2op12BinaryOpTuneIdE18TuneBinaryOperatorINS0_10mshadow_op2geEEEvv
libmxnet.so:_ZN5mxnet2op12BinaryOpTuneIdE18TuneBinaryOperatorINS0_10mshadow_op2gtEEEvv
libmxnet.so:_ZN5mxnet2op12BinaryOpTuneIdE18TuneBinaryOperatorINS0_10mshadow_op2leEEEvv
libmxnet.so:_ZN5mxnet2op12BinaryOpTuneIdE18TuneBinaryOperatorINS0_10mshadow_op2ltEEEvv
libmxnet.so:_ZN5mxnet2op12BinaryOpTuneIdE18TuneBinaryOperatorINS0_10mshadow_op2neEEEvv
libmxnet.so:_ZN5mxnet2op12BinaryOpTuneIdE18TuneBinaryOperatorINS0_10mshadow_op3divEEEvv
libmxnet.so:_ZN5mxnet2op12BinaryOpTuneIdE18TuneBinaryOperatorINS0_10mshadow_op3eluEEEvv
libmxnet.so:_ZN5mxnet2op12BinaryOpTuneIdE18TuneBinaryOperatorINS0_10mshadow_op3modEEEvv
libmxnet.so:_ZN5mxnet2op12BinaryOpTuneIdE18TuneBinaryOperatorINS0_10mshadow_op3mulEEEvv
libmxnet.so:_ZN5mxnet2op12BinaryOpTuneIdE18TuneBinaryOperatorINS0_10mshadow_op4clipEEEvv
libmxnet.so:_ZN5mxnet2op12BinaryOpTuneIdE18TuneBinaryOperatorINS0_10mshadow_op4leftEEEvv
libmxnet.so:_ZN5mxnet2op12BinaryOpTuneIdE18TuneBinaryOperatorINS0_10mshadow_op4plusEEEvv
libmxnet.so:_ZN5mxnet2op12BinaryOpTuneIdE18TuneBinaryOperatorINS0_10mshadow_op4rdivEEEvv
libmxnet.so:_ZN5mxnet2op12BinaryOpTuneIdE18TuneBinaryOperatorINS0_10mshadow_op4rmodEEEvv
libmxnet.so:_ZN5mxnet2op12BinaryOpTuneIdE18TuneBinaryOperatorINS0_10mshadow_op4xeluEEEvv
libmxnet.so:_ZN5mxnet2op12BinaryOpTuneIdE18TuneBinaryOperatorINS0_10mshadow_op5hypotEEEvv
libmxnet.so:_ZN5mxnet2op12BinaryOpTuneIdE18TuneBinaryOperatorINS0_10mshadow_op5minusEEEvv
libmxnet.so:_ZN5mxnet2op12BinaryOpTuneIdE18TuneBinaryOperatorINS0_10mshadow_op5powerEEEvv
libmxnet.so:_ZN5mxnet2op12BinaryOpTuneIdE18TuneBinaryOperatorINS0_10mshadow_op5rightEEEvv
libmxnet.so:_ZN5mxnet2op12BinaryOpTuneIdE18TuneBinaryOperatorINS0_10mshadow_op6rminusEEEvv
libmxnet.so:_ZN5mxnet2op12BinaryOpTuneIdE18TuneBinaryOperatorINS0_10mshadow_op6rpowerEEEvv
libmxnet.so:_ZN5mxnet2op12BinaryOpTuneIdE18TuneBinaryOperatorINS0_10mshadow_op7maximumEEEvv
libmxnet.so:_ZN5mxnet2op12BinaryOpTuneIdE18TuneBinaryOperatorINS0_10mshadow_op7minimumEEEvv
libmxnet.so:_ZN5mxnet2op12BinaryOpTuneIdE18TuneBinaryOperatorINS0_10mshadow_op8div_gradEEEvv
libmxnet.so:_ZN5mxnet2op12BinaryOpTuneIdE18TuneBinaryOperatorINS0_10mshadow_op9div_rgradEEEvv
libmxnet.so:_ZN5mxnet2op12BinaryOpTuneIdE26TuneBinaryBackwardOperatorINS0_10mshadow_op10logical_orEEEvv
libmxnet.so:_ZN5mxnet2op12BinaryOpTuneIdE26TuneBinaryBackwardOperatorINS0_10mshadow_op10minus_signEEEvv
libmxnet.so:_ZN5mxnet2op12BinaryOpTuneIdE26TuneBinaryBackwardOperatorINS0_10mshadow_op10power_gradEEEvv
libmxnet.so:_ZN5mxnet2op12BinaryOpTuneIdE26TuneBinaryBackwardOperatorINS0_10mshadow_op10prelu_gradEEEvv
libmxnet.so:_ZN5mxnet2op12BinaryOpTuneIdE26TuneBinaryBackwardOperatorINS0_10mshadow_op11logical_andEEEvv
libmxnet.so:_ZN5mxnet2op12BinaryOpTuneIdE26TuneBinaryBackwardOperatorINS0_10mshadow_op11logical_xorEEEvv
libmxnet.so:_ZN5mxnet2op12BinaryOpTuneIdE26TuneBinaryBackwardOperatorINS0_10mshadow_op11power_rgradEEEvv
libmxnet.so:_ZN5mxnet2op12BinaryOpTuneIdE26TuneBinaryBackwardOperatorINS0_10mshadow_op11rpower_gradEEEvv
libmxnet.so:_ZN5mxnet2op12BinaryOpTuneIdE26TuneBinaryBackwardOperatorINS0_10mshadow_op15hypot_grad_leftEEEvv
libmxnet.so:_ZN5mxnet2op12BinaryOpTuneIdE26TuneBinaryBackwardOperatorINS0_10mshadow_op16hypot_grad_rightEEEvv
libmxnet.so:_ZN5mxnet2op12BinaryOpTuneIdE26TuneBinaryBackwardOperatorINS0_10mshadow_op18smooth_l1_gradientEEEvv
libmxnet.so:_ZN5mxnet2op12BinaryOpTuneIdE26TuneBinaryBackwardOperatorINS0_10mshadow_op2eqEEEvv
libmxnet.so:_ZN5mxnet2op12BinaryOpTuneIdE26TuneBinaryBackwardOperatorINS0_10mshadow_op2geEEEvv
libmxnet.so:_ZN5mxnet2op12BinaryOpTuneIdE26TuneBinaryBackwardOperatorINS0_10mshadow_op2gtEEEvv
libmxnet.so:_ZN5mxnet2op12BinaryOpTuneIdE26TuneBinaryBackwardOperatorINS0_10mshadow_op2leEEEvv
libmxnet.so:_ZN5mxnet2op12BinaryOpTuneIdE26TuneBinaryBackwardOperatorINS0_10mshadow_op2ltEEEvv
libmxnet.so:_ZN5mxnet2op12BinaryOpTuneIdE26TuneBinaryBackwardOperatorINS0_10mshadow_op2neEEEvv
libmxnet.so:_ZN5mxnet2op12BinaryOpTuneIdE26TuneBinaryBackwardOperatorINS0_10mshadow_op3divEEEvv
libmxnet.so:_ZN5mxnet2op12BinaryOpTuneIdE26TuneBinaryBackwardOperatorINS0_10mshadow_op3mulEEEvv
libmxnet.so:_ZN5mxnet2op12BinaryOpTuneIdE26TuneBinaryBackwardOperatorINS0_10mshadow_op4clipEEEvv
libmxnet.so:_ZN5mxnet2op12BinaryOpTuneIdE26TuneBinaryBackwardOperatorINS0_10mshadow_op4leftEEEvv
libmxnet.so:_ZN5mxnet2op12BinaryOpTuneIdE26TuneBinaryBackwardOperatorINS0_10mshadow_op4plusEEEvv
libmxnet.so:_ZN5mxnet2op12BinaryOpTuneIdE26TuneBinaryBackwardOperatorINS0_10mshadow_op4rdivEEEvv
libmxnet.so:_ZN5mxnet2op12BinaryOpTuneIdE26TuneBinaryBackwardOperatorINS0_10mshadow_op5minusEEEvv
libmxnet.so:_ZN5mxnet2op12BinaryOpTuneIdE26TuneBinaryBackwardOperatorINS0_10mshadow_op5rightEEEvv
libmxnet.so:_ZN5mxnet2op12BinaryOpTuneIdE26TuneBinaryBackwardOperatorINS0_10mshadow_op6rminusEEEvv
libmxnet.so:_ZN5mxnet2op12BinaryOpTuneIdE26TuneBinaryBackwardOperatorINS0_10mshadow_op8div_gradEEEvv
libmxnet.so:_ZN5mxnet2op12BinaryOpTuneIdE26TuneBinaryBackwardOperatorINS0_10mshadow_op8elu_gradEEEvv
libmxnet.so:_ZN5mxnet2op12BinaryOpTuneIdE26TuneBinaryBackwardOperatorINS0_10mshadow_op8mod_gradEEEvv
libmxnet.so:_ZN5mxnet2op12BinaryOpTuneIdE26TuneBinaryBackwardOperatorINS0_10mshadow_op9div_rgradEEEvv
libmxnet.so:_ZN5mxnet2op12BinaryOpTuneIdE26TuneBinaryBackwardOperatorINS0_10mshadow_op9gelu_gradEEEvv
libmxnet.so:_ZN5mxnet2op12BinaryOpTuneIdE26TuneBinaryBackwardOperatorINS0_10mshadow_op9mod_rgradEEEvv
libmxnet.so:_ZN5mxnet2op12BinaryOpTuneIdE26TuneBinaryBackwardOperatorINS0_10mshadow_op9rdiv_gradEEEvv
libmxnet.so:_ZN5mxnet2op12BinaryOpTuneIdE26TuneBinaryBackwardOperatorINS0_10mshadow_op9rmod_gradEEEvv
libmxnet.so:_ZN5mxnet2op12BinaryOpTuneIdE26TuneBinaryBackwardOperatorINS0_10mshadow_op9xelu_gradEEEvv
libmxnet.so:_ZN5mxnet2op12BinaryOpTuneIfE18TuneBinaryOperatorINS0_10mshadow_op10logical_orEEEvv
libmxnet.so:_ZN5mxnet2op12BinaryOpTuneIfE18TuneBinaryOperatorINS0_10mshadow_op10minus_signEEEvv
libmxnet.so:_ZN5mxnet2op12BinaryOpTuneIfE18TuneBinaryOperatorINS0_10mshadow_op11logical_andEEEvv
libmxnet.so:_ZN5mxnet2op12BinaryOpTuneIfE18TuneBinaryOperatorINS0_10mshadow_op11logical_xorEEEvv
libmxnet.so:_ZN5mxnet2op12BinaryOpTuneIfE18TuneBinaryOperatorINS0_10mshadow_op14smooth_l1_lossEEEvv
libmxnet.so:_ZN5mxnet2op12BinaryOpTuneIfE18TuneBinaryOperatorINS0_10mshadow_op15hypot_grad_leftEEEvv
libmxnet.so:_ZN5mxnet2op12BinaryOpTuneIfE18TuneBinaryOperatorINS0_10mshadow_op16hypot_grad_rightEEEvv
libmxnet.so:_ZN5mxnet2op12BinaryOpTuneIfE18TuneBinaryOperatorINS0_10mshadow_op2eqEEEvv
libmxnet.so:_ZN5mxnet2op12BinaryOpTuneIfE18TuneBinaryOperatorINS0_10mshadow_op2geEEEvv
libmxnet.so:_ZN5mxnet2op12BinaryOpTuneIfE18TuneBinaryOperatorINS0_10mshadow_op2gtEEEvv
libmxnet.so:_ZN5mxnet2op12BinaryOpTuneIfE18TuneBinaryOperatorINS0_10mshadow_op2leEEEvv
libmxnet.so:_ZN5mxnet2op12BinaryOpTuneIfE18TuneBinaryOperatorINS0_10mshadow_op2ltEEEvv
libmxnet.so:_ZN5mxnet2op12BinaryOpTuneIfE18TuneBinaryOperatorINS0_10mshadow_op2neEEEvv
libmxnet.so:_ZN5mxnet2op12BinaryOpTuneIfE18TuneBinaryOperatorINS0_10mshadow_op3divEEEvv
libmxnet.so:_ZN5mxnet2op12BinaryOpTuneIfE18TuneBinaryOperatorINS0_10mshadow_op3eluEEEvv
libmxnet.so:_ZN5mxnet2op12BinaryOpTuneIfE18TuneBinaryOperatorINS0_10mshadow_op3modEEEvv
libmxnet.so:_ZN5mxnet2op12BinaryOpTuneIfE18TuneBinaryOperatorINS0_10mshadow_op3mulEEEvv
libmxnet.so:_ZN5mxnet2op12BinaryOpTuneIfE18TuneBinaryOperatorINS0_10mshadow_op4clipEEEvv
libmxnet.so:_ZN5mxnet2op12BinaryOpTuneIfE18TuneBinaryOperatorINS0_10mshadow_op4leftEEEvv
libmxnet.so:_ZN5mxnet2op12BinaryOpTuneIfE18TuneBinaryOperatorINS0_10mshadow_op4plusEEEvv
libmxnet.so:_ZN5mxnet2op12BinaryOpTuneIfE18TuneBinaryOperatorINS0_10mshadow_op4rdivEEEvv
libmxnet.so:_ZN5mxnet2op12BinaryOpTuneIfE18TuneBinaryOperatorINS0_10mshadow_op4rmodEEEvv
libmxnet.so:_ZN5mxnet2op12BinaryOpTuneIfE18TuneBinaryOperatorINS0_10mshadow_op4xeluEEEvv
libmxnet.so:_ZN5mxnet2op12BinaryOpTuneIfE18TuneBinaryOperatorINS0_10mshadow_op5hypotEEEvv
libmxnet.so:_ZN5mxnet2op12BinaryOpTuneIfE18TuneBinaryOperatorINS0_10mshadow_op5minusEEEvv
libmxnet.so:_ZN5mxnet2op12BinaryOpTuneIfE18TuneBinaryOperatorINS0_10mshadow_op5powerEEEvv
libmxnet.so:_ZN5mxnet2op12BinaryOpTuneIfE18TuneBinaryOperatorINS0_10mshadow_op5rightEEEvv
libmxnet.so:_ZN5mxnet2op12BinaryOpTuneIfE18TuneBinaryOperatorINS0_10mshadow_op6rminusEEEvv
libmxnet.so:_ZN5mxnet2op12BinaryOpTuneIfE18TuneBinaryOperatorINS0_10mshadow_op6rpowerEEEvv
libmxnet.so:_ZN5mxnet2op12BinaryOpTuneIfE18TuneBinaryOperatorINS0_10mshadow_op7maximumEEEvv
libmxnet.so:_ZN5mxnet2op12BinaryOpTuneIfE18TuneBinaryOperatorINS0_10mshadow_op7minimumEEEvv
libmxnet.so:_ZN5mxnet2op12BinaryOpTuneIfE18TuneBinaryOperatorINS0_10mshadow_op8div_gradEEEvv
libmxnet.so:_ZN5mxnet2op12BinaryOpTuneIfE18TuneBinaryOperatorINS0_10mshadow_op9div_rgradEEEvv
libmxnet.so:_ZN5mxnet2op12BinaryOpTuneIfE26TuneBinaryBackwardOperatorINS0_10mshadow_op10logical_orEEEvv
libmxnet.so:_ZN5mxnet2op12BinaryOpTuneIfE26TuneBinaryBackwardOperatorINS0_10mshadow_op10minus_signEEEvv
libmxnet.so:_ZN5mxnet2op12BinaryOpTuneIfE26TuneBinaryBackwardOperatorINS0_10mshadow_op10power_gradEEEvv
libmxnet.so:_ZN5mxnet2op12BinaryOpTuneIfE26TuneBinaryBackwardOperatorINS0_10mshadow_op10prelu_gradEEEvv
libmxnet.so:_ZN5mxnet2op12BinaryOpTuneIfE26TuneBinaryBackwardOperatorINS0_10mshadow_op11logical_andEEEvv
libmxnet.so:_ZN5mxnet2op12BinaryOpTuneIfE26TuneBinaryBackwardOperatorINS0_10mshadow_op11logical_xorEEEvv
libmxnet.so:_ZN5mxnet2op12BinaryOpTuneIfE26TuneBinaryBackwardOperatorINS0_10mshadow_op11power_rgradEEEvv
libmxnet.so:_ZN5mxnet2op12BinaryOpTuneIfE26TuneBinaryBackwardOperatorINS0_10mshadow_op11rpower_gradEEEvv
libmxnet.so:_ZN5mxnet2op12BinaryOpTuneIfE26TuneBinaryBackwardOperatorINS0_10mshadow_op15hypot_grad_leftEEEvv
libmxnet.so:_ZN5mxnet2op12BinaryOpTuneIfE26TuneBinaryBackwardOperatorINS0_10mshadow_op16hypot_grad_rightEEEvv
libmxnet.so:_ZN5mxnet2op12BinaryOpTuneIfE26TuneBinaryBackwardOperatorINS0_10mshadow_op18smooth_l1_gradientEEEvv
libmxnet.so:_ZN5mxnet2op12BinaryOpTuneIfE26TuneBinaryBackwardOperatorINS0_10mshadow_op2eqEEEvv
libmxnet.so:_ZN5mxnet2op12BinaryOpTuneIfE26TuneBinaryBackwardOperatorINS0_10mshadow_op2geEEEvv
libmxnet.so:_ZN5mxnet2op12BinaryOpTuneIfE26TuneBinaryBackwardOperatorINS0_10mshadow_op2gtEEEvv
libmxnet.so:_ZN5mxnet2op12BinaryOpTuneIfE26TuneBinaryBackwardOperatorINS0_10mshadow_op2leEEEvv
libmxnet.so:_ZN5mxnet2op12BinaryOpTuneIfE26TuneBinaryBackwardOperatorINS0_10mshadow_op2ltEEEvv
libmxnet.so:_ZN5mxnet2op12BinaryOpTuneIfE26TuneBinaryBackwardOperatorINS0_10mshadow_op2neEEEvv
libmxnet.so:_ZN5mxnet2op12BinaryOpTuneIfE26TuneBinaryBackwardOperatorINS0_10mshadow_op3divEEEvv
libmxnet.so:_ZN5mxnet2op12BinaryOpTuneIfE26TuneBinaryBackwardOperatorINS0_10mshadow_op3mulEEEvv
libmxnet.so:_ZN5mxnet2op12BinaryOpTuneIfE26TuneBinaryBackwardOperatorINS0_10mshadow_op4clipEEEvv
libmxnet.so:_ZN5mxnet2op12BinaryOpTuneIfE26TuneBinaryBackwardOperatorINS0_10mshadow_op4leftEEEvv
libmxnet.so:_ZN5mxnet2op12BinaryOpTuneIfE26TuneBinaryBackwardOperatorINS0_10mshadow_op4plusEEEvv
libmxnet.so:_ZN5mxnet2op12BinaryOpTuneIfE26TuneBinaryBackwardOperatorINS0_10mshadow_op4rdivEEEvv
libmxnet.so:_ZN5mxnet2op12BinaryOpTuneIfE26TuneBinaryBackwardOperatorINS0_10mshadow_op5minusEEEvv
libmxnet.so:_ZN5mxnet2op12BinaryOpTuneIfE26TuneBinaryBackwardOperatorINS0_10mshadow_op5rightEEEvv
libmxnet.so:_ZN5mxnet2op12BinaryOpTuneIfE26TuneBinaryBackwardOperatorINS0_10mshadow_op6rminusEEEvv
libmxnet.so:_ZN5mxnet2op12BinaryOpTuneIfE26TuneBinaryBackwardOperatorINS0_10mshadow_op8div_gradEEEvv
libmxnet.so:_ZN5mxnet2op12BinaryOpTuneIfE26TuneBinaryBackwardOperatorINS0_10mshadow_op8elu_gradEEEvv
libmxnet.so:_ZN5mxnet2op12BinaryOpTuneIfE26TuneBinaryBackwardOperatorINS0_10mshadow_op8mod_gradEEEvv
libmxnet.so:_ZN5mxnet2op12BinaryOpTuneIfE26TuneBinaryBackwardOperatorINS0_10mshadow_op9div_rgradEEEvv
libmxnet.so:_ZN5mxnet2op12BinaryOpTuneIfE26TuneBinaryBackwardOperatorINS0_10mshadow_op9gelu_gradEEEvv
libmxnet.so:_ZN5mxnet2op12BinaryOpTuneIfE26TuneBinaryBackwardOperatorINS0_10mshadow_op9mod_rgradEEEvv
libmxnet.so:_ZN5mxnet2op12BinaryOpTuneIfE26TuneBinaryBackwardOperatorINS0_10mshadow_op9rdiv_gradEEEvv
libmxnet.so:_ZN5mxnet2op12BinaryOpTuneIfE26TuneBinaryBackwardOperatorINS0_10mshadow_op9rmod_gradEEEvv
libmxnet.so:_ZN5mxnet2op12BinaryOpTuneIfE26TuneBinaryBackwardOperatorINS0_10mshadow_op9xelu_gradEEEvv
libmxnet.so:_ZN5mxnet2op12BinaryOpTuneIhE18TuneBinaryOperatorINS0_10mshadow_op10logical_orEEEvv
libmxnet.so:_ZN5mxnet2op12BinaryOpTuneIhE18TuneBinaryOperatorINS0_10mshadow_op10minus_signEEEvv
libmxnet.so:_ZN5mxnet2op12BinaryOpTuneIhE18TuneBinaryOperatorINS0_10mshadow_op11logical_andEEEvv
libmxnet.so:_ZN5mxnet2op12BinaryOpTuneIhE18TuneBinaryOperatorINS0_10mshadow_op11logical_xorEEEvv
libmxnet.so:_ZN5mxnet2op12BinaryOpTuneIhE18TuneBinaryOperatorINS0_10mshadow_op14smooth_l1_lossEEEvv
libmxnet.so:_ZN5mxnet2op12BinaryOpTuneIhE18TuneBinaryOperatorINS0_10mshadow_op15hypot_grad_leftEEEvv
libmxnet.so:_ZN5mxnet2op12BinaryOpTuneIhE18TuneBinaryOperatorINS0_10mshadow_op16hypot_grad_rightEEEvv
libmxnet.so:_ZN5mxnet2op12BinaryOpTuneIhE18TuneBinaryOperatorINS0_10mshadow_op2eqEEEvv
libmxnet.so:_ZN5mxnet2op12BinaryOpTuneIhE18TuneBinaryOperatorINS0_10mshadow_op2geEEEvv
libmxnet.so:_ZN5mxnet2op12BinaryOpTuneIhE18TuneBinaryOperatorINS0_10mshadow_op2gtEEEvv
libmxnet.so:_ZN5mxnet2op12BinaryOpTuneIhE18TuneBinaryOperatorINS0_10mshadow_op2leEEEvv
libmxnet.so:_ZN5mxnet2op12BinaryOpTuneIhE18TuneBinaryOperatorINS0_10mshadow_op2ltEEEvv
libmxnet.so:_ZN5mxnet2op12BinaryOpTuneIhE18TuneBinaryOperatorINS0_10mshadow_op2neEEEvv
libmxnet.so:_ZN5mxnet2op12BinaryOpTuneIhE18TuneBinaryOperatorINS0_10mshadow_op3divEEEvv
libmxnet.so:_ZN5mxnet2op12BinaryOpTuneIhE18TuneBinaryOperatorINS0_10mshadow_op3eluEEEvv
libmxnet.so:_ZN5mxnet2op12BinaryOpTuneIhE18TuneBinaryOperatorINS0_10mshadow_op3modEEEvv
libmxnet.so:_ZN5mxnet2op12BinaryOpTuneIhE18TuneBinaryOperatorINS0_10mshadow_op3mulEEEvv
libmxnet.so:_ZN5mxnet2op12BinaryOpTuneIhE18TuneBinaryOperatorINS0_10mshadow_op4clipEEEvv
libmxnet.so:_ZN5mxnet2op12BinaryOpTuneIhE18TuneBinaryOperatorINS0_10mshadow_op4leftEEEvv
libmxnet.so:_ZN5mxnet2op12BinaryOpTuneIhE18TuneBinaryOperatorINS0_10mshadow_op4plusEEEvv
libmxnet.so:_ZN5mxnet2op12BinaryOpTuneIhE18TuneBinaryOperatorINS0_10mshadow_op4rdivEEEvv
libmxnet.so:_ZN5mxnet2op12BinaryOpTuneIhE18TuneBinaryOperatorINS0_10mshadow_op4rmodEEEvv
libmxnet.so:_ZN5mxnet2op12BinaryOpTuneIhE18TuneBinaryOperatorINS0_10mshadow_op4xeluEEEvv
libmxnet.so:_ZN5mxnet2op12BinaryOpTuneIhE18TuneBinaryOperatorINS0_10mshadow_op5hypotEEEvv
libmxnet.so:_ZN5mxnet2op12BinaryOpTuneIhE18TuneBinaryOperatorINS0_10mshadow_op5minusEEEvv
libmxnet.so:_ZN5mxnet2op12BinaryOpTuneIhE18TuneBinaryOperatorINS0_10mshadow_op5powerEEEvv
libmxnet.so:_ZN5mxnet2op12BinaryOpTuneIhE18TuneBinaryOperatorINS0_10mshadow_op5rightEEEvv
libmxnet.so:_ZN5mxnet2op12BinaryOpTuneIhE18TuneBinaryOperatorINS0_10mshadow_op6rminusEEEvv
libmxnet.so:_ZN5mxnet2op12BinaryOpTuneIhE18TuneBinaryOperatorINS0_10mshadow_op6rpowerEEEvv
libmxnet.so:_ZN5mxnet2op12BinaryOpTuneIhE18TuneBinaryOperatorINS0_10mshadow_op7maximumEEEvv
libmxnet.so:_ZN5mxnet2op12BinaryOpTuneIhE18TuneBinaryOperatorINS0_10mshadow_op7minimumEEEvv
libmxnet.so:_ZN5mxnet2op12BinaryOpTuneIhE18TuneBinaryOperatorINS0_10mshadow_op8div_gradEEEvv
libmxnet.so:_ZN5mxnet2op12BinaryOpTuneIhE18TuneBinaryOperatorINS0_10mshadow_op9div_rgradEEEvv
libmxnet.so:_ZN5mxnet2op12BinaryOpTuneIhE26TuneBinaryBackwardOperatorINS0_10mshadow_op10logical_orEEEvv
libmxnet.so:_ZN5mxnet2op12BinaryOpTuneIhE26TuneBinaryBackwardOperatorINS0_10mshadow_op10minus_signEEEvv
libmxnet.so:_ZN5mxnet2op12BinaryOpTuneIhE26TuneBinaryBackwardOperatorINS0_10mshadow_op10power_gradEEEvv
libmxnet.so:_ZN5mxnet2op12BinaryOpTuneIhE26TuneBinaryBackwardOperatorINS0_10mshadow_op10prelu_gradEEEvv
libmxnet.so:_ZN5mxnet2op12BinaryOpTuneIhE26TuneBinaryBackwardOperatorINS0_10mshadow_op11logical_andEEEvv
libmxnet.so:_ZN5mxnet2op12BinaryOpTuneIhE26TuneBinaryBackwardOperatorINS0_10mshadow_op11logical_xorEEEvv
libmxnet.so:_ZN5mxnet2op12BinaryOpTuneIhE26TuneBinaryBackwardOperatorINS0_10mshadow_op11power_rgradEEEvv
libmxnet.so:_ZN5mxnet2op12BinaryOpTuneIhE26TuneBinaryBackwardOperatorINS0_10mshadow_op11rpower_gradEEEvv
libmxnet.so:_ZN5mxnet2op12BinaryOpTuneIhE26TuneBinaryBackwardOperatorINS0_10mshadow_op15hypot_grad_leftEEEvv
libmxnet.so:_ZN5mxnet2op12BinaryOpTuneIhE26TuneBinaryBackwardOperatorINS0_10mshadow_op16hypot_grad_rightEEEvv
libmxnet.so:_ZN5mxnet2op12BinaryOpTuneIhE26TuneBinaryBackwardOperatorINS0_10mshadow_op18smooth_l1_gradientEEEvv
libmxnet.so:_ZN5mxnet2op12BinaryOpTuneIhE26TuneBinaryBackwardOperatorINS0_10mshadow_op2eqEEEvv
libmxnet.so:_ZN5mxnet2op12BinaryOpTuneIhE26TuneBinaryBackwardOperatorINS0_10mshadow_op2geEEEvv
libmxnet.so:_ZN5mxnet2op12BinaryOpTuneIhE26TuneBinaryBackwardOperatorINS0_10mshadow_op2gtEEEvv
libmxnet.so:_ZN5mxnet2op12BinaryOpTuneIhE26TuneBinaryBackwardOperatorINS0_10mshadow_op2leEEEvv
libmxnet.so:_ZN5mxnet2op12BinaryOpTuneIhE26TuneBinaryBackwardOperatorINS0_10mshadow_op2ltEEEvv
libmxnet.so:_ZN5mxnet2op12BinaryOpTuneIhE26TuneBinaryBackwardOperatorINS0_10mshadow_op2neEEEvv
libmxnet.so:_ZN5mxnet2op12BinaryOpTuneIhE26TuneBinaryBackwardOperatorINS0_10mshadow_op3divEEEvv
libmxnet.so:_ZN5mxnet2op12BinaryOpTuneIhE26TuneBinaryBackwardOperatorINS0_10mshadow_op3mulEEEvv
libmxnet.so:_ZN5mxnet2op12BinaryOpTuneIhE26TuneBinaryBackwardOperatorINS0_10mshadow_op4clipEEEvv
libmxnet.so:_ZN5mxnet2op12BinaryOpTuneIhE26TuneBinaryBackwardOperatorINS0_10mshadow_op4leftEEEvv
libmxnet.so:_ZN5mxnet2op12BinaryOpTuneIhE26TuneBinaryBackwardOperatorINS0_10mshadow_op4plusEEEvv
libmxnet.so:_ZN5mxnet2op12BinaryOpTuneIhE26TuneBinaryBackwardOperatorINS0_10mshadow_op4rdivEEEvv
libmxnet.so:_ZN5mxnet2op12BinaryOpTuneIhE26TuneBinaryBackwardOperatorINS0_10mshadow_op5minusEEEvv
libmxnet.so:_ZN5mxnet2op12BinaryOpTuneIhE26TuneBinaryBackwardOperatorINS0_10mshadow_op5rightEEEvv
libmxnet.so:_ZN5mxnet2op12BinaryOpTuneIhE26TuneBinaryBackwardOperatorINS0_10mshadow_op6rminusEEEvv
libmxnet.so:_ZN5mxnet2op12BinaryOpTuneIhE26TuneBinaryBackwardOperatorINS0_10mshadow_op8div_gradEEEvv
libmxnet.so:_ZN5mxnet2op12BinaryOpTuneIhE26TuneBinaryBackwardOperatorINS0_10mshadow_op8elu_gradEEEvv
libmxnet.so:_ZN5mxnet2op12BinaryOpTuneIhE26TuneBinaryBackwardOperatorINS0_10mshadow_op8mod_gradEEEvv
libmxnet.so:_ZN5mxnet2op12BinaryOpTuneIhE26TuneBinaryBackwardOperatorINS0_10mshadow_op9div_rgradEEEvv
libmxnet.so:_ZN5mxnet2op12BinaryOpTuneIhE26TuneBinaryBackwardOperatorINS0_10mshadow_op9gelu_gradEEEvv
libmxnet.so:_ZN5mxnet2op12BinaryOpTuneIhE26TuneBinaryBackwardOperatorINS0_10mshadow_op9mod_rgradEEEvv
libmxnet.so:_ZN5mxnet2op12BinaryOpTuneIhE26TuneBinaryBackwardOperatorINS0_10mshadow_op9rdiv_gradEEEvv
libmxnet.so:_ZN5mxnet2op12BinaryOpTuneIhE26TuneBinaryBackwardOperatorINS0_10mshadow_op9rmod_gradEEEvv
libmxnet.so:_ZN5mxnet2op12BinaryOpTuneIhE26TuneBinaryBackwardOperatorINS0_10mshadow_op9xelu_gradEEEvv
libmxnet.so:_ZN5mxnet2op12BinaryOpTuneIiE18TuneBinaryOperatorINS0_10mshadow_op10logical_orEEEvv
libmxnet.so:_ZN5mxnet2op12BinaryOpTuneIiE18TuneBinaryOperatorINS0_10mshadow_op10minus_signEEEvv
libmxnet.so:_ZN5mxnet2op12BinaryOpTuneIiE18TuneBinaryOperatorINS0_10mshadow_op11logical_andEEEvv
libmxnet.so:_ZN5mxnet2op12BinaryOpTuneIiE18TuneBinaryOperatorINS0_10mshadow_op11logical_xorEEEvv
libmxnet.so:_ZN5mxnet2op12BinaryOpTuneIiE18TuneBinaryOperatorINS0_10mshadow_op14smooth_l1_lossEEEvv
libmxnet.so:_ZN5mxnet2op12BinaryOpTuneIiE18TuneBinaryOperatorINS0_10mshadow_op15hypot_grad_leftEEEvv
libmxnet.so:_ZN5mxnet2op12BinaryOpTuneIiE18TuneBinaryOperatorINS0_10mshadow_op16hypot_grad_rightEEEvv
libmxnet.so:_ZN5mxnet2op12BinaryOpTuneIiE18TuneBinaryOperatorINS0_10mshadow_op2eqEEEvv
libmxnet.so:_ZN5mxnet2op12BinaryOpTuneIiE18TuneBinaryOperatorINS0_10mshadow_op2geEEEvv
libmxnet.so:_ZN5mxnet2op12BinaryOpTuneIiE18TuneBinaryOperatorINS0_10mshadow_op2gtEEEvv
libmxnet.so:_ZN5mxnet2op12BinaryOpTuneIiE18TuneBinaryOperatorINS0_10mshadow_op2leEEEvv
libmxnet.so:_ZN5mxnet2op12BinaryOpTuneIiE18TuneBinaryOperatorINS0_10mshadow_op2ltEEEvv
libmxnet.so:_ZN5mxnet2op12BinaryOpTuneIiE18TuneBinaryOperatorINS0_10mshadow_op2neEEEvv
libmxnet.so:_ZN5mxnet2op12BinaryOpTuneIiE18TuneBinaryOperatorINS0_10mshadow_op3divEEEvv
libmxnet.so:_ZN5mxnet2op12BinaryOpTuneIiE18TuneBinaryOperatorINS0_10mshadow_op3eluEEEvv
libmxnet.so:_ZN5mxnet2op12BinaryOpTuneIiE18TuneBinaryOperatorINS0_10mshadow_op3modEEEvv
libmxnet.so:_ZN5mxnet2op12BinaryOpTuneIiE18TuneBinaryOperatorINS0_10mshadow_op3mulEEEvv
libmxnet.so:_ZN5mxnet2op12BinaryOpTuneIiE18TuneBinaryOperatorINS0_10mshadow_op4clipEEEvv
libmxnet.so:_ZN5mxnet2op12BinaryOpTuneIiE18TuneBinaryOperatorINS0_10mshadow_op4leftEEEvv
libmxnet.so:_ZN5mxnet2op12BinaryOpTuneIiE18TuneBinaryOperatorINS0_10mshadow_op4plusEEEvv
libmxnet.so:_ZN5mxnet2op12BinaryOpTuneIiE18TuneBinaryOperatorINS0_10mshadow_op4rdivEEEvv
libmxnet.so:_ZN5mxnet2op12BinaryOpTuneIiE18TuneBinaryOperatorINS0_10mshadow_op4rmodEEEvv
libmxnet.so:_ZN5mxnet2op12BinaryOpTuneIiE18TuneBinaryOperatorINS0_10mshadow_op4xeluEEEvv
libmxnet.so:_ZN5mxnet2op12BinaryOpTuneIiE18TuneBinaryOperatorINS0_10mshadow_op5hypotEEEvv
libmxnet.so:_ZN5mxnet2op12BinaryOpTuneIiE18TuneBinaryOperatorINS0_10mshadow_op5minusEEEvv
libmxnet.so:_ZN5mxnet2op12BinaryOpTuneIiE18TuneBinaryOperatorINS0_10mshadow_op5powerEEEvv
libmxnet.so:_ZN5mxnet2op12BinaryOpTuneIiE18TuneBinaryOperatorINS0_10mshadow_op5rightEEEvv
libmxnet.so:_ZN5mxnet2op12BinaryOpTuneIiE18TuneBinaryOperatorINS0_10mshadow_op6rminusEEEvv
libmxnet.so:_ZN5mxnet2op12BinaryOpTuneIiE18TuneBinaryOperatorINS0_10mshadow_op6rpowerEEEvv
libmxnet.so:_ZN5mxnet2op12BinaryOpTuneIiE18TuneBinaryOperatorINS0_10mshadow_op7maximumEEEvv
libmxnet.so:_ZN5mxnet2op12BinaryOpTuneIiE18TuneBinaryOperatorINS0_10mshadow_op7minimumEEEvv
libmxnet.so:_ZN5mxnet2op12BinaryOpTuneIiE18TuneBinaryOperatorINS0_10mshadow_op8div_gradEEEvv
libmxnet.so:_ZN5mxnet2op12BinaryOpTuneIiE18TuneBinaryOperatorINS0_10mshadow_op9div_rgradEEEvv
libmxnet.so:_ZN5mxnet2op12BinaryOpTuneIiE26TuneBinaryBackwardOperatorINS0_10mshadow_op10logical_orEEEvv
libmxnet.so:_ZN5mxnet2op12BinaryOpTuneIiE26TuneBinaryBackwardOperatorINS0_10mshadow_op10minus_signEEEvv
libmxnet.so:_ZN5mxnet2op12BinaryOpTuneIiE26TuneBinaryBackwardOperatorINS0_10mshadow_op10power_gradEEEvv
libmxnet.so:_ZN5mxnet2op12BinaryOpTuneIiE26TuneBinaryBackwardOperatorINS0_10mshadow_op10prelu_gradEEEvv
libmxnet.so:_ZN5mxnet2op12BinaryOpTuneIiE26TuneBinaryBackwardOperatorINS0_10mshadow_op11logical_andEEEvv
libmxnet.so:_ZN5mxnet2op12BinaryOpTuneIiE26TuneBinaryBackwardOperatorINS0_10mshadow_op11logical_xorEEEvv
libmxnet.so:_ZN5mxnet2op12BinaryOpTuneIiE26TuneBinaryBackwardOperatorINS0_10mshadow_op11power_rgradEEEvv
libmxnet.so:_ZN5mxnet2op12BinaryOpTuneIiE26TuneBinaryBackwardOperatorINS0_10mshadow_op11rpower_gradEEEvv
libmxnet.so:_ZN5mxnet2op12BinaryOpTuneIiE26TuneBinaryBackwardOperatorINS0_10mshadow_op15hypot_grad_leftEEEvv
libmxnet.so:_ZN5mxnet2op12BinaryOpTuneIiE26TuneBinaryBackwardOperatorINS0_10mshadow_op16hypot_grad_rightEEEvv
libmxnet.so:_ZN5mxnet2op12BinaryOpTuneIiE26TuneBinaryBackwardOperatorINS0_10mshadow_op18smooth_l1_gradientEEEvv
libmxnet.so:_ZN5mxnet2op12BinaryOpTuneIiE26TuneBinaryBackwardOperatorINS0_10mshadow_op2eqEEEvv
libmxnet.so:_ZN5mxnet2op12BinaryOpTuneIiE26TuneBinaryBackwardOperatorINS0_10mshadow_op2geEEEvv
libmxnet.so:_ZN5mxnet2op12BinaryOpTuneIiE26TuneBinaryBackwardOperatorINS0_10mshadow_op2gtEEEvv
libmxnet.so:_ZN5mxnet2op12BinaryOpTuneIiE26TuneBinaryBackwardOperatorINS0_10mshadow_op2leEEEvv
libmxnet.so:_ZN5mxnet2op12BinaryOpTuneIiE26TuneBinaryBackwardOperatorINS0_10mshadow_op2ltEEEvv
libmxnet.so:_ZN5mxnet2op12BinaryOpTuneIiE26TuneBinaryBackwardOperatorINS0_10mshadow_op2neEEEvv
libmxnet.so:_ZN5mxnet2op12BinaryOpTuneIiE26TuneBinaryBackwardOperatorINS0_10mshadow_op3divEEEvv
libmxnet.so:_ZN5mxnet2op12BinaryOpTuneIiE26TuneBinaryBackwardOperatorINS0_10mshadow_op3mulEEEvv
libmxnet.so:_ZN5mxnet2op12BinaryOpTuneIiE26TuneBinaryBackwardOperatorINS0_10mshadow_op4clipEEEvv
libmxnet.so:_ZN5mxnet2op12BinaryOpTuneIiE26TuneBinaryBackwardOperatorINS0_10mshadow_op4leftEEEvv
libmxnet.so:_ZN5mxnet2op12BinaryOpTuneIiE26TuneBinaryBackwardOperatorINS0_10mshadow_op4plusEEEvv
libmxnet.so:_ZN5mxnet2op12BinaryOpTuneIiE26TuneBinaryBackwardOperatorINS0_10mshadow_op4rdivEEEvv
libmxnet.so:_ZN5mxnet2op12BinaryOpTuneIiE26TuneBinaryBackwardOperatorINS0_10mshadow_op5minusEEEvv
libmxnet.so:_ZN5mxnet2op12BinaryOpTuneIiE26TuneBinaryBackwardOperatorINS0_10mshadow_op5rightEEEvv
libmxnet.so:_ZN5mxnet2op12BinaryOpTuneIiE26TuneBinaryBackwardOperatorINS0_10mshadow_op6rminusEEEvv
libmxnet.so:_ZN5mxnet2op12BinaryOpTuneIiE26TuneBinaryBackwardOperatorINS0_10mshadow_op8div_gradEEEvv
libmxnet.so:_ZN5mxnet2op12BinaryOpTuneIiE26TuneBinaryBackwardOperatorINS0_10mshadow_op8elu_gradEEEvv
libmxnet.so:_ZN5mxnet2op12BinaryOpTuneIiE26TuneBinaryBackwardOperatorINS0_10mshadow_op8mod_gradEEEvv
libmxnet.so:_ZN5mxnet2op12BinaryOpTuneIiE26TuneBinaryBackwardOperatorINS0_10mshadow_op9div_rgradEEEvv
libmxnet.so:_ZN5mxnet2op12BinaryOpTuneIiE26TuneBinaryBackwardOperatorINS0_10mshadow_op9gelu_gradEEEvv
libmxnet.so:_ZN5mxnet2op12BinaryOpTuneIiE26TuneBinaryBackwardOperatorINS0_10mshadow_op9mod_rgradEEEvv
libmxnet.so:_ZN5mxnet2op12BinaryOpTuneIiE26TuneBinaryBackwardOperatorINS0_10mshadow_op9rdiv_gradEEEvv
libmxnet.so:_ZN5mxnet2op12BinaryOpTuneIiE26TuneBinaryBackwardOperatorINS0_10mshadow_op9rmod_gradEEEvv
libmxnet.so:_ZN5mxnet2op12BinaryOpTuneIiE26TuneBinaryBackwardOperatorINS0_10mshadow_op9xelu_gradEEEvv
libmxnet.so:_ZN5mxnet2op12BinaryOpTuneIlE18TuneBinaryOperatorINS0_10mshadow_op10logical_orEEEvv
libmxnet.so:_ZN5mxnet2op12BinaryOpTuneIlE18TuneBinaryOperatorINS0_10mshadow_op10minus_signEEEvv
libmxnet.so:_ZN5mxnet2op12BinaryOpTuneIlE18TuneBinaryOperatorINS0_10mshadow_op11logical_andEEEvv
libmxnet.so:_ZN5mxnet2op12BinaryOpTuneIlE18TuneBinaryOperatorINS0_10mshadow_op11logical_xorEEEvv
libmxnet.so:_ZN5mxnet2op12BinaryOpTuneIlE18TuneBinaryOperatorINS0_10mshadow_op14smooth_l1_lossEEEvv
libmxnet.so:_ZN5mxnet2op12BinaryOpTuneIlE18TuneBinaryOperatorINS0_10mshadow_op15hypot_grad_leftEEEvv
libmxnet.so:_ZN5mxnet2op12BinaryOpTuneIlE18TuneBinaryOperatorINS0_10mshadow_op16hypot_grad_rightEEEvv
libmxnet.so:_ZN5mxnet2op12BinaryOpTuneIlE18TuneBinaryOperatorINS0_10mshadow_op2eqEEEvv
libmxnet.so:_ZN5mxnet2op12BinaryOpTuneIlE18TuneBinaryOperatorINS0_10mshadow_op2geEEEvv
libmxnet.so:_ZN5mxnet2op12BinaryOpTuneIlE18TuneBinaryOperatorINS0_10mshadow_op2gtEEEvv
libmxnet.so:_ZN5mxnet2op12BinaryOpTuneIlE18TuneBinaryOperatorINS0_10mshadow_op2leEEEvv
libmxnet.so:_ZN5mxnet2op12BinaryOpTuneIlE18TuneBinaryOperatorINS0_10mshadow_op2ltEEEvv
libmxnet.so:_ZN5mxnet2op12BinaryOpTuneIlE18TuneBinaryOperatorINS0_10mshadow_op2neEEEvv
libmxnet.so:_ZN5mxnet2op12BinaryOpTuneIlE18TuneBinaryOperatorINS0_10mshadow_op3divEEEvv
libmxnet.so:_ZN5mxnet2op12BinaryOpTuneIlE18TuneBinaryOperatorINS0_10mshadow_op3eluEEEvv
libmxnet.so:_ZN5mxnet2op12BinaryOpTuneIlE18TuneBinaryOperatorINS0_10mshadow_op3modEEEvv
libmxnet.so:_ZN5mxnet2op12BinaryOpTuneIlE18TuneBinaryOperatorINS0_10mshadow_op3mulEEEvv
libmxnet.so:_ZN5mxnet2op12BinaryOpTuneIlE18TuneBinaryOperatorINS0_10mshadow_op4clipEEEvv
libmxnet.so:_ZN5mxnet2op12BinaryOpTuneIlE18TuneBinaryOperatorINS0_10mshadow_op4leftEEEvv
libmxnet.so:_ZN5mxnet2op12BinaryOpTuneIlE18TuneBinaryOperatorINS0_10mshadow_op4plusEEEvv
libmxnet.so:_ZN5mxnet2op12BinaryOpTuneIlE18TuneBinaryOperatorINS0_10mshadow_op4rdivEEEvv
libmxnet.so:_ZN5mxnet2op12BinaryOpTuneIlE18TuneBinaryOperatorINS0_10mshadow_op4rmodEEEvv
libmxnet.so:_ZN5mxnet2op12BinaryOpTuneIlE18TuneBinaryOperatorINS0_10mshadow_op4xeluEEEvv
libmxnet.so:_ZN5mxnet2op12BinaryOpTuneIlE18TuneBinaryOperatorINS0_10mshadow_op5hypotEEEvv
libmxnet.so:_ZN5mxnet2op12BinaryOpTuneIlE18TuneBinaryOperatorINS0_10mshadow_op5minusEEEvv
libmxnet.so:_ZN5mxnet2op12BinaryOpTuneIlE18TuneBinaryOperatorINS0_10mshadow_op5powerEEEvv
libmxnet.so:_ZN5mxnet2op12BinaryOpTuneIlE18TuneBinaryOperatorINS0_10mshadow_op5rightEEEvv
libmxnet.so:_ZN5mxnet2op12BinaryOpTuneIlE18TuneBinaryOperatorINS0_10mshadow_op6rminusEEEvv
libmxnet.so:_ZN5mxnet2op12BinaryOpTuneIlE18TuneBinaryOperatorINS0_10mshadow_op6rpowerEEEvv
libmxnet.so:_ZN5mxnet2op12BinaryOpTuneIlE18TuneBinaryOperatorINS0_10mshadow_op7maximumEEEvv
libmxnet.so:_ZN5mxnet2op12BinaryOpTuneIlE18TuneBinaryOperatorINS0_10mshadow_op7minimumEEEvv
libmxnet.so:_ZN5mxnet2op12BinaryOpTuneIlE18TuneBinaryOperatorINS0_10mshadow_op8div_gradEEEvv
libmxnet.so:_ZN5mxnet2op12BinaryOpTuneIlE18TuneBinaryOperatorINS0_10mshadow_op9div_rgradEEEvv
libmxnet.so:_ZN5mxnet2op12BinaryOpTuneIlE26TuneBinaryBackwardOperatorINS0_10mshadow_op10logical_orEEEvv
libmxnet.so:_ZN5mxnet2op12BinaryOpTuneIlE26TuneBinaryBackwardOperatorINS0_10mshadow_op10minus_signEEEvv
libmxnet.so:_ZN5mxnet2op12BinaryOpTuneIlE26TuneBinaryBackwardOperatorINS0_10mshadow_op10power_gradEEEvv
libmxnet.so:_ZN5mxnet2op12BinaryOpTuneIlE26TuneBinaryBackwardOperatorINS0_10mshadow_op10prelu_gradEEEvv
libmxnet.so:_ZN5mxnet2op12BinaryOpTuneIlE26TuneBinaryBackwardOperatorINS0_10mshadow_op11logical_andEEEvv
libmxnet.so:_ZN5mxnet2op12BinaryOpTuneIlE26TuneBinaryBackwardOperatorINS0_10mshadow_op11logical_xorEEEvv
libmxnet.so:_ZN5mxnet2op12BinaryOpTuneIlE26TuneBinaryBackwardOperatorINS0_10mshadow_op11power_rgradEEEvv
libmxnet.so:_ZN5mxnet2op12BinaryOpTuneIlE26TuneBinaryBackwardOperatorINS0_10mshadow_op11rpower_gradEEEvv
libmxnet.so:_ZN5mxnet2op12BinaryOpTuneIlE26TuneBinaryBackwardOperatorINS0_10mshadow_op15hypot_grad_leftEEEvv
libmxnet.so:_ZN5mxnet2op12BinaryOpTuneIlE26TuneBinaryBackwardOperatorINS0_10mshadow_op16hypot_grad_rightEEEvv
libmxnet.so:_ZN5mxnet2op12BinaryOpTuneIlE26TuneBinaryBackwardOperatorINS0_10mshadow_op18smooth_l1_gradientEEEvv
libmxnet.so:_ZN5mxnet2op12BinaryOpTuneIlE26TuneBinaryBackwardOperatorINS0_10mshadow_op2eqEEEvv
libmxnet.so:_ZN5mxnet2op12BinaryOpTuneIlE26TuneBinaryBackwardOperatorINS0_10mshadow_op2geEEEvv
libmxnet.so:_ZN5mxnet2op12BinaryOpTuneIlE26TuneBinaryBackwardOperatorINS0_10mshadow_op2gtEEEvv
libmxnet.so:_ZN5mxnet2op12BinaryOpTuneIlE26TuneBinaryBackwardOperatorINS0_10mshadow_op2leEEEvv
libmxnet.so:_ZN5mxnet2op12BinaryOpTuneIlE26TuneBinaryBackwardOperatorINS0_10mshadow_op2ltEEEvv
libmxnet.so:_ZN5mxnet2op12BinaryOpTuneIlE26TuneBinaryBackwardOperatorINS0_10mshadow_op2neEEEvv
libmxnet.so:_ZN5mxnet2op12BinaryOpTuneIlE26TuneBinaryBackwardOperatorINS0_10mshadow_op3divEEEvv
libmxnet.so:_ZN5mxnet2op12BinaryOpTuneIlE26TuneBinaryBackwardOperatorINS0_10mshadow_op3mulEEEvv
libmxnet.so:_ZN5mxnet2op12BinaryOpTuneIlE26TuneBinaryBackwardOperatorINS0_10mshadow_op4clipEEEvv
libmxnet.so:_ZN5mxnet2op12BinaryOpTuneIlE26TuneBinaryBackwardOperatorINS0_10mshadow_op4leftEEEvv
libmxnet.so:_ZN5mxnet2op12BinaryOpTuneIlE26TuneBinaryBackwardOperatorINS0_10mshadow_op4plusEEEvv
libmxnet.so:_ZN5mxnet2op12BinaryOpTuneIlE26TuneBinaryBackwardOperatorINS0_10mshadow_op4rdivEEEvv
libmxnet.so:_ZN5mxnet2op12BinaryOpTuneIlE26TuneBinaryBackwardOperatorINS0_10mshadow_op5minusEEEvv
libmxnet.so:_ZN5mxnet2op12BinaryOpTuneIlE26TuneBinaryBackwardOperatorINS0_10mshadow_op5rightEEEvv
libmxnet.so:_ZN5mxnet2op12BinaryOpTuneIlE26TuneBinaryBackwardOperatorINS0_10mshadow_op6rminusEEEvv
libmxnet.so:_ZN5mxnet2op12BinaryOpTuneIlE26TuneBinaryBackwardOperatorINS0_10mshadow_op8div_gradEEEvv
libmxnet.so:_ZN5mxnet2op12BinaryOpTuneIlE26TuneBinaryBackwardOperatorINS0_10mshadow_op8elu_gradEEEvv
libmxnet.so:_ZN5mxnet2op12BinaryOpTuneIlE26TuneBinaryBackwardOperatorINS0_10mshadow_op8mod_gradEEEvv
libmxnet.so:_ZN5mxnet2op12BinaryOpTuneIlE26TuneBinaryBackwardOperatorINS0_10mshadow_op9div_rgradEEEvv
libmxnet.so:_ZN5mxnet2op12BinaryOpTuneIlE26TuneBinaryBackwardOperatorINS0_10mshadow_op9gelu_gradEEEvv
libmxnet.so:_ZN5mxnet2op12BinaryOpTuneIlE26TuneBinaryBackwardOperatorINS0_10mshadow_op9mod_rgradEEEvv
libmxnet.so:_ZN5mxnet2op12BinaryOpTuneIlE26TuneBinaryBackwardOperatorINS0_10mshadow_op9rdiv_gradEEEvv
libmxnet.so:_ZN5mxnet2op12BinaryOpTuneIlE26TuneBinaryBackwardOperatorINS0_10mshadow_op9rmod_gradEEEvv
libmxnet.so:_ZN5mxnet2op12BinaryOpTuneIlE26TuneBinaryBackwardOperatorINS0_10mshadow_op9xelu_gradEEEvv
libmxnet.so:_ZN5mxnet2op12CheckSameIdxIN7mshadow3cpuEEEvRKNS_9OpContextERKNS_5TBlobES9_
libmxnet.so:_ZN5mxnet2op12DotBackward_IN7mshadow3cpuEEEvRKN4nnvm9NodeAttrsERKNS_9OpContextERKSt6vectorINS_5TBlobESaISC_EERKSB_INS_9OpReqTypeESaISH_EESG_
libmxnet.so:_ZN5mxnet2op12DotForwardExIN7mshadow3cpuEEEvRKN4nnvm9NodeAttrsERKNS_9OpContextERKSt6vectorINS_7NDArrayESaISC_EERKSB_INS_9OpReqTypeESaISH_EESG_
libmxnet.so:_ZN5mxnet2op12DropoutParam11__MANAGER__Ev
libmxnet.so:_ZN5mxnet2op12ElemwiseTypeILi1ELi1EEEbRKN4nnvm9NodeAttrsEPSt6vectorIiSaIiEES9_
libmxnet.so:_ZN5mxnet2op12ElemwiseTypeILi1ELi2EEEbRKN4nnvm9NodeAttrsEPSt6vectorIiSaIiEES9_
libmxnet.so:_ZN5mxnet2op12ElemwiseTypeILi2ELi1EEEbRKN4nnvm9NodeAttrsEPSt6vectorIiSaIiEES9_
libmxnet.so:_ZN5mxnet2op12ElemwiseTypeILi2ELi2EEEbRKN4nnvm9NodeAttrsEPSt6vectorIiSaIiEES9_
libmxnet.so:_ZN5mxnet2op12ElemwiseTypeILi3ELi1EEEbRKN4nnvm9NodeAttrsEPSt6vectorIiSaIiEES9_
libmxnet.so:_ZN5mxnet2op12ElemwiseTypeILi3ELi3EEEbRKN4nnvm9NodeAttrsEPSt6vectorIiSaIiEES9_
libmxnet.so:_ZN5mxnet2op12ElemwiseTypeILi4ELi1EEEbRKN4nnvm9NodeAttrsEPSt6vectorIiSaIiEES9_
libmxnet.so:_ZN5mxnet2op12ElemwiseTypeILi5ELi1EEEbRKN4nnvm9NodeAttrsEPSt6vectorIiSaIiEES9_
libmxnet.so:_ZN5mxnet2op12ElemwiseTypeILin1ELi1EEEbRKN4nnvm9NodeAttrsEPSt6vectorIiSaIiEES9_
libmxnet.so:_ZN5mxnet2op12ElemwiseTypeILin1ELin1EEEbRKN4nnvm9NodeAttrsEPSt6vectorIiSaIiEES9_
libmxnet.so:_ZN5mxnet2op12FlattenShapeERKN4nnvm9NodeAttrsEPSt6vectorINS_6TShapeESaIS6_EES9_
libmxnet.so:_ZN5mxnet2op12ForeachParam11__MANAGER__Ev
libmxnet.so:_ZN5mxnet2op12FtrlUpdateExIN7mshadow3cpuEEEvRKN4nnvm9NodeAttrsERKNS_9OpContextERKSt6vectorINS_7NDArrayESaISC_EERKSB_INS_9OpReqTypeESaISH_EESG_
libmxnet.so:_ZN5mxnet2op12GatherNDTypeERKN4nnvm9NodeAttrsEPSt6vectorIiSaIiEES8_
libmxnet.so:_ZN5mxnet2op12InitEyeShapeINS0_8EyeParamEEEbRKN4nnvm9NodeAttrsEPSt6vectorINS_6TShapeESaIS8_EESB_
libmxnet.so:_ZN5mxnet2op12InverseShapeERKN4nnvm9NodeAttrsEPSt6vectorINS_6TShapeESaIS6_EES9_
libmxnet.so:_ZN5mxnet2op12LaOpBackwardIN7mshadow3cpuELi1ELi2ELi1ELi1ENS0_8copydiagEEEvRKN4nnvm9NodeAttrsERKNS_9OpContextERKSt6vectorINS_5TBlobESaISD_EERKSC_INS_9OpReqTypeESaISI_EESH_
libmxnet.so:_ZN5mxnet2op12LaOpBackwardIN7mshadow3cpuELi1ELi2ELi1ELi1ENS0_9copytrianEEEvRKN4nnvm9NodeAttrsERKNS_9OpContextERKSt6vectorINS_5TBlobESaISD_EERKSC_INS_9OpReqTypeESaISI_EESH_
libmxnet.so:_ZN5mxnet2op12LaOpBackwardIN7mshadow3cpuELi2ELi1ELi1ELi1ENS0_8copydiagEEEvRKN4nnvm9NodeAttrsERKNS_9OpContextERKSt6vectorINS_5TBlobESaISD_EERKSC_INS_9OpReqTypeESaISI_EESH_
libmxnet.so:_ZN5mxnet2op12LaOpBackwardIN7mshadow3cpuELi2ELi1ELi1ELi1ENS0_9copytrianEEEvRKN4nnvm9NodeAttrsERKNS_9OpContextERKSt6vectorINS_5TBlobESaISD_EERKSC_INS_9OpReqTypeESaISI_EESH_
libmxnet.so:_ZN5mxnet2op12LaOpBackwardIN7mshadow3cpuELi2ELi2ELi2ELi1ENS0_13syrk_backwardEEEvRKN4nnvm9NodeAttrsERKNS_9OpContextERKSt6vectorINS_5TBlobESaISD_EERKSC_INS_9OpReqTypeESaISI_EESH_
libmxnet.so:_ZN5mxnet2op12LaOpBackwardIN7mshadow3cpuELi2ELi2ELi2ELi1ENS0_14potrf_backwardEEEvRKN4nnvm9NodeAttrsERKNS_9OpContextERKSt6vectorINS_5TBlobESaISD_EERKSC_INS_9OpReqTypeESaISI_EESH_
libmxnet.so:_ZN5mxnet2op12LaOpBackwardIN7mshadow3cpuELi2ELi2ELi2ELi1ENS0_16inverse_backwardEEEvRKN4nnvm9NodeAttrsERKNS_9OpContextERKSt6vectorINS_5TBlobESaISD_EERKSC_INS_9OpReqTypeESaISI_EESH_
libmxnet.so:_ZN5mxnet2op12LaOpBackwardIN7mshadow3cpuELi2ELi2ELi2ELi1ENS0_19sumlogdiag_backwardEEEvRKN4nnvm9NodeAttrsERKNS_9OpContextERKSt6vectorINS_5TBlobESaISD_EERKSC_INS_9OpReqTypeESaISI_EESH_
libmxnet.so:_ZN5mxnet2op12LaOpBackwardIN7mshadow3cpuELi2ELi2ELi3ELi1ENS0_14potri_backwardEEEvRKN4nnvm9NodeAttrsERKNS_9OpContextERKSt6vectorINS_5TBlobESaISD_EERKSC_INS_9OpReqTypeESaISI_EESH_
libmxnet.so:_ZN5mxnet2op12LaOpBackwardIN7mshadow3cpuELi2ELi2ELi3ELi2ENS0_13trmm_backwardEEEvRKN4nnvm9NodeAttrsERKNS_9OpContextERKSt6vectorINS_5TBlobESaISD_EERKSC_INS_9OpReqTypeESaISI_EESH_
libmxnet.so:_ZN5mxnet2op12LaOpBackwardIN7mshadow3cpuELi2ELi2ELi4ELi1ENS0_14gelqf_backwardEEEvRKN4nnvm9NodeAttrsERKNS_9OpContextERKSt6vectorINS_5TBlobESaISD_EERKSC_INS_9OpReqTypeESaISI_EESH_
libmxnet.so:_ZN5mxnet2op12LaOpBackwardIN7mshadow3cpuELi2ELi2ELi4ELi2ENS0_13trsm_backwardEEEvRKN4nnvm9NodeAttrsERKNS_9OpContextERKSt6vectorINS_5TBlobESaISD_EERKSC_INS_9OpReqTypeESaISI_EESH_
libmxnet.so:_ZN5mxnet2op12LaTrianParam11__MANAGER__Ev
libmxnet.so:_ZN5mxnet2op12MP_InferTypeILi2ELi1ELi3EEEbRKN4nnvm9NodeAttrsEPSt6vectorIiSaIiEES9_
libmxnet.so:_ZN5mxnet2op12MP_InferTypeILi2ELi1ELi4EEEbRKN4nnvm9NodeAttrsEPSt6vectorIiSaIiEES9_
libmxnet.so:_ZN5mxnet2op12MP_SGDUpdateIN7mshadow3cpuEEEvRKN4nnvm9NodeAttrsERKNS_9OpContextERKSt6vectorINS_5TBlobESaISC_EERKSB_INS_9OpReqTypeESaISH_EESG_
libmxnet.so:_ZN5mxnet2op12MomentsParam11__MANAGER__Ev
libmxnet.so:_ZN5mxnet2op12MomentsShapeERKN4nnvm9NodeAttrsEPSt6vectorINS_6TShapeESaIS6_EES9_
libmxnet.so:_ZN5mxnet2op12NAGMomUpdateIN7mshadow3cpuEEEvRKN4nnvm9NodeAttrsERKNS_9OpContextERKSt6vectorINS_5TBlobESaISC_EERKSB_INS_9OpReqTypeESaISH_EESG_
libmxnet.so:_ZN5mxnet2op12NNZComputeExIN7mshadow3cpuEEEvRKN4nnvm9NodeAttrsERKNS_9OpContextERKSt6vectorINS_7NDArrayESaISC_EERKSB_INS_9OpReqTypeESaISH_EESG_
libmxnet.so:_ZN5mxnet2op12OneHotOpTypeERKN4nnvm9NodeAttrsEPSt6vectorIiSaIiEES8_
libmxnet.so:_ZN5mxnet2op12OperatorTuneIN7mshadow4half6half_tEE13GetTuningListB5cxx11Ev
libmxnet.so:_ZN5mxnet2op12OperatorTuneIaE13GetTuningListB5cxx11Ev
libmxnet.so:_ZN5mxnet2op12OperatorTuneIdE13GetTuningListB5cxx11Ev
libmxnet.so:_ZN5mxnet2op12OperatorTuneIfE13GetTuningListB5cxx11Ev
libmxnet.so:_ZN5mxnet2op12OperatorTuneIhE13GetTuningListB5cxx11Ev
libmxnet.so:_ZN5mxnet2op12OperatorTuneIiE13GetTuningListB5cxx11Ev
libmxnet.so:_ZN5mxnet2op12OperatorTuneIlE13GetTuningListB5cxx11Ev
libmxnet.so:_ZN5mxnet2op12PoolingParam11__MANAGER__Ev
libmxnet.so:_ZN5mxnet2op12QuantizeTypeERKN4nnvm9NodeAttrsEPSt6vectorIiSaIiEES8_
libmxnet.so:_ZN5mxnet2op12RMSPropParam11__MANAGER__Ev
libmxnet.so:_ZN5mxnet2op12RangeComputeIN7mshadow3cpuEEEvRKN4nnvm9NodeAttrsERKNS_9OpContextERKSt6vectorINS_5TBlobESaISC_EERKSB_INS_9OpReqTypeESaISH_EESG_
libmxnet.so:_ZN5mxnet2op12RavelForwardIN7mshadow3cpuEEEvRKN4nnvm9NodeAttrsERKNS_9OpContextERKSt6vectorINS_5TBlobESaISC_EERKSB_INS_9OpReqTypeESaISH_EESG_
libmxnet.so:_ZN5mxnet2op12RavelOpShapeERKN4nnvm9NodeAttrsEPSt6vectorINS_6TShapeESaIS6_EES9_
libmxnet.so:_ZN5mxnet2op12RepeatOpTypeERKN4nnvm9NodeAttrsEPSt6vectorIiSaIiEES8_
libmxnet.so:_ZN5mxnet2op12ReshapeParam11__MANAGER__Ev
libmxnet.so:_ZN5mxnet2op12ReshapeShapeERKN4nnvm9NodeAttrsEPSt6vectorINS_6TShapeESaIS6_EES9_
libmxnet.so:_ZN5mxnet2op12ReverseParam11__MANAGER__Ev
libmxnet.so:_ZN5mxnet2op12SGDMomUpdateIN7mshadow3cpuEEEvRKN4nnvm9NodeAttrsERKNS_9OpContextERKSt6vectorINS_5TBlobESaISC_EERKSB_INS_9OpReqTypeESaISH_EESG_
libmxnet.so:_ZN5mxnet2op12SampleOpTypeINS0_16SampleGammaParamEEEbRKN4nnvm9NodeAttrsEPSt6vectorIiSaIiEESA_
libmxnet.so:_ZN5mxnet2op12SampleOpTypeINS0_17SampleNormalParamEEEbRKN4nnvm9NodeAttrsEPSt6vectorIiSaIiEESA_
libmxnet.so:_ZN5mxnet2op12SampleOpTypeINS0_18SamplePoissonParamEEEbRKN4nnvm9NodeAttrsEPSt6vectorIiSaIiEESA_
libmxnet.so:_ZN5mxnet2op12SampleOpTypeINS0_18SampleRandIntParamEEEbRKN4nnvm9NodeAttrsEPSt6vectorIiSaIiEESA_
libmxnet.so:_ZN5mxnet2op12SampleOpTypeINS0_18SampleUniformParamEEEbRKN4nnvm9NodeAttrsEPSt6vectorIiSaIiEESA_
libmxnet.so:_ZN5mxnet2op12SampleOpTypeINS0_22SampleExponentialParamEEEbRKN4nnvm9NodeAttrsEPSt6vectorIiSaIiEESA_
libmxnet.so:_ZN5mxnet2op12SampleOpTypeINS0_22SampleNegBinomialParamEEEbRKN4nnvm9NodeAttrsEPSt6vectorIiSaIiEESA_
libmxnet.so:_ZN5mxnet2op12SampleOpTypeINS0_25SampleGenNegBinomialParamEEEbRKN4nnvm9NodeAttrsEPSt6vectorIiSaIiEESA_
libmxnet.so:_ZN5mxnet2op12SignSGDParam11__MANAGER__Ev
libmxnet.so:_ZN5mxnet2op12SignumUpdateIN7mshadow3cpuEEEvRKN4nnvm9NodeAttrsERKNS_9OpContextERKSt6vectorINS_5TBlobESaISC_EERKSB_INS_9OpReqTypeESaISH_EESG_
libmxnet.so:_ZN5mxnet2op12SliceOpShapeERKN4nnvm9NodeAttrsEPSt6vectorINS_6TShapeESaIS6_EES9_
libmxnet.so:_ZN5mxnet2op12SoftmaxParam11__MANAGER__Ev
libmxnet.so:_ZN5mxnet2op12SplitOpShapeERKN4nnvm9NodeAttrsEPSt6vectorINS_6TShapeESaIS6_EES9_
libmxnet.so:_ZN5mxnet2op12SqueezeParam11__MANAGER__Ev
libmxnet.so:_ZN5mxnet2op12SqueezeShapeERKN4nnvm9NodeAttrsEPSt6vectorINS_6TShapeESaIS6_EES9_
libmxnet.so:_ZN5mxnet2op12StackOpShapeERKN4nnvm9NodeAttrsEPSt6vectorINS_6TShapeESaIS6_EES9_
libmxnet.so:_ZN5mxnet2op12WhereOpShapeERKN4nnvm9NodeAttrsEPSt6vectorINS_6TShapeESaIS6_EES9_
libmxnet.so:_ZN5mxnet2op12is_shape_udfERKNS_6TShapeE
libmxnet.so:_ZN5mxnet2op12is_stype_udfERKi
libmxnet.so:_ZN5mxnet2op13BatchDotShapeERKN4nnvm9NodeAttrsEPSt6vectorINS_6TShapeESaIS6_EES9_
libmxnet.so:_ZN5mxnet2op13BatchNormGradERKSt10shared_ptrIN4nnvm4NodeEERKSt6vectorINS2_9NodeEntryESaIS8_EE
libmxnet.so:_ZN5mxnet2op13BoxNMSForwardIN7mshadow3cpuEEEvRKN4nnvm9NodeAttrsERKNS_9OpContextERKSt6vectorINS_5TBlobESaISC_EERKSB_INS_9OpReqTypeESaISH_EESG_
libmxnet.so:_ZN5mxnet2op13BuildSubgraphEON4nnvm5GraphE
libmxnet.so:_ZN5mxnet2op13CTCLossOpTypeERKN4nnvm9NodeAttrsEPSt6vectorIiSaIiEES8_
libmxnet.so:_ZN5mxnet2op13ConcatComputeIN7mshadow3cpuEEEvRKN4nnvm9NodeAttrsERKNS_9OpContextERKSt6vectorINS_5TBlobESaISC_EERKSB_INS_9OpReqTypeESaISH_EESG_
libmxnet.so:_ZN5mxnet2op13DiagOpForwardIN7mshadow3cpuEEEvRKN4nnvm9NodeAttrsERKNS_9OpContextERKSt6vectorINS_5TBlobESaISC_EERKSB_INS_9OpReqTypeESaISH_EESG_
libmxnet.so:_ZN5mxnet2op13DotBackwardExIN7mshadow3cpuEEEvRKN4nnvm9NodeAttrsERKNS_9OpContextERKSt6vectorINS_7NDArrayESaISC_EERKSB_INS_9OpReqTypeESaISH_EESG_
libmxnet.so:_ZN5mxnet2op13ElemwiseShapeILi1ELi1EEEbRKN4nnvm9NodeAttrsEPSt6vectorINS_6TShapeESaIS7_EESA_
libmxnet.so:_ZN5mxnet2op13ElemwiseShapeILi2ELi1EEEbRKN4nnvm9NodeAttrsEPSt6vectorINS_6TShapeESaIS7_EESA_
libmxnet.so:_ZN5mxnet2op13ElemwiseShapeILi3ELi1EEEbRKN4nnvm9NodeAttrsEPSt6vectorINS_6TShapeESaIS7_EESA_
libmxnet.so:_ZN5mxnet2op13ElemwiseShapeILi4ELi1EEEbRKN4nnvm9NodeAttrsEPSt6vectorINS_6TShapeESaIS7_EESA_
libmxnet.so:_ZN5mxnet2op13ElemwiseShapeILi5ELi1EEEbRKN4nnvm9NodeAttrsEPSt6vectorINS_6TShapeESaIS7_EESA_
libmxnet.so:_ZN5mxnet2op13ElemwiseShapeILin1ELi1EEEbRKN4nnvm9NodeAttrsEPSt6vectorINS_6TShapeESaIS7_EESA_
libmxnet.so:_ZN5mxnet2op13GatherNDShapeERKN4nnvm9NodeAttrsEPSt6vectorINS_6TShapeESaIS6_EES9_
libmxnet.so:_ZN5mxnet2op13GetNumOutputsERKNS0_12PoolingParamE
libmxnet.so:_ZN5mxnet2op13LaLQFactShapeERKN4nnvm9NodeAttrsEPSt6vectorINS_6TShapeESaIS6_EES9_
libmxnet.so:_ZN5mxnet2op13LaOpForwSyevdIN7mshadow3cpuENS0_5syevdEEEvRKN4nnvm9NodeAttrsERKNS_9OpContextERKSt6vectorINS_5TBlobESaISD_EERKSC_INS_9OpReqTypeESaISI_EESH_
libmxnet.so:_ZN5mxnet2op13LaReduceShapeILi2EEEbRKN4nnvm9NodeAttrsEPSt6vectorINS_6TShapeESaIS7_EESA_
libmxnet.so:_ZN5mxnet2op13LinspaceParam11__MANAGER__Ev
libmxnet.so:_ZN5mxnet2op13LinspaceShapeERKN4nnvm9NodeAttrsEPSt6vectorINS_6TShapeESaIS6_EES9_
libmxnet.so:_ZN5mxnet2op13LpNormComputeIN7mshadow3cpuEEEvRKN4nnvm9NodeAttrsERKNS_9OpContextERKSt6vectorINS_5TBlobESaISC_EERKSB_INS_9OpReqTypeESaISH_EESG_
libmxnet.so:_ZN5mxnet2op13MakeLossParam11__MANAGER__Ev
libmxnet.so:_ZN5mxnet2op13MatchingShapeERKN4nnvm9NodeAttrsEPSt6vectorINS_6TShapeESaIS6_EES9_
libmxnet.so:_ZN5mxnet2op13MultiSGDParam11__MANAGER__Ev
libmxnet.so:_ZN5mxnet2op13MultiSGDShapeINS0_13MultiSGDParamELi2EEEbRKN4nnvm9NodeAttrsEPSt6vectorINS_6TShapeESaIS8_EESB_
libmxnet.so:_ZN5mxnet2op13MultiSGDShapeINS0_13MultiSGDParamELi3EEEbRKN4nnvm9NodeAttrsEPSt6vectorINS_6TShapeESaIS8_EESB_
libmxnet.so:_ZN5mxnet2op13MultiSGDShapeINS0_16MultiSGDMomParamELi3EEEbRKN4nnvm9NodeAttrsEPSt6vectorINS_6TShapeESaIS8_EESB_
libmxnet.so:_ZN5mxnet2op13MultiSGDShapeINS0_16MultiSGDMomParamELi4EEEbRKN4nnvm9NodeAttrsEPSt6vectorINS_6TShapeESaIS8_EESB_
libmxnet.so:_ZN5mxnet2op13NativeOpParam11__MANAGER__Ev
libmxnet.so:_ZN5mxnet2op13OfflineParamsEOSt6vectorIN4nnvm9NodeEntryESaIS3_EERKSt13unordered_setINSt7__cxx1112basic_stringIcSt11char_traitsIcESaIcEEESt4hashISD_ESt8equal_toISD_ESaISD_EE
libmxnet.so:_ZN5mxnet2op13OneHotOpShapeERKN4nnvm9NodeAttrsEPSt6vectorINS_6TShapeESaIS6_EES9_
libmxnet.so:_ZN5mxnet2op13PickOpForwardIN7mshadow3cpuEEEvRKN4nnvm9NodeAttrsERKNS_9OpContextERKSt6vectorINS_5TBlobESaISC_EERKSB_INS_9OpReqTypeESaISH_EESG_
libmxnet.so:_ZN5mxnet2op13ProposalParam11__MANAGER__Ev
libmxnet.so:_ZN5mxnet2op13QuantizeGraphEON4nnvm5GraphE
libmxnet.so:_ZN5mxnet2op13QuantizeParam11__MANAGER__Ev
libmxnet.so:_ZN5mxnet2op13QuantizeShapeERKN4nnvm9NodeAttrsEPSt6vectorINS_6TShapeESaIS6_EES9_
libmxnet.so:_ZN5mxnet2op13RMSPropUpdateIN7mshadow3cpuEEEvRKN4nnvm9NodeAttrsERKNS_9OpContextERKSt6vectorINS_5TBlobESaISC_EERKSB_INS_9OpReqTypeESaISH_EESG_
libmxnet.so:_ZN5mxnet2op13ROIAlignParam11__MANAGER__Ev
libmxnet.so:_ZN5mxnet2op13RemoveAmpCastEON4nnvm5GraphE
libmxnet.so:_ZN5mxnet2op13RepeatOpShapeERKN4nnvm9NodeAttrsEPSt6vectorINS_6TShapeESaIS6_EES9_
libmxnet.so:_ZN5mxnet2op13ScatterNDTypeERKN4nnvm9NodeAttrsEPSt6vectorIiSaIiEES8_
libmxnet.so:_ZN5mxnet2op13SignSGDUpdateIN7mshadow3cpuEEEvRKN4nnvm9NodeAttrsERKNS_9OpContextERKSt6vectorINS_5TBlobESaISC_EERKSB_INS_9OpReqTypeESaISH_EESG_
libmxnet.so:_ZN5mxnet2op13SwapAxisParam11__MANAGER__Ev
libmxnet.so:_ZN5mxnet2op13TakeOpForwardIN7mshadow3cpuEEEvRKN4nnvm9NodeAttrsERKNS_9OpContextERKSt6vectorINS_5TBlobESaISC_EERKSB_INS_9OpReqTypeESaISH_EESG_
libmxnet.so:_ZN5mxnet2op13TileOpForwardIN7mshadow3cpuEEEvRKN4nnvm9NodeAttrsERKNS_9OpContextERKSt6vectorINS_5TBlobESaISC_EERKSB_INS_9OpReqTypeESaISH_EESG_
libmxnet.so:_ZN5mxnet2op13TopKBackward_IN7mshadow3cpuEEEvRKN4nnvm9NodeAttrsERKNS_9OpContextERKSt6vectorINS_5TBlobESaISC_EERKSB_INS_9OpReqTypeESaISH_EESG_
libmxnet.so:_ZN5mxnet2op14AMPCastComputeIN7mshadow3cpuEEEvRKN4nnvm9NodeAttrsERKNS_9OpContextERKSt6vectorINS_5TBlobESaISC_EERKSB_INS_9OpReqTypeESaISH_EESG_
libmxnet.so:_ZN5mxnet2op14AllFiniteParam11__MANAGER__Ev
libmxnet.so:_ZN5mxnet2op14BatchNormParam11__MANAGER__Ev
libmxnet.so:_ZN5mxnet2op14BinaryScalarOp14LogicComputeExIN7mshadow3cpuENS0_10mshadow_op2eqEEEvRKN4nnvm9NodeAttrsERKNS_9OpContextERKSt6vectorINS_7NDArrayESaISF_EERKSE_INS_9OpReqTypeESaISK_EESJ_
libmxnet.so:_ZN5mxnet2op14BinaryScalarOp14LogicComputeExIN7mshadow3cpuENS0_10mshadow_op2geEEEvRKN4nnvm9NodeAttrsERKNS_9OpContextERKSt6vectorINS_7NDArrayESaISF_EERKSE_INS_9OpReqTypeESaISK_EESJ_
libmxnet.so:_ZN5mxnet2op14BinaryScalarOp14LogicComputeExIN7mshadow3cpuENS0_10mshadow_op2gtEEEvRKN4nnvm9NodeAttrsERKNS_9OpContextERKSt6vectorINS_7NDArrayESaISF_EERKSE_INS_9OpReqTypeESaISK_EESJ_
libmxnet.so:_ZN5mxnet2op14BinaryScalarOp14LogicComputeExIN7mshadow3cpuENS0_10mshadow_op2leEEEvRKN4nnvm9NodeAttrsERKNS_9OpContextERKSt6vectorINS_7NDArrayESaISF_EERKSE_INS_9OpReqTypeESaISK_EESJ_
libmxnet.so:_ZN5mxnet2op14BinaryScalarOp14LogicComputeExIN7mshadow3cpuENS0_10mshadow_op2ltEEEvRKN4nnvm9NodeAttrsERKNS_9OpContextERKSt6vectorINS_7NDArrayESaISF_EERKSE_INS_9OpReqTypeESaISK_EESJ_
libmxnet.so:_ZN5mxnet2op14BinaryScalarOp14LogicComputeExIN7mshadow3cpuENS0_10mshadow_op2neEEEvRKN4nnvm9NodeAttrsERKNS_9OpContextERKSt6vectorINS_7NDArrayESaISF_EERKSE_INS_9OpReqTypeESaISK_EESJ_
libmxnet.so:_ZN5mxnet2op14BinaryScalarOp7ComputeIN7mshadow3cpuENS0_10mshadow_op10logical_orEEEvRKN4nnvm9NodeAttrsERKNS_9OpContextERKSt6vectorINS_5TBlobESaISF_EERKSE_INS_9OpReqTypeESaISK_EESJ_
libmxnet.so:_ZN5mxnet2op14BinaryScalarOp7ComputeIN7mshadow3cpuENS0_10mshadow_op11logical_andEEEvRKN4nnvm9NodeAttrsERKNS_9OpContextERKSt6vectorINS_5TBlobESaISF_EERKSE_INS_9OpReqTypeESaISK_EESJ_
libmxnet.so:_ZN5mxnet2op14BinaryScalarOp7ComputeIN7mshadow3cpuENS0_10mshadow_op11logical_xorEEEvRKN4nnvm9NodeAttrsERKNS_9OpContextERKSt6vectorINS_5TBlobESaISF_EERKSE_INS_9OpReqTypeESaISK_EESJ_
libmxnet.so:_ZN5mxnet2op14BinaryScalarOp7ComputeIN7mshadow3cpuENS0_10mshadow_op14smooth_l1_lossEEEvRKN4nnvm9NodeAttrsERKNS_9OpContextERKSt6vectorINS_5TBlobESaISF_EERKSE_INS_9OpReqTypeESaISK_EESJ_
libmxnet.so:_ZN5mxnet2op14BinaryScalarOp7ComputeIN7mshadow3cpuENS0_10mshadow_op2eqEEEvRKN4nnvm9NodeAttrsERKNS_9OpContextERKSt6vectorINS_5TBlobESaISF_EERKSE_INS_9OpReqTypeESaISK_EESJ_
libmxnet.so:_ZN5mxnet2op14BinaryScalarOp7ComputeIN7mshadow3cpuENS0_10mshadow_op2geEEEvRKN4nnvm9NodeAttrsERKNS_9OpContextERKSt6vectorINS_5TBlobESaISF_EERKSE_INS_9OpReqTypeESaISK_EESJ_
libmxnet.so:_ZN5mxnet2op14BinaryScalarOp7ComputeIN7mshadow3cpuENS0_10mshadow_op2gtEEEvRKN4nnvm9NodeAttrsERKNS_9OpContextERKSt6vectorINS_5TBlobESaISF_EERKSE_INS_9OpReqTypeESaISK_EESJ_
libmxnet.so:_ZN5mxnet2op14BinaryScalarOp7ComputeIN7mshadow3cpuENS0_10mshadow_op2leEEEvRKN4nnvm9NodeAttrsERKNS_9OpContextERKSt6vectorINS_5TBlobESaISF_EERKSE_INS_9OpReqTypeESaISK_EESJ_
libmxnet.so:_ZN5mxnet2op14BinaryScalarOp7ComputeIN7mshadow3cpuENS0_10mshadow_op2ltEEEvRKN4nnvm9NodeAttrsERKNS_9OpContextERKSt6vectorINS_5TBlobESaISF_EERKSE_INS_9OpReqTypeESaISK_EESJ_
libmxnet.so:_ZN5mxnet2op14BinaryScalarOp7ComputeIN7mshadow3cpuENS0_10mshadow_op2neEEEvRKN4nnvm9NodeAttrsERKNS_9OpContextERKSt6vectorINS_5TBlobESaISF_EERKSE_INS_9OpReqTypeESaISK_EESJ_
libmxnet.so:_ZN5mxnet2op14BinaryScalarOp7ComputeIN7mshadow3cpuENS0_10mshadow_op3divEEEvRKN4nnvm9NodeAttrsERKNS_9OpContextERKSt6vectorINS_5TBlobESaISF_EERKSE_INS_9OpReqTypeESaISK_EESJ_
libmxnet.so:_ZN5mxnet2op14BinaryScalarOp7ComputeIN7mshadow3cpuENS0_10mshadow_op3modEEEvRKN4nnvm9NodeAttrsERKNS_9OpContextERKSt6vectorINS_5TBlobESaISF_EERKSE_INS_9OpReqTypeESaISK_EESJ_
libmxnet.so:_ZN5mxnet2op14BinaryScalarOp7ComputeIN7mshadow3cpuENS0_10mshadow_op3mulEEEvRKN4nnvm9NodeAttrsERKNS_9OpContextERKSt6vectorINS_5TBlobESaISF_EERKSE_INS_9OpReqTypeESaISK_EESJ_
libmxnet.so:_ZN5mxnet2op14BinaryScalarOp7ComputeIN7mshadow3cpuENS0_10mshadow_op4plusEEEvRKN4nnvm9NodeAttrsERKNS_9OpContextERKSt6vectorINS_5TBlobESaISF_EERKSE_INS_9OpReqTypeESaISK_EESJ_
libmxnet.so:_ZN5mxnet2op14BinaryScalarOp7ComputeIN7mshadow3cpuENS0_10mshadow_op4rdivEEEvRKN4nnvm9NodeAttrsERKNS_9OpContextERKSt6vectorINS_5TBlobESaISF_EERKSE_INS_9OpReqTypeESaISK_EESJ_
libmxnet.so:_ZN5mxnet2op14BinaryScalarOp7ComputeIN7mshadow3cpuENS0_10mshadow_op4rmodEEEvRKN4nnvm9NodeAttrsERKNS_9OpContextERKSt6vectorINS_5TBlobESaISF_EERKSE_INS_9OpReqTypeESaISK_EESJ_
libmxnet.so:_ZN5mxnet2op14BinaryScalarOp7ComputeIN7mshadow3cpuENS0_10mshadow_op5hypotEEEvRKN4nnvm9NodeAttrsERKNS_9OpContextERKSt6vectorINS_5TBlobESaISF_EERKSE_INS_9OpReqTypeESaISK_EESJ_
libmxnet.so:_ZN5mxnet2op14BinaryScalarOp7ComputeIN7mshadow3cpuENS0_10mshadow_op5minusEEEvRKN4nnvm9NodeAttrsERKNS_9OpContextERKSt6vectorINS_5TBlobESaISF_EERKSE_INS_9OpReqTypeESaISK_EESJ_
libmxnet.so:_ZN5mxnet2op14BinaryScalarOp7ComputeIN7mshadow3cpuENS0_10mshadow_op5powerEEEvRKN4nnvm9NodeAttrsERKNS_9OpContextERKSt6vectorINS_5TBlobESaISF_EERKSE_INS_9OpReqTypeESaISK_EESJ_
libmxnet.so:_ZN5mxnet2op14BinaryScalarOp7ComputeIN7mshadow3cpuENS0_10mshadow_op6rminusEEEvRKN4nnvm9NodeAttrsERKNS_9OpContextERKSt6vectorINS_5TBlobESaISF_EERKSE_INS_9OpReqTypeESaISK_EESJ_
libmxnet.so:_ZN5mxnet2op14BinaryScalarOp7ComputeIN7mshadow3cpuENS0_10mshadow_op6rpowerEEEvRKN4nnvm9NodeAttrsERKNS_9OpContextERKSt6vectorINS_5TBlobESaISF_EERKSE_INS_9OpReqTypeESaISK_EESJ_
libmxnet.so:_ZN5mxnet2op14BinaryScalarOp7ComputeIN7mshadow3cpuENS0_10mshadow_op7maximumEEEvRKN4nnvm9NodeAttrsERKNS_9OpContextERKSt6vectorINS_5TBlobESaISF_EERKSE_INS_9OpReqTypeESaISK_EESJ_
libmxnet.so:_ZN5mxnet2op14BinaryScalarOp7ComputeIN7mshadow3cpuENS0_10mshadow_op7minimumEEEvRKN4nnvm9NodeAttrsERKNS_9OpContextERKSt6vectorINS_5TBlobESaISF_EERKSE_INS_9OpReqTypeESaISK_EESJ_
libmxnet.so:_ZN5mxnet2op14BinaryScalarOp8BackwardIN7mshadow3cpuENS0_10mshadow_op10power_gradEEEvRKN4nnvm9NodeAttrsERKNS_9OpContextERKSt6vectorINS_5TBlobESaISF_EERKSE_INS_9OpReqTypeESaISK_EESJ_
libmxnet.so:_ZN5mxnet2op14BinaryScalarOp8BackwardIN7mshadow3cpuENS0_10mshadow_op11rpower_gradEEEvRKN4nnvm9NodeAttrsERKNS_9OpContextERKSt6vectorINS_5TBlobESaISF_EERKSE_INS_9OpReqTypeESaISK_EESJ_
libmxnet.so:_ZN5mxnet2op14BinaryScalarOp8BackwardIN7mshadow3cpuENS0_10mshadow_op15hypot_grad_leftEEEvRKN4nnvm9NodeAttrsERKNS_9OpContextERKSt6vectorINS_5TBlobESaISF_EERKSE_INS_9OpReqTypeESaISK_EESJ_
libmxnet.so:_ZN5mxnet2op14BinaryScalarOp8BackwardIN7mshadow3cpuENS0_10mshadow_op18smooth_l1_gradientEEEvRKN4nnvm9NodeAttrsERKNS_9OpContextERKSt6vectorINS_5TBlobESaISF_EERKSE_INS_9OpReqTypeESaISK_EESJ_
libmxnet.so:_ZN5mxnet2op14BinaryScalarOp8BackwardIN7mshadow3cpuENS0_10mshadow_op2geEEEvRKN4nnvm9NodeAttrsERKNS_9OpContextERKSt6vectorINS_5TBlobESaISF_EERKSE_INS_9OpReqTypeESaISK_EESJ_
libmxnet.so:_ZN5mxnet2op14BinaryScalarOp8BackwardIN7mshadow3cpuENS0_10mshadow_op2leEEEvRKN4nnvm9NodeAttrsERKNS_9OpContextERKSt6vectorINS_5TBlobESaISF_EERKSE_INS_9OpReqTypeESaISK_EESJ_
libmxnet.so:_ZN5mxnet2op14BinaryScalarOp8BackwardIN7mshadow3cpuENS0_10mshadow_op8mod_gradEEEvRKN4nnvm9NodeAttrsERKNS_9OpContextERKSt6vectorINS_5TBlobESaISF_EERKSE_INS_9OpReqTypeESaISK_EESJ_
libmxnet.so:_ZN5mxnet2op14BinaryScalarOp8BackwardIN7mshadow3cpuENS0_10mshadow_op9rdiv_gradEEEvRKN4nnvm9NodeAttrsERKNS_9OpContextERKSt6vectorINS_5TBlobESaISF_EERKSE_INS_9OpReqTypeESaISK_EESJ_
libmxnet.so:_ZN5mxnet2op14BinaryScalarOp8BackwardIN7mshadow3cpuENS0_10mshadow_op9rmod_gradEEEvRKN4nnvm9NodeAttrsERKNS_9OpContextERKSt6vectorINS_5TBlobESaISF_EERKSE_INS_9OpReqTypeESaISK_EESJ_
libmxnet.so:_ZN5mxnet2op14BinaryScalarOp9ComputeExIN7mshadow3cpuENS0_10mshadow_op3divEEEvRKN4nnvm9NodeAttrsERKNS_9OpContextERKSt6vectorINS_7NDArrayESaISF_EERKSE_INS_9OpReqTypeESaISK_EESJ_
libmxnet.so:_ZN5mxnet2op14BinaryScalarOp9ComputeExIN7mshadow3cpuENS0_10mshadow_op3mulEEEvRKN4nnvm9NodeAttrsERKNS_9OpContextERKSt6vectorINS_7NDArrayESaISF_EERKSE_INS_9OpReqTypeESaISK_EESJ_
libmxnet.so:_ZN5mxnet2op14BinaryScalarOp9ComputeExIN7mshadow3cpuENS0_10mshadow_op4plusEEEvRKN4nnvm9NodeAttrsERKNS_9OpContextERKSt6vectorINS_7NDArrayESaISF_EERKSE_INS_9OpReqTypeESaISK_EESJ_
libmxnet.so:_ZN5mxnet2op14BinaryScalarOp9ComputeExIN7mshadow3cpuENS0_10mshadow_op5minusEEEvRKN4nnvm9NodeAttrsERKNS_9OpContextERKSt6vectorINS_7NDArrayESaISF_EERKSE_INS_9OpReqTypeESaISK_EESJ_
libmxnet.so:_ZN5mxnet2op14BoxNMSBackwardIN7mshadow3cpuEEEvRKN4nnvm9NodeAttrsERKNS_9OpContextERKSt6vectorINS_5TBlobESaISC_EERKSB_INS_9OpReqTypeESaISH_EESG_
libmxnet.so:_ZN5mxnet2op14CTCLossOpParam11__MANAGER__Ev
libmxnet.so:_ZN5mxnet2op14CTCLossOpShapeERKN4nnvm9NodeAttrsEPSt6vectorINS_6TShapeESaIS6_EES9_
libmxnet.so:_ZN5mxnet2op14DequantizeTypeERKN4nnvm9NodeAttrsEPSt6vectorIiSaIiEES8_
libmxnet.so:_ZN5mxnet2op14DiagOpBackwardIN7mshadow3cpuEEEvRKN4nnvm9NodeAttrsERKNS_9OpContextERKSt6vectorINS_5TBlobESaISC_EERKSB_INS_9OpReqTypeESaISH_EESG_
libmxnet.so:_ZN5mxnet2op14DropoutComputeIN7mshadow3cpuEEEvRKNS_10OpStatePtrERKNS_9OpContextERKSt6vectorINS_5TBlobESaISB_EERKSA_INS_9OpReqTypeESaISG_EESF_
libmxnet.so:_ZN5mxnet2op14EmbeddingParam11__MANAGER__Ev
libmxnet.so:_ZN5mxnet2op14ExpandDimParam11__MANAGER__Ev
libmxnet.so:_ZN5mxnet2op14ExpandDimShapeERKN4nnvm9NodeAttrsEPSt6vectorINS_6TShapeESaIS6_EES9_
libmxnet.so:_ZN5mxnet2op14HawkesLLOpTypeERKN4nnvm9NodeAttrsEPSt6vectorIiSaIiEES8_
libmxnet.so:_ZN5mxnet2op14HistogramParam11__MANAGER__Ev
libmxnet.so:_ZN5mxnet2op14IndexCopyShapeERKN4nnvm9NodeAttrsEPSt6vectorINS_6TShapeESaIS6_EES9_
libmxnet.so:_ZN5mxnet2op14KhatriRaoParam11__MANAGER__Ev
libmxnet.so:_ZN5mxnet2op14KhatriRaoShapeERKN4nnvm9NodeAttrsEPSt6vectorINS_6TShapeESaIS6_EES9_
libmxnet.so:_ZN5mxnet2op14LRNGradComputeIN7mshadow3cpuEEEvRKN4nnvm9NodeAttrsERKNS_9OpContextERKSt6vectorINS_5TBlobESaISC_EERKSB_INS_9OpReqTypeESaISH_EESG_
libmxnet.so:_ZN5mxnet2op14LaEigFactShapeERKN4nnvm9NodeAttrsEPSt6vectorINS_6TShapeESaIS6_EES9_
libmxnet.so:_ZN5mxnet2op14LaOpBackwSyevdIN7mshadow3cpuENS0_14syevd_backwardEEEvRKN4nnvm9NodeAttrsERKNS_9OpContextERKSt6vectorINS_5TBlobESaISD_EERKSC_INS_9OpReqTypeESaISI_EESH_
libmxnet.so:_ZN5mxnet2op14LayerNormParam11__MANAGER__Ev
libmxnet.so:_ZN5mxnet2op14LeakyReLUParam11__MANAGER__Ev
libmxnet.so:_ZN5mxnet2op14MomentsForwardIN7mshadow3cpuEEEvRKN4nnvm9NodeAttrsERKNS_9OpContextERKSt6vectorINS_5TBlobESaISC_EERKSB_INS_9OpReqTypeESaISH_EESG_
libmxnet.so:_ZN5mxnet2op14MultiSGDUpdateIN7mshadow3cpuENS0_13type_identityELi2EEEvRKN4nnvm9NodeAttrsERKNS_9OpContextERKSt6vectorINS_5TBlobESaISD_EERKSC_INS_9OpReqTypeESaISI_EESH_
libmxnet.so:_ZN5mxnet2op14MultiSGDUpdateIN7mshadow3cpuENS0_16single_precisionELi3EEEvRKN4nnvm9NodeAttrsERKNS_9OpContextERKSt6vectorINS_5TBlobESaISD_EERKSC_INS_9OpReqTypeESaISI_EESH_
libmxnet.so:_ZN5mxnet2op14NDArrayOpParam11__MANAGER__Ev
libmxnet.so:_ZN5mxnet2op14NNZStorageTypeERKN4nnvm9NodeAttrsEiPNS_12DispatchModeEPSt6vectorIiSaIiEESA_
libmxnet.so:_ZN5mxnet2op14OpPropGradientEPKN4nnvm2OpERKSt10shared_ptrINS1_4NodeEERKSt6vectorINS1_9NodeEntryESaISB_EE
libmxnet.so:_ZN5mxnet2op14PickOpBackwardIN7mshadow3cpuEEEvRKN4nnvm9NodeAttrsERKNS_9OpContextERKSt6vectorINS_5TBlobESaISC_EERKSB_INS_9OpReqTypeESaISH_EESG_
libmxnet.so:_ZN5mxnet2op14PoolingComputeIN7mshadow3cpuEEEvRKN4nnvm9NodeAttrsERKNS_9OpContextERKSt6vectorINS_5TBlobESaISC_EERKSB_INS_9OpReqTypeESaISH_EESG_
libmxnet.so:_ZN5mxnet2op14PoolingV1Param11__MANAGER__Ev
libmxnet.so:_ZN5mxnet2op14QuadraticParam11__MANAGER__Ev
libmxnet.so:_ZN5mxnet2op14RequantizeTypeERKN4nnvm9NodeAttrsEPSt6vectorIiSaIiEES8_
libmxnet.so:_ZN5mxnet2op14SGDMomUpdateExIN7mshadow3cpuEEEvRKN4nnvm9NodeAttrsERKNS_9OpContextERKSt6vectorINS_7NDArrayESaISC_EERKSB_INS_9OpReqTypeESaISH_EESG_
libmxnet.so:_ZN5mxnet2op14SGDStorageTypeERKN4nnvm9NodeAttrsEiPNS_12DispatchModeEPSt6vectorIiSaIiEESA_
libmxnet.so:_ZN5mxnet2op14SVMOutputParam11__MANAGER__Ev
libmxnet.so:_ZN5mxnet2op14SampleResourceERKN4nnvm9NodeAttrsE
libmxnet.so:_ZN5mxnet2op14ScatterNDParam11__MANAGER__Ev
libmxnet.so:_ZN5mxnet2op14ScatterNDShapeERKN4nnvm9NodeAttrsEPSt6vectorINS_6TShapeESaIS6_EES9_
libmxnet.so:_ZN5mxnet2op14SizeComputeCPUERKN4nnvm9NodeAttrsERKNS_9OpContextERKSt6vectorINS_5TBlobESaIS9_EERKS8_INS_9OpReqTypeESaISE_EESD_
libmxnet.so:_ZN5mxnet2op14SliceAxisGrad_IN7mshadow3cpuEEEvRKN4nnvm9NodeAttrsERKNS_9OpContextERKSt6vectorINS_5TBlobESaISC_EERKSB_INS_9OpReqTypeESaISH_EESG_
libmxnet.so:_ZN5mxnet2op14SliceAxisParam11__MANAGER__Ev
libmxnet.so:_ZN5mxnet2op14SliceAxisShapeERKN4nnvm9NodeAttrsEPSt6vectorINS_6TShapeESaIS6_EES9_
libmxnet.so:_ZN5mxnet2op14SliceLikeParam11__MANAGER__Ev
libmxnet.so:_ZN5mxnet2op14SliceLikeShapeERKN4nnvm9NodeAttrsEPSt6vectorINS_6TShapeESaIS6_EES9_
libmxnet.so:_ZN5mxnet2op14SliceOpForwardIN7mshadow3cpuEEEvRKN4nnvm9NodeAttrsERKNS_9OpContextERKSt6vectorINS_5TBlobESaISC_EERKSB_INS_9OpReqTypeESaISH_EESG_
libmxnet.so:_ZN5mxnet2op14SoftmaxComputeIN7mshadow3cpuENS0_8mxnet_op11softmax_fwdELb0EEEvRKN4nnvm9NodeAttrsERKNS_9OpContextERKSt6vectorINS_5TBlobESaISE_EERKSD_INS_9OpReqTypeESaISJ_EESI_
libmxnet.so:_ZN5mxnet2op14SoftmaxComputeIN7mshadow3cpuENS0_8mxnet_op11softmax_fwdELb1EEEvRKN4nnvm9NodeAttrsERKNS_9OpContextERKSt6vectorINS_5TBlobESaISE_EERKSD_INS_9OpReqTypeESaISJ_EESI_
libmxnet.so:_ZN5mxnet2op14SoftmaxComputeIN7mshadow3cpuENS0_8mxnet_op15log_softmax_fwdELb0EEEvRKN4nnvm9NodeAttrsERKNS_9OpContextERKSt6vectorINS_5TBlobESaISE_EERKSD_INS_9OpReqTypeESaISJ_EESI_
libmxnet.so:_ZN5mxnet2op14SplitOpForwardIN7mshadow3cpuEEEvRKN4nnvm9NodeAttrsERKNS_9OpContextERKSt6vectorINS_5TBlobESaISC_EERKSB_INS_9OpReqTypeESaISH_EESG_
libmxnet.so:_ZN5mxnet2op14StackOpForwardIN7mshadow3cpuEEEvRKN4nnvm9NodeAttrsERKNS_9OpContextERKSt6vectorINS_5TBlobESaISC_EERKSB_INS_9OpReqTypeESaISH_EESG_
libmxnet.so:_ZN5mxnet2op14TakeOpBackwardIN7mshadow3cpuEEEvRKN4nnvm9NodeAttrsERKNS_9OpContextERKSt6vectorINS_5TBlobESaISC_EERKSB_INS_9OpReqTypeESaISH_EESG_
libmxnet.so:_ZN5mxnet2op14TileOpBackwardIN7mshadow3cpuEEEvRKN4nnvm9NodeAttrsERKNS_9OpContextERKSt6vectorINS_5TBlobESaISC_EERKSB_INS_9OpReqTypeESaISH_EESG_
libmxnet.so:_ZN5mxnet2op14TopKNumOutputsERKN4nnvm9NodeAttrsE
libmxnet.so:_ZN5mxnet2op14TopSortEntriesERKN4nnvm5GraphEPSt13unordered_mapIPKNS1_9NodeEntryEmSt4hashIS8_ESt8equal_toIS8_ESaISt4pairIKS8_mEEE
libmxnet.so:_ZN5mxnet2op14TransposeParam11__MANAGER__Ev
libmxnet.so:_ZN5mxnet2op14TransposeShapeERKN4nnvm9NodeAttrsEPSt6vectorINS_6TShapeESaIS6_EES9_
libmxnet.so:_ZN5mxnet2op14UnravelForwardIN7mshadow3cpuEEEvRKN4nnvm9NodeAttrsERKNS_9OpContextERKSt6vectorINS_5TBlobESaISC_EERKSB_INS_9OpReqTypeESaISH_EESG_
libmxnet.so:_ZN5mxnet2op14UnravelOpShapeERKN4nnvm9NodeAttrsEPSt6vectorINS_6TShapeESaIS6_EES9_
libmxnet.so:_ZN5mxnet2op14WhereOpForwardIN7mshadow3cpuEEEvRKN4nnvm9NodeAttrsERKNS_9OpContextERKSt6vectorINS_5TBlobESaISC_EERKSB_INS_9OpReqTypeESaISH_EESG_
libmxnet.so:_ZN5mxnet2op14WhileLoopParam11__MANAGER__Ev
libmxnet.so:_ZN5mxnet2op14as_bool_scalarERKNS_7NDArrayE
libmxnet.so:_ZN5mxnet2op15ActivationParam11__MANAGER__Ev
libmxnet.so:_ZN5mxnet2op15AdagradUpdateExIN7mshadow3cpuEEEvRKN4nnvm9NodeAttrsERKNS_9OpContextERKSt6vectorINS_7NDArrayESaISC_EERKSB_INS_9OpReqTypeESaISH_EESG_
libmxnet.so:_ZN5mxnet2op15AxesParamParserINS0_15ReduceAxesParamEEEvPN4nnvm9NodeAttrsE
libmxnet.so:_ZN5mxnet2op15BatchTakeOpTypeERKN4nnvm9NodeAttrsEPSt6vectorIiSaIiEES8_
libmxnet.so:_ZN5mxnet2op15BooleanMaskTypeERKN4nnvm9NodeAttrsEPSt6vectorIiSaIiEES8_
libmxnet.so:_ZN5mxnet2op15BoxOverlapParam11__MANAGER__Ev
libmxnet.so:_ZN5mxnet2op15BoxOverlapShapeERKN4nnvm9NodeAttrsEPSt6vectorINS_6TShapeESaIS6_EES9_
libmxnet.so:_ZN5mxnet2op15DequantizeParam11__MANAGER__Ev
libmxnet.so:_ZN5mxnet2op15DequantizeShapeERKN4nnvm9NodeAttrsEPSt6vectorINS_6TShapeESaIS6_EES9_
libmxnet.so:_ZN5mxnet2op15EdgeIDForwardExIN7mshadow3cpuEEEvRKN4nnvm9NodeAttrsERKNS_9OpContextERKSt6vectorINS_7NDArrayESaISC_EERKSB_INS_9OpReqTypeESaISH_EESG_
libmxnet.so:_ZN5mxnet2op15EmbeddingOpTypeINS0_14EmbeddingParamEEEbRKN4nnvm9NodeAttrsEPSt6vectorIiSaIiEESA_
libmxnet.so:_ZN5mxnet2op15EmbeddingOpTypeINS0_20SparseEmbeddingParamEEEbRKN4nnvm9NodeAttrsEPSt6vectorIiSaIiEESA_
libmxnet.so:_ZN5mxnet2op15GatherNDForwardIN7mshadow3cpuEEEvRKN4nnvm9NodeAttrsERKNS_9OpContextERKSt6vectorINS_5TBlobESaISC_EERKSB_INS_9OpReqTypeESaISH_EESG_
libmxnet.so:_ZN5mxnet2op15HawkesLLForwardIN7mshadow3cpuEEEvRKN4nnvm9NodeAttrsERKNS_9OpContextERKSt6vectorINS_5TBlobESaISC_EERKSB_INS_9OpReqTypeESaISH_EESG_
libmxnet.so:_ZN5mxnet2op15HawkesLLOpShapeERKN4nnvm9NodeAttrsEPSt6vectorINS_6TShapeESaIS6_EES9_
libmxnet.so:_ZN5mxnet2op15HistogramOpTypeERKN4nnvm9NodeAttrsEPSt6vectorIiSaIiEES8_
libmxnet.so:_ZN5mxnet2op15IndexArrayParam11__MANAGER__Ev
libmxnet.so:_ZN5mxnet2op15InitStorageTypeINS0_11InitOpParamELb1ELb1EEEbRKN4nnvm9NodeAttrsEiPNS_12DispatchModeEPSt6vectorIiSaIiEESC_
libmxnet.so:_ZN5mxnet2op15InitStorageTypeINS0_16SampleGammaParamELb1ELb0EEEbRKN4nnvm9NodeAttrsEiPNS_12DispatchModeEPSt6vectorIiSaIiEESC_
libmxnet.so:_ZN5mxnet2op15InitStorageTypeINS0_17SampleNormalParamELb1ELb0EEEbRKN4nnvm9NodeAttrsEiPNS_12DispatchModeEPSt6vectorIiSaIiEESC_
libmxnet.so:_ZN5mxnet2op15InitStorageTypeINS0_18SamplePoissonParamELb1ELb0EEEbRKN4nnvm9NodeAttrsEiPNS_12DispatchModeEPSt6vectorIiSaIiEESC_
libmxnet.so:_ZN5mxnet2op15InitStorageTypeINS0_18SampleRandIntParamELb1ELb0EEEbRKN4nnvm9NodeAttrsEiPNS_12DispatchModeEPSt6vectorIiSaIiEESC_
libmxnet.so:_ZN5mxnet2op15InitStorageTypeINS0_18SampleUniformParamELb1ELb0EEEbRKN4nnvm9NodeAttrsEiPNS_12DispatchModeEPSt6vectorIiSaIiEESC_
libmxnet.so:_ZN5mxnet2op15InitStorageTypeINS0_22SampleExponentialParamELb1ELb0EEEbRKN4nnvm9NodeAttrsEiPNS_12DispatchModeEPSt6vectorIiSaIiEESC_
libmxnet.so:_ZN5mxnet2op15InitStorageTypeINS0_22SampleNegBinomialParamELb1ELb0EEEbRKN4nnvm9NodeAttrsEiPNS_12DispatchModeEPSt6vectorIiSaIiEESC_
libmxnet.so:_ZN5mxnet2op15InitStorageTypeINS0_23InitOpWithoutDTypeParamELb1ELb1EEEbRKN4nnvm9NodeAttrsEiPNS_12DispatchModeEPSt6vectorIiSaIiEESC_
libmxnet.so:_ZN5mxnet2op15InitStorageTypeINS0_25SampleGenNegBinomialParamELb1ELb0EEEbRKN4nnvm9NodeAttrsEiPNS_12DispatchModeEPSt6vectorIiSaIiEESC_
libmxnet.so:_ZN5mxnet2op15L2NormComputeExIN7mshadow3cpuEEEvRKN4nnvm9NodeAttrsERKNS_9OpContextERKSt6vectorINS_7NDArrayESaISC_EERKSB_INS_9OpReqTypeESaISH_EESG_
libmxnet.so:_ZN5mxnet2op15LaCholeskyParam11__MANAGER__Ev
libmxnet.so:_ZN5mxnet2op15LaOpGemmForwardIN7mshadow3cpuELi2ELi2ELi2ELi1ENS0_5gemm2EEEvRKN4nnvm9NodeAttrsERKNS_9OpContextERKSt6vectorINS_5TBlobESaISD_EERKSC_INS_9OpReqTypeESaISI_EESH_
libmxnet.so:_ZN5mxnet2op15LaOpGemmForwardIN7mshadow3cpuELi2ELi2ELi3ELi1ENS0_4gemmEEEvRKN4nnvm9NodeAttrsERKNS_9OpContextERKSt6vectorINS_5TBlobESaISD_EERKSC_INS_9OpReqTypeESaISI_EESH_
libmxnet.so:_ZN5mxnet2op15LegacyOpForwardERKNS_10OpStatePtrERKNS_9OpContextERKSt6vectorINS_5TBlobESaIS8_EERKS7_INS_9OpReqTypeESaISD_EESC_
libmxnet.so:_ZN5mxnet2op15LinspaceComputeIN7mshadow3cpuEEEvRKN4nnvm9NodeAttrsERKNS_9OpContextERKSt6vectorINS_5TBlobESaISC_EERKSB_INS_9OpReqTypeESaISH_EESG_
libmxnet.so:_ZN5mxnet2op15MP_NAGMomUpdateIN7mshadow3cpuEEEvRKN4nnvm9NodeAttrsERKNS_9OpContextERKSt6vectorINS_5TBlobESaISC_EERKSB_INS_9OpReqTypeESaISH_EESG_
libmxnet.so:_ZN5mxnet2op15MP_SGDMomUpdateIN7mshadow3cpuEEEvRKN4nnvm9NodeAttrsERKNS_9OpContextERKSt6vectorINS_5TBlobESaISC_EERKSB_INS_9OpReqTypeESaISH_EESG_
libmxnet.so:_ZN5mxnet2op15MomentsBackwardIN7mshadow3cpuEEEvRKN4nnvm9NodeAttrsERKNS_9OpContextERKSt6vectorINS_5TBlobESaISC_EERKSB_INS_9OpReqTypeESaISH_EESG_
libmxnet.so:_ZN5mxnet2op15OneHotOpForwardIN7mshadow3cpuEEEvRKN4nnvm9NodeAttrsERKNS_9OpContextERKSt6vectorINS_5TBlobESaISC_EERKSB_INS_9OpReqTypeESaISH_EESG_
libmxnet.so:_ZN5mxnet2op15OpPropInferTypeERKN4nnvm9NodeAttrsEPSt6vectorIiSaIiEES8_
libmxnet.so:_ZN5mxnet2op15OpPropNumInputsERKN4nnvm9NodeAttrsE
libmxnet.so:_ZN5mxnet2op15QuadraticOpTypeERKN4nnvm9NodeAttrsEPSt6vectorIiSaIiEES8_
libmxnet.so:_ZN5mxnet2op15QuantizeComputeIN7mshadow3cpuEEEvRKN4nnvm9NodeAttrsERKNS_9OpContextERKSt6vectorINS_5TBlobESaISC_EERKSB_INS_9OpReqTypeESaISH_EESG_
libmxnet.so:_ZN5mxnet2op15QuantizeV2Param11__MANAGER__Ev
libmxnet.so:_ZN5mxnet2op15ROIPoolingParam11__MANAGER__Ev
libmxnet.so:_ZN5mxnet2op15ReduceAxesParam11__MANAGER__Ev
libmxnet.so:_ZN5mxnet2op15ReduceAxesShapeERKN4nnvm9NodeAttrsEPSt6vectorINS_6TShapeESaIS6_EES9_
libmxnet.so:_ZN5mxnet2op15ReduceAxisParam11__MANAGER__Ev
libmxnet.so:_ZN5mxnet2op15ReduceAxisShapeERKN4nnvm9NodeAttrsEPSt6vectorINS_6TShapeESaIS6_EES9_
libmxnet.so:_ZN5mxnet2op15RepeatOpForwardIN7mshadow3cpuEEEvRKN4nnvm9NodeAttrsERKNS_9OpContextERKSt6vectorINS_5TBlobESaISC_EERKSB_INS_9OpReqTypeESaISH_EESG_
libmxnet.so:_ZN5mxnet2op15RequantizeParam11__MANAGER__Ev
libmxnet.so:_ZN5mxnet2op15ShapeComputeCPUERKN4nnvm9NodeAttrsERKNS_9OpContextERKSt6vectorINS_5TBlobESaIS9_EERKS8_INS_9OpReqTypeESaISE_EESD_
libmxnet.so:_ZN5mxnet2op15SliceOpBackwardIN7mshadow3cpuEEEvRKN4nnvm9NodeAttrsERKNS_9OpContextERKSt6vectorINS_5TBlobESaISC_EERKSB_INS_9OpReqTypeESaISH_EESG_
libmxnet.so:_ZN5mxnet2op15SplitNumOutputsERKN4nnvm9NodeAttrsE
libmxnet.so:_ZN5mxnet2op15SplitOpBackwardIN7mshadow3cpuEEEvRKN4nnvm9NodeAttrsERKNS_9OpContextERKSt6vectorINS_5TBlobESaISC_EERKSB_INS_9OpReqTypeESaISH_EESG_
libmxnet.so:_ZN5mxnet2op15StackOpBackwardIN7mshadow3cpuEEEvRKN4nnvm9NodeAttrsERKNS_9OpContextERKSt6vectorINS_5TBlobESaISC_EERKSB_INS_9OpReqTypeESaISH_EESG_
libmxnet.so:_ZN5mxnet2op15SupportMKLDNNFCERKNS_7NDArrayE
libmxnet.so:_ZN5mxnet2op15TakeOpForwardExIN7mshadow3cpuEEEvRKN4nnvm9NodeAttrsERKNS_9OpContextERKSt6vectorINS_7NDArrayESaISC_EERKSB_INS_9OpReqTypeESaISH_EESG_
libmxnet.so:_ZN5mxnet2op15UpSamplingParam11__MANAGER__Ev
libmxnet.so:_ZN5mxnet2op15WhereOpBackwardIN7mshadow3cpuEEEvRKN4nnvm9NodeAttrsERKNS_9OpContextERKSt6vectorINS_5TBlobESaISC_EERKSB_INS_9OpReqTypeESaISH_EESG_
libmxnet.so:_ZN5mxnet2op16AMPMultiCastTypeERKN4nnvm9NodeAttrsEPSt6vectorIiSaIiEES8_
libmxnet.so:_ZN5mxnet2op16BatchDotForward_IN7mshadow3cpuEEEvRKN4nnvm9NodeAttrsERKNS_9OpContextERKSt6vectorINS_5TBlobESaISC_EERKSB_INS_9OpReqTypeESaISH_EESG_
libmxnet.so:_ZN5mxnet2op16BatchNormComputeIN7mshadow3cpuEEEvRKN4nnvm9NodeAttrsERKNS_9OpContextERKSt6vectorINS_5TBlobESaISC_EERKSB_INS_9OpReqTypeESaISH_EESG_
libmxnet.so:_ZN5mxnet2op16BatchNormV1Param11__MANAGER__Ev
libmxnet.so:_ZN5mxnet2op16BatchTakeOpShapeERKN4nnvm9NodeAttrsEPSt6vectorINS_6TShapeESaIS6_EES9_
libmxnet.so:_ZN5mxnet2op16BooleanMaskParam11__MANAGER__Ev
libmxnet.so:_ZN5mxnet2op16BroadcastComputeIN7mshadow3cpuEEEvRKN4nnvm9NodeAttrsERKNS_9OpContextERKSt6vectorINS_5TBlobESaISC_EERKSB_INS_9OpReqTypeESaISH_EESG_
libmxnet.so:_ZN5mxnet2op16BroadcastToParam11__MANAGER__Ev
libmxnet.so:_ZN5mxnet2op16BroadcastToShapeERKN4nnvm9NodeAttrsEPSt6vectorINS_6TShapeESaIS6_EES9_
libmxnet.so:_ZN5mxnet2op16CTCLossOpForwardIN7mshadow3cpuEEEvRKN4nnvm9NodeAttrsERKNS_9OpContextERKSt6vectorINS_5TBlobESaISC_EERKSB_INS_9OpReqTypeESaISH_EESG_
libmxnet.so:_ZN5mxnet2op16CastStorageParam11__MANAGER__Ev
libmxnet.so:_ZN5mxnet2op16ConvolutionParam11__MANAGER__Ev
libmxnet.so:_ZN5mxnet2op16CorrelationParam11__MANAGER__Ev
libmxnet.so:_ZN5mxnet2op16CountSketchParam11__MANAGER__Ev
libmxnet.so:_ZN5mxnet2op16DGLAdjacencyTypeERKN4nnvm9NodeAttrsEPSt6vectorIiSaIiEES8_
libmxnet.so:_ZN5mxnet2op16DGLSubgraphParam11__MANAGER__Ev
libmxnet.so:_ZN5mxnet2op16ElemwiseBinaryOp13BackwardUseInIN7mshadow3cpuENS0_10mshadow_op10power_gradENS5_11power_rgradEEEvRKN4nnvm9NodeAttrsERKNS_9OpContextERKSt6vectorINS_5TBlobESaISG_EERKSF_INS_9OpReqTypeESaISL_EESK_
libmxnet.so:_ZN5mxnet2op16ElemwiseBinaryOp13BackwardUseInIN7mshadow3cpuENS0_10mshadow_op15hypot_grad_leftENS5_16hypot_grad_rightEEEvRKN4nnvm9NodeAttrsERKNS_9OpContextERKSt6vectorINS_5TBlobESaISG_EERKSF_INS_9OpReqTypeESaISL_EESK_
libmxnet.so:_ZN5mxnet2op16ElemwiseBinaryOp13BackwardUseInIN7mshadow3cpuENS0_10mshadow_op2geENS5_2ltEEEvRKN4nnvm9NodeAttrsERKNS_9OpContextERKSt6vectorINS_5TBlobESaISG_EERKSF_INS_9OpReqTypeESaISL_EESK_
libmxnet.so:_ZN5mxnet2op16ElemwiseBinaryOp13BackwardUseInIN7mshadow3cpuENS0_10mshadow_op2leENS5_2gtEEEvRKN4nnvm9NodeAttrsERKNS_9OpContextERKSt6vectorINS_5TBlobESaISG_EERKSF_INS_9OpReqTypeESaISL_EESK_
libmxnet.so:_ZN5mxnet2op16ElemwiseBinaryOp13BackwardUseInIN7mshadow3cpuENS0_10mshadow_op5rightENS5_4leftEEEvRKN4nnvm9NodeAttrsERKNS_9OpContextERKSt6vectorINS_5TBlobESaISG_EERKSF_INS_9OpReqTypeESaISL_EESK_
libmxnet.so:_ZN5mxnet2op16ElemwiseBinaryOp13BackwardUseInIN7mshadow3cpuENS0_10mshadow_op8div_gradENS5_9div_rgradEEEvRKN4nnvm9NodeAttrsERKNS_9OpContextERKSt6vectorINS_5TBlobESaISG_EERKSF_INS_9OpReqTypeESaISL_EESK_
libmxnet.so:_ZN5mxnet2op16ElemwiseBinaryOp13BackwardUseInIN7mshadow3cpuENS0_10mshadow_op8mod_gradENS5_9mod_rgradEEEvRKN4nnvm9NodeAttrsERKNS_9OpContextERKSt6vectorINS_5TBlobESaISG_EERKSF_INS_9OpReqTypeESaISL_EESK_
libmxnet.so:_ZN5mxnet2op16ElemwiseBinaryOp15BackwardUseInExIN7mshadow3cpuENS0_10mshadow_op5rightENS5_4leftELb0ELb0ELb0EEEvRKN4nnvm9NodeAttrsERKNS_9OpContextERKSt6vectorINS_7NDArrayESaISG_EERKSF_INS_9OpReqTypeESaISL_EESK_
libmxnet.so:_ZN5mxnet2op16ElemwiseBinaryOp15BackwardUseInExIN7mshadow3cpuENS0_10mshadow_op8div_gradENS5_9div_rgradELb0ELb0ELb0EEEvRKN4nnvm9NodeAttrsERKNS_9OpContextERKSt6vectorINS_7NDArrayESaISG_EERKSF_INS_9OpReqTypeESaISL_EESK_
libmxnet.so:_ZN5mxnet2op16ElemwiseBinaryOp15BackwardUseNoneIN7mshadow3cpuENS0_10mshadow_op8identityENS5_8negationEEEvRKN4nnvm9NodeAttrsERKNS_9OpContextERKSt6vectorINS_5TBlobESaISG_EERKSF_INS_9OpReqTypeESaISL_EESK_
libmxnet.so:_ZN5mxnet2op16ElemwiseBinaryOp15BackwardUseNoneIN7mshadow3cpuENS0_10mshadow_op8identityES6_EEvRKN4nnvm9NodeAttrsERKNS_9OpContextERKSt6vectorINS_5TBlobESaISF_EERKSE_INS_9OpReqTypeESaISK_EESJ_
libmxnet.so:_ZN5mxnet2op16ElemwiseBinaryOp17BackwardUseNoneExIN7mshadow3cpuENS0_10mshadow_op8identityENS5_8negationEEEvRKN4nnvm9NodeAttrsERKNS_9OpContextERKSt6vectorINS_7NDArrayESaISG_EERKSF_INS_9OpReqTypeESaISL_EESK_
libmxnet.so:_ZN5mxnet2op16ElemwiseBinaryOp19ComputeDnsLRValueExIN7mshadow3cpuENS0_10mshadow_op3mulELb1ELb1EEEvRKN4nnvm9NodeAttrsERKNS_9OpContextERKSt6vectorINS_7NDArrayESaISF_EERKSE_INS_9OpReqTypeESaISK_EESJ_
libmxnet.so:_ZN5mxnet2op16ElemwiseBinaryOp22PreferDenseStorageTypeILb1ELb1ELb1EEEbRKN4nnvm9NodeAttrsEiPNS_12DispatchModeEPSt6vectorIiSaIiEESC_
libmxnet.so:_ZN5mxnet2op16ElemwiseBinaryOp23PreferSparseStorageTypeERKN4nnvm9NodeAttrsEiPNS_12DispatchModeEPSt6vectorIiSaIiEESB_
libmxnet.so:_ZN5mxnet2op16ElemwiseBinaryOp24BackwardUseInStorageTypeERKN4nnvm9NodeAttrsEiPNS_12DispatchModeEPSt6vectorIiSaIiEESB_
libmxnet.so:_ZN5mxnet2op16ElemwiseBinaryOp27SparseSparseWithDenseResultERKN4nnvm9NodeAttrsEiPNS_12DispatchModeEPSt6vectorIiSaIiEESB_
libmxnet.so:_ZN5mxnet2op16ElemwiseBinaryOp7ComputeIN7mshadow3cpuENS0_10mshadow_op10logical_orEEEvRKN4nnvm9NodeAttrsERKNS_9OpContextERKSt6vectorINS_5TBlobESaISF_EERKSE_INS_9OpReqTypeESaISK_EESJ_
libmxnet.so:_ZN5mxnet2op16ElemwiseBinaryOp7ComputeIN7mshadow3cpuENS0_10mshadow_op11logical_andEEEvRKN4nnvm9NodeAttrsERKNS_9OpContextERKSt6vectorINS_5TBlobESaISF_EERKSE_INS_9OpReqTypeESaISK_EESJ_
libmxnet.so:_ZN5mxnet2op16ElemwiseBinaryOp7ComputeIN7mshadow3cpuENS0_10mshadow_op11logical_xorEEEvRKN4nnvm9NodeAttrsERKNS_9OpContextERKSt6vectorINS_5TBlobESaISF_EERKSE_INS_9OpReqTypeESaISK_EESJ_
libmxnet.so:_ZN5mxnet2op16ElemwiseBinaryOp7ComputeIN7mshadow3cpuENS0_10mshadow_op2eqEEEvRKN4nnvm9NodeAttrsERKNS_9OpContextERKSt6vectorINS_5TBlobESaISF_EERKSE_INS_9OpReqTypeESaISK_EESJ_
libmxnet.so:_ZN5mxnet2op16ElemwiseBinaryOp7ComputeIN7mshadow3cpuENS0_10mshadow_op2geEEEvRKN4nnvm9NodeAttrsERKNS_9OpContextERKSt6vectorINS_5TBlobESaISF_EERKSE_INS_9OpReqTypeESaISK_EESJ_
libmxnet.so:_ZN5mxnet2op16ElemwiseBinaryOp7ComputeIN7mshadow3cpuENS0_10mshadow_op2gtEEEvRKN4nnvm9NodeAttrsERKNS_9OpContextERKSt6vectorINS_5TBlobESaISF_EERKSE_INS_9OpReqTypeESaISK_EESJ_
libmxnet.so:_ZN5mxnet2op16ElemwiseBinaryOp7ComputeIN7mshadow3cpuENS0_10mshadow_op2leEEEvRKN4nnvm9NodeAttrsERKNS_9OpContextERKSt6vectorINS_5TBlobESaISF_EERKSE_INS_9OpReqTypeESaISK_EESJ_
libmxnet.so:_ZN5mxnet2op16ElemwiseBinaryOp7ComputeIN7mshadow3cpuENS0_10mshadow_op2ltEEEvRKN4nnvm9NodeAttrsERKNS_9OpContextERKSt6vectorINS_5TBlobESaISF_EERKSE_INS_9OpReqTypeESaISK_EESJ_
libmxnet.so:_ZN5mxnet2op16ElemwiseBinaryOp7ComputeIN7mshadow3cpuENS0_10mshadow_op2neEEEvRKN4nnvm9NodeAttrsERKNS_9OpContextERKSt6vectorINS_5TBlobESaISF_EERKSE_INS_9OpReqTypeESaISK_EESJ_
libmxnet.so:_ZN5mxnet2op16ElemwiseBinaryOp7ComputeIN7mshadow3cpuENS0_10mshadow_op3divEEEvRKN4nnvm9NodeAttrsERKNS_9OpContextERKSt6vectorINS_5TBlobESaISF_EERKSE_INS_9OpReqTypeESaISK_EESJ_
libmxnet.so:_ZN5mxnet2op16ElemwiseBinaryOp7ComputeIN7mshadow3cpuENS0_10mshadow_op3modEEEvRKN4nnvm9NodeAttrsERKNS_9OpContextERKSt6vectorINS_5TBlobESaISF_EERKSE_INS_9OpReqTypeESaISK_EESJ_
libmxnet.so:_ZN5mxnet2op16ElemwiseBinaryOp7ComputeIN7mshadow3cpuENS0_10mshadow_op3mulEEEvRKN4nnvm9NodeAttrsERKNS_9OpContextERKSt6vectorINS_5TBlobESaISF_EERKSE_INS_9OpReqTypeESaISK_EESJ_
libmxnet.so:_ZN5mxnet2op16ElemwiseBinaryOp7ComputeIN7mshadow3cpuENS0_10mshadow_op4plusEEEvRKN4nnvm9NodeAttrsERKNS_9OpContextERKSt6vectorINS_5TBlobESaISF_EERKSE_INS_9OpReqTypeESaISK_EESJ_
libmxnet.so:_ZN5mxnet2op16ElemwiseBinaryOp7ComputeIN7mshadow3cpuENS0_10mshadow_op5hypotEEEvRKN4nnvm9NodeAttrsERKNS_9OpContextERKSt6vectorINS_5TBlobESaISF_EERKSE_INS_9OpReqTypeESaISK_EESJ_
libmxnet.so:_ZN5mxnet2op16ElemwiseBinaryOp7ComputeIN7mshadow3cpuENS0_10mshadow_op5minusEEEvRKN4nnvm9NodeAttrsERKNS_9OpContextERKSt6vectorINS_5TBlobESaISF_EERKSE_INS_9OpReqTypeESaISK_EESJ_
libmxnet.so:_ZN5mxnet2op16ElemwiseBinaryOp7ComputeIN7mshadow3cpuENS0_10mshadow_op5powerEEEvRKN4nnvm9NodeAttrsERKNS_9OpContextERKSt6vectorINS_5TBlobESaISF_EERKSE_INS_9OpReqTypeESaISK_EESJ_
libmxnet.so:_ZN5mxnet2op16ElemwiseBinaryOp7ComputeIN7mshadow3cpuENS0_10mshadow_op7maximumEEEvRKN4nnvm9NodeAttrsERKNS_9OpContextERKSt6vectorINS_5TBlobESaISF_EERKSE_INS_9OpReqTypeESaISK_EESJ_
libmxnet.so:_ZN5mxnet2op16ElemwiseBinaryOp7ComputeIN7mshadow3cpuENS0_10mshadow_op7minimumEEEvRKN4nnvm9NodeAttrsERKNS_9OpContextERKSt6vectorINS_5TBlobESaISF_EERKSE_INS_9OpReqTypeESaISK_EESJ_
libmxnet.so:_ZN5mxnet2op16ElemwiseBinaryOp7ComputeIN7mshadow3cpuENS0_8mxnet_op19backward_grad_tunedINS0_10mshadow_op10gamma_gradEEEEEvRKN4nnvm9NodeAttrsERKNS_9OpContextERKSt6vectorINS_5TBlobESaISI_EERKSH_INS_9OpReqTypeESaISN_EESM_
libmxnet.so:_ZN5mxnet2op16ElemwiseBinaryOp7ComputeIN7mshadow3cpuENS0_8mxnet_op19backward_grad_tunedINS0_10mshadow_op10log10_gradEEEEEvRKN4nnvm9NodeAttrsERKNS_9OpContextERKSt6vectorINS_5TBlobESaISI_EERKSH_INS_9OpReqTypeESaISN_EESM_
libmxnet.so:_ZN5mxnet2op16ElemwiseBinaryOp7ComputeIN7mshadow3cpuENS0_8mxnet_op19backward_grad_tunedINS0_10mshadow_op10log1p_gradEEEEEvRKN4nnvm9NodeAttrsERKNS_9OpContextERKSt6vectorINS_5TBlobESaISI_EERKSH_INS_9OpReqTypeESaISN_EESM_
libmxnet.so:_ZN5mxnet2op16ElemwiseBinaryOp7ComputeIN7mshadow3cpuENS0_8mxnet_op19backward_grad_tunedINS0_10mshadow_op11arccos_gradEEEEEvRKN4nnvm9NodeAttrsERKNS_9OpContextERKSt6vectorINS_5TBlobESaISI_EERKSH_INS_9OpReqTypeESaISN_EESM_
libmxnet.so:_ZN5mxnet2op16ElemwiseBinaryOp7ComputeIN7mshadow3cpuENS0_8mxnet_op19backward_grad_tunedINS0_10mshadow_op11arcsin_gradEEEEEvRKN4nnvm9NodeAttrsERKNS_9OpContextERKSt6vectorINS_5TBlobESaISI_EERKSH_INS_9OpReqTypeESaISN_EESM_
libmxnet.so:_ZN5mxnet2op16ElemwiseBinaryOp7ComputeIN7mshadow3cpuENS0_8mxnet_op19backward_grad_tunedINS0_10mshadow_op11arctan_gradEEEEEvRKN4nnvm9NodeAttrsERKNS_9OpContextERKSt6vectorINS_5TBlobESaISI_EERKSH_INS_9OpReqTypeESaISN_EESM_
libmxnet.so:_ZN5mxnet2op16ElemwiseBinaryOp7ComputeIN7mshadow3cpuENS0_8mxnet_op19backward_grad_tunedINS0_10mshadow_op11erfinv_gradEEEEEvRKN4nnvm9NodeAttrsERKNS_9OpContextERKSt6vectorINS_5TBlobESaISI_EERKSH_INS_9OpReqTypeESaISN_EESM_
libmxnet.so:_ZN5mxnet2op16ElemwiseBinaryOp7ComputeIN7mshadow3cpuENS0_8mxnet_op19backward_grad_tunedINS0_10mshadow_op11square_gradEEEEEvRKN4nnvm9NodeAttrsERKNS_9OpContextERKSt6vectorINS_5TBlobESaISI_EERKSH_INS_9OpReqTypeESaISN_EESM_
libmxnet.so:_ZN5mxnet2op16ElemwiseBinaryOp7ComputeIN7mshadow3cpuENS0_8mxnet_op19backward_grad_tunedINS0_10mshadow_op12arccosh_gradEEEEEvRKN4nnvm9NodeAttrsERKNS_9OpContextERKSt6vectorINS_5TBlobESaISI_EERKSH_INS_9OpReqTypeESaISN_EESM_
libmxnet.so:_ZN5mxnet2op16ElemwiseBinaryOp7ComputeIN7mshadow3cpuENS0_8mxnet_op19backward_grad_tunedINS0_10mshadow_op12arcsinh_gradEEEEEvRKN4nnvm9NodeAttrsERKNS_9OpContextERKSt6vectorINS_5TBlobESaISI_EERKSH_INS_9OpReqTypeESaISN_EESM_
libmxnet.so:_ZN5mxnet2op16ElemwiseBinaryOp7ComputeIN7mshadow3cpuENS0_8mxnet_op19backward_grad_tunedINS0_10mshadow_op12arctanh_gradEEEEEvRKN4nnvm9NodeAttrsERKNS_9OpContextERKSt6vectorINS_5TBlobESaISI_EERKSH_INS_9OpReqTypeESaISN_EESM_
libmxnet.so:_ZN5mxnet2op16ElemwiseBinaryOp7ComputeIN7mshadow3cpuENS0_8mxnet_op19backward_grad_tunedINS0_10mshadow_op12degrees_gradEEEEEvRKN4nnvm9NodeAttrsERKNS_9OpContextERKSt6vectorINS_5TBlobESaISI_EERKSH_INS_9OpReqTypeESaISN_EESM_
libmxnet.so:_ZN5mxnet2op16ElemwiseBinaryOp7ComputeIN7mshadow3cpuENS0_8mxnet_op19backward_grad_tunedINS0_10mshadow_op12gammaln_gradEEEEEvRKN4nnvm9NodeAttrsERKNS_9OpContextERKSt6vectorINS_5TBlobESaISI_EERKSH_INS_9OpReqTypeESaISN_EESM_
libmxnet.so:_ZN5mxnet2op16ElemwiseBinaryOp7ComputeIN7mshadow3cpuENS0_8mxnet_op19backward_grad_tunedINS0_10mshadow_op12radians_gradEEEEEvRKN4nnvm9NodeAttrsERKNS_9OpContextERKSt6vectorINS_5TBlobESaISI_EERKSH_INS_9OpReqTypeESaISN_EESM_
libmxnet.so:_ZN5mxnet2op16ElemwiseBinaryOp7ComputeIN7mshadow3cpuENS0_8mxnet_op19backward_grad_tunedINS0_10mshadow_op12sigmoid_gradEEEEEvRKN4nnvm9NodeAttrsERKNS_9OpContextERKSt6vectorINS_5TBlobESaISI_EERKSH_INS_9OpReqTypeESaISN_EESM_
libmxnet.so:_ZN5mxnet2op16ElemwiseBinaryOp7ComputeIN7mshadow3cpuENS0_8mxnet_op19backward_grad_tunedINS0_10mshadow_op13softsign_gradEEEEEvRKN4nnvm9NodeAttrsERKNS_9OpContextERKSt6vectorINS_5TBlobESaISI_EERKSH_INS_9OpReqTypeESaISN_EESM_
libmxnet.so:_ZN5mxnet2op16ElemwiseBinaryOp7ComputeIN7mshadow3cpuENS0_8mxnet_op19backward_grad_tunedINS0_10mshadow_op14cube_root_gradEEEEEvRKN4nnvm9NodeAttrsERKNS_9OpContextERKSt6vectorINS_5TBlobESaISI_EERKSH_INS_9OpReqTypeESaISN_EESM_
libmxnet.so:_ZN5mxnet2op16ElemwiseBinaryOp7ComputeIN7mshadow3cpuENS0_8mxnet_op19backward_grad_tunedINS0_10mshadow_op15reciprocal_gradEEEEEvRKN4nnvm9NodeAttrsERKNS_9OpContextERKSt6vectorINS_5TBlobESaISI_EERKSH_INS_9OpReqTypeESaISN_EESM_
libmxnet.so:_ZN5mxnet2op16ElemwiseBinaryOp7ComputeIN7mshadow3cpuENS0_8mxnet_op19backward_grad_tunedINS0_10mshadow_op16square_root_gradEEEEEvRKN4nnvm9NodeAttrsERKNS_9OpContextERKSt6vectorINS_5TBlobESaISI_EERKSH_INS_9OpReqTypeESaISN_EESM_
libmxnet.so:_ZN5mxnet2op16ElemwiseBinaryOp7ComputeIN7mshadow3cpuENS0_8mxnet_op19backward_grad_tunedINS0_10mshadow_op25reciprocal_cube_root_gradEEEEEvRKN4nnvm9NodeAttrsERKNS_9OpContextERKSt6vectorINS_5TBlobESaISI_EERKSH_INS_9OpReqTypeESaISN_EESM_
libmxnet.so:_ZN5mxnet2op16ElemwiseBinaryOp7ComputeIN7mshadow3cpuENS0_8mxnet_op19backward_grad_tunedINS0_10mshadow_op27reciprocal_square_root_gradEEEEEvRKN4nnvm9NodeAttrsERKNS_9OpContextERKSt6vectorINS_5TBlobESaISI_EERKSH_INS_9OpReqTypeESaISN_EESM_
libmxnet.so:_ZN5mxnet2op16ElemwiseBinaryOp7ComputeIN7mshadow3cpuENS0_8mxnet_op19backward_grad_tunedINS0_10mshadow_op3expEEEEEvRKN4nnvm9NodeAttrsERKNS_9OpContextERKSt6vectorINS_5TBlobESaISI_EERKSH_INS_9OpReqTypeESaISN_EESM_
libmxnet.so:_ZN5mxnet2op16ElemwiseBinaryOp7ComputeIN7mshadow3cpuENS0_8mxnet_op19backward_grad_tunedINS0_10mshadow_op4signEEEEEvRKN4nnvm9NodeAttrsERKNS_9OpContextERKSt6vectorINS_5TBlobESaISI_EERKSH_INS_9OpReqTypeESaISN_EESM_
libmxnet.so:_ZN5mxnet2op16ElemwiseBinaryOp7ComputeIN7mshadow3cpuENS0_8mxnet_op19backward_grad_tunedINS0_10mshadow_op8cos_gradEEEEEvRKN4nnvm9NodeAttrsERKNS_9OpContextERKSt6vectorINS_5TBlobESaISI_EERKSH_INS_9OpReqTypeESaISN_EESM_
libmxnet.so:_ZN5mxnet2op16ElemwiseBinaryOp7ComputeIN7mshadow3cpuENS0_8mxnet_op19backward_grad_tunedINS0_10mshadow_op8erf_gradEEEEEvRKN4nnvm9NodeAttrsERKNS_9OpContextERKSt6vectorINS_5TBlobESaISI_EERKSH_INS_9OpReqTypeESaISN_EESM_
libmxnet.so:_ZN5mxnet2op16ElemwiseBinaryOp7ComputeIN7mshadow3cpuENS0_8mxnet_op19backward_grad_tunedINS0_10mshadow_op8log_gradEEEEEvRKN4nnvm9NodeAttrsERKNS_9OpContextERKSt6vectorINS_5TBlobESaISI_EERKSH_INS_9OpReqTypeESaISN_EESM_
libmxnet.so:_ZN5mxnet2op16ElemwiseBinaryOp7ComputeIN7mshadow3cpuENS0_8mxnet_op19backward_grad_tunedINS0_10mshadow_op8sin_gradEEEEEvRKN4nnvm9NodeAttrsERKNS_9OpContextERKSt6vectorINS_5TBlobESaISI_EERKSH_INS_9OpReqTypeESaISN_EESM_
libmxnet.so:_ZN5mxnet2op16ElemwiseBinaryOp7ComputeIN7mshadow3cpuENS0_8mxnet_op19backward_grad_tunedINS0_10mshadow_op8tan_gradEEEEEvRKN4nnvm9NodeAttrsERKNS_9OpContextERKSt6vectorINS_5TBlobESaISI_EERKSH_INS_9OpReqTypeESaISN_EESM_
libmxnet.so:_ZN5mxnet2op16ElemwiseBinaryOp7ComputeIN7mshadow3cpuENS0_8mxnet_op19backward_grad_tunedINS0_10mshadow_op9cosh_gradEEEEEvRKN4nnvm9NodeAttrsERKNS_9OpContextERKSt6vectorINS_5TBlobESaISI_EERKSH_INS_9OpReqTypeESaISN_EESM_
libmxnet.so:_ZN5mxnet2op16ElemwiseBinaryOp7ComputeIN7mshadow3cpuENS0_8mxnet_op19backward_grad_tunedINS0_10mshadow_op9log2_gradEEEEEvRKN4nnvm9NodeAttrsERKNS_9OpContextERKSt6vectorINS_5TBlobESaISI_EERKSH_INS_9OpReqTypeESaISN_EESM_
libmxnet.so:_ZN5mxnet2op16ElemwiseBinaryOp7ComputeIN7mshadow3cpuENS0_8mxnet_op19backward_grad_tunedINS0_10mshadow_op9relu_gradEEEEEvRKN4nnvm9NodeAttrsERKNS_9OpContextERKSt6vectorINS_5TBlobESaISI_EERKSH_INS_9OpReqTypeESaISN_EESM_
libmxnet.so:_ZN5mxnet2op16ElemwiseBinaryOp7ComputeIN7mshadow3cpuENS0_8mxnet_op19backward_grad_tunedINS0_10mshadow_op9sign_gradEEEEEvRKN4nnvm9NodeAttrsERKNS_9OpContextERKSt6vectorINS_5TBlobESaISI_EERKSH_INS_9OpReqTypeESaISN_EESM_
libmxnet.so:_ZN5mxnet2op16ElemwiseBinaryOp7ComputeIN7mshadow3cpuENS0_8mxnet_op19backward_grad_tunedINS0_10mshadow_op9sinh_gradEEEEEvRKN4nnvm9NodeAttrsERKNS_9OpContextERKSt6vectorINS_5TBlobESaISI_EERKSH_INS_9OpReqTypeESaISN_EESM_
libmxnet.so:_ZN5mxnet2op16ElemwiseBinaryOp7ComputeIN7mshadow3cpuENS0_8mxnet_op19backward_grad_tunedINS0_10mshadow_op9tanh_gradEEEEEvRKN4nnvm9NodeAttrsERKNS_9OpContextERKSt6vectorINS_5TBlobESaISI_EERKSH_INS_9OpReqTypeESaISN_EESM_
libmxnet.so:_ZN5mxnet2op16ElemwiseBinaryOp9ComputeExIN7mshadow3cpuENS0_10mshadow_op3divEEEvRKN4nnvm9NodeAttrsERKNS_9OpContextERKSt6vectorINS_7NDArrayESaISF_EERKSE_INS_9OpReqTypeESaISK_EESJ_
libmxnet.so:_ZN5mxnet2op16ElemwiseBinaryOp9ComputeExIN7mshadow3cpuENS0_10mshadow_op4plusEEEvRKN4nnvm9NodeAttrsERKNS_9OpContextERKSt6vectorINS_7NDArrayESaISF_EERKSE_INS_9OpReqTypeESaISK_EESJ_
libmxnet.so:_ZN5mxnet2op16ElemwiseBinaryOp9ComputeExIN7mshadow3cpuENS0_10mshadow_op5hypotEEEvRKN4nnvm9NodeAttrsERKNS_9OpContextERKSt6vectorINS_7NDArrayESaISF_EERKSE_INS_9OpReqTypeESaISK_EESJ_
libmxnet.so:_ZN5mxnet2op16ElemwiseBinaryOp9ComputeExIN7mshadow3cpuENS0_10mshadow_op5minusEEEvRKN4nnvm9NodeAttrsERKNS_9OpContextERKSt6vectorINS_7NDArrayESaISF_EERKSE_INS_9OpReqTypeESaISK_EESJ_
libmxnet.so:_ZN5mxnet2op16ElemwiseBinaryOp9ComputeExIN7mshadow3cpuENS0_10mshadow_op5powerEEEvRKN4nnvm9NodeAttrsERKNS_9OpContextERKSt6vectorINS_7NDArrayESaISF_EERKSE_INS_9OpReqTypeESaISK_EESJ_
libmxnet.so:_ZN5mxnet2op16ElemwiseBinaryOp9ComputeExIN7mshadow3cpuENS0_10mshadow_op7maximumEEEvRKN4nnvm9NodeAttrsERKNS_9OpContextERKSt6vectorINS_7NDArrayESaISF_EERKSE_INS_9OpReqTypeESaISK_EESJ_
libmxnet.so:_ZN5mxnet2op16ElemwiseBinaryOp9ComputeExIN7mshadow3cpuENS0_10mshadow_op7minimumEEEvRKN4nnvm9NodeAttrsERKNS_9OpContextERKSt6vectorINS_7NDArrayESaISF_EERKSE_INS_9OpReqTypeESaISK_EESJ_
libmxnet.so:_ZN5mxnet2op16ElemwiseBinaryOp9ComputeExIN7mshadow3cpuENS0_8mxnet_op19backward_grad_tunedINS0_10mshadow_op10gamma_gradEEEEEvRKN4nnvm9NodeAttrsERKNS_9OpContextERKSt6vectorINS_7NDArrayESaISI_EERKSH_INS_9OpReqTypeESaISN_EESM_
libmxnet.so:_ZN5mxnet2op16ElemwiseBinaryOp9ComputeExIN7mshadow3cpuENS0_8mxnet_op19backward_grad_tunedINS0_10mshadow_op10log10_gradEEEEEvRKN4nnvm9NodeAttrsERKNS_9OpContextERKSt6vectorINS_7NDArrayESaISI_EERKSH_INS_9OpReqTypeESaISN_EESM_
libmxnet.so:_ZN5mxnet2op16ElemwiseBinaryOp9ComputeExIN7mshadow3cpuENS0_8mxnet_op19backward_grad_tunedINS0_10mshadow_op10log1p_gradEEEEEvRKN4nnvm9NodeAttrsERKNS_9OpContextERKSt6vectorINS_7NDArrayESaISI_EERKSH_INS_9OpReqTypeESaISN_EESM_
libmxnet.so:_ZN5mxnet2op16ElemwiseBinaryOp9ComputeExIN7mshadow3cpuENS0_8mxnet_op19backward_grad_tunedINS0_10mshadow_op11arccos_gradEEEEEvRKN4nnvm9NodeAttrsERKNS_9OpContextERKSt6vectorINS_7NDArrayESaISI_EERKSH_INS_9OpReqTypeESaISN_EESM_
libmxnet.so:_ZN5mxnet2op16ElemwiseBinaryOp9ComputeExIN7mshadow3cpuENS0_8mxnet_op19backward_grad_tunedINS0_10mshadow_op11arcsin_gradEEEEEvRKN4nnvm9NodeAttrsERKNS_9OpContextERKSt6vectorINS_7NDArrayESaISI_EERKSH_INS_9OpReqTypeESaISN_EESM_
libmxnet.so:_ZN5mxnet2op16ElemwiseBinaryOp9ComputeExIN7mshadow3cpuENS0_8mxnet_op19backward_grad_tunedINS0_10mshadow_op11arctan_gradEEEEEvRKN4nnvm9NodeAttrsERKNS_9OpContextERKSt6vectorINS_7NDArrayESaISI_EERKSH_INS_9OpReqTypeESaISN_EESM_
libmxnet.so:_ZN5mxnet2op16ElemwiseBinaryOp9ComputeExIN7mshadow3cpuENS0_8mxnet_op19backward_grad_tunedINS0_10mshadow_op11square_gradEEEEEvRKN4nnvm9NodeAttrsERKNS_9OpContextERKSt6vectorINS_7NDArrayESaISI_EERKSH_INS_9OpReqTypeESaISN_EESM_
libmxnet.so:_ZN5mxnet2op16ElemwiseBinaryOp9ComputeExIN7mshadow3cpuENS0_8mxnet_op19backward_grad_tunedINS0_10mshadow_op12arccosh_gradEEEEEvRKN4nnvm9NodeAttrsERKNS_9OpContextERKSt6vectorINS_7NDArrayESaISI_EERKSH_INS_9OpReqTypeESaISN_EESM_
libmxnet.so:_ZN5mxnet2op16ElemwiseBinaryOp9ComputeExIN7mshadow3cpuENS0_8mxnet_op19backward_grad_tunedINS0_10mshadow_op12arcsinh_gradEEEEEvRKN4nnvm9NodeAttrsERKNS_9OpContextERKSt6vectorINS_7NDArrayESaISI_EERKSH_INS_9OpReqTypeESaISN_EESM_
libmxnet.so:_ZN5mxnet2op16ElemwiseBinaryOp9ComputeExIN7mshadow3cpuENS0_8mxnet_op19backward_grad_tunedINS0_10mshadow_op12arctanh_gradEEEEEvRKN4nnvm9NodeAttrsERKNS_9OpContextERKSt6vectorINS_7NDArrayESaISI_EERKSH_INS_9OpReqTypeESaISN_EESM_
libmxnet.so:_ZN5mxnet2op16ElemwiseBinaryOp9ComputeExIN7mshadow3cpuENS0_8mxnet_op19backward_grad_tunedINS0_10mshadow_op12degrees_gradEEEEEvRKN4nnvm9NodeAttrsERKNS_9OpContextERKSt6vectorINS_7NDArrayESaISI_EERKSH_INS_9OpReqTypeESaISN_EESM_
libmxnet.so:_ZN5mxnet2op16ElemwiseBinaryOp9ComputeExIN7mshadow3cpuENS0_8mxnet_op19backward_grad_tunedINS0_10mshadow_op12gammaln_gradEEEEEvRKN4nnvm9NodeAttrsERKNS_9OpContextERKSt6vectorINS_7NDArrayESaISI_EERKSH_INS_9OpReqTypeESaISN_EESM_
libmxnet.so:_ZN5mxnet2op16ElemwiseBinaryOp9ComputeExIN7mshadow3cpuENS0_8mxnet_op19backward_grad_tunedINS0_10mshadow_op12radians_gradEEEEEvRKN4nnvm9NodeAttrsERKNS_9OpContextERKSt6vectorINS_7NDArrayESaISI_EERKSH_INS_9OpReqTypeESaISN_EESM_
libmxnet.so:_ZN5mxnet2op16ElemwiseBinaryOp9ComputeExIN7mshadow3cpuENS0_8mxnet_op19backward_grad_tunedINS0_10mshadow_op12sigmoid_gradEEEEEvRKN4nnvm9NodeAttrsERKNS_9OpContextERKSt6vectorINS_7NDArrayESaISI_EERKSH_INS_9OpReqTypeESaISN_EESM_
libmxnet.so:_ZN5mxnet2op16ElemwiseBinaryOp9ComputeExIN7mshadow3cpuENS0_8mxnet_op19backward_grad_tunedINS0_10mshadow_op14cube_root_gradEEEEEvRKN4nnvm9NodeAttrsERKNS_9OpContextERKSt6vectorINS_7NDArrayESaISI_EERKSH_INS_9OpReqTypeESaISN_EESM_
libmxnet.so:_ZN5mxnet2op16ElemwiseBinaryOp9ComputeExIN7mshadow3cpuENS0_8mxnet_op19backward_grad_tunedINS0_10mshadow_op16square_root_gradEEEEEvRKN4nnvm9NodeAttrsERKNS_9OpContextERKSt6vectorINS_7NDArrayESaISI_EERKSH_INS_9OpReqTypeESaISN_EESM_
libmxnet.so:_ZN5mxnet2op16ElemwiseBinaryOp9ComputeExIN7mshadow3cpuENS0_8mxnet_op19backward_grad_tunedINS0_10mshadow_op27reciprocal_square_root_gradEEEEEvRKN4nnvm9NodeAttrsERKNS_9OpContextERKSt6vectorINS_7NDArrayESaISI_EERKSH_INS_9OpReqTypeESaISN_EESM_
libmxnet.so:_ZN5mxnet2op16ElemwiseBinaryOp9ComputeExIN7mshadow3cpuENS0_8mxnet_op19backward_grad_tunedINS0_10mshadow_op3expEEEEEvRKN4nnvm9NodeAttrsERKNS_9OpContextERKSt6vectorINS_7NDArrayESaISI_EERKSH_INS_9OpReqTypeESaISN_EESM_
libmxnet.so:_ZN5mxnet2op16ElemwiseBinaryOp9ComputeExIN7mshadow3cpuENS0_8mxnet_op19backward_grad_tunedINS0_10mshadow_op4signEEEEEvRKN4nnvm9NodeAttrsERKNS_9OpContextERKSt6vectorINS_7NDArrayESaISI_EERKSH_INS_9OpReqTypeESaISN_EESM_
libmxnet.so:_ZN5mxnet2op16ElemwiseBinaryOp9ComputeExIN7mshadow3cpuENS0_8mxnet_op19backward_grad_tunedINS0_10mshadow_op8cos_gradEEEEEvRKN4nnvm9NodeAttrsERKNS_9OpContextERKSt6vectorINS_7NDArrayESaISI_EERKSH_INS_9OpReqTypeESaISN_EESM_
libmxnet.so:_ZN5mxnet2op16ElemwiseBinaryOp9ComputeExIN7mshadow3cpuENS0_8mxnet_op19backward_grad_tunedINS0_10mshadow_op8log_gradEEEEEvRKN4nnvm9NodeAttrsERKNS_9OpContextERKSt6vectorINS_7NDArrayESaISI_EERKSH_INS_9OpReqTypeESaISN_EESM_
libmxnet.so:_ZN5mxnet2op16ElemwiseBinaryOp9ComputeExIN7mshadow3cpuENS0_8mxnet_op19backward_grad_tunedINS0_10mshadow_op8sin_gradEEEEEvRKN4nnvm9NodeAttrsERKNS_9OpContextERKSt6vectorINS_7NDArrayESaISI_EERKSH_INS_9OpReqTypeESaISN_EESM_
libmxnet.so:_ZN5mxnet2op16ElemwiseBinaryOp9ComputeExIN7mshadow3cpuENS0_8mxnet_op19backward_grad_tunedINS0_10mshadow_op8tan_gradEEEEEvRKN4nnvm9NodeAttrsERKNS_9OpContextERKSt6vectorINS_7NDArrayESaISI_EERKSH_INS_9OpReqTypeESaISN_EESM_
libmxnet.so:_ZN5mxnet2op16ElemwiseBinaryOp9ComputeExIN7mshadow3cpuENS0_8mxnet_op19backward_grad_tunedINS0_10mshadow_op9cosh_gradEEEEEvRKN4nnvm9NodeAttrsERKNS_9OpContextERKSt6vectorINS_7NDArrayESaISI_EERKSH_INS_9OpReqTypeESaISN_EESM_
libmxnet.so:_ZN5mxnet2op16ElemwiseBinaryOp9ComputeExIN7mshadow3cpuENS0_8mxnet_op19backward_grad_tunedINS0_10mshadow_op9log2_gradEEEEEvRKN4nnvm9NodeAttrsERKNS_9OpContextERKSt6vectorINS_7NDArrayESaISI_EERKSH_INS_9OpReqTypeESaISN_EESM_
libmxnet.so:_ZN5mxnet2op16ElemwiseBinaryOp9ComputeExIN7mshadow3cpuENS0_8mxnet_op19backward_grad_tunedINS0_10mshadow_op9relu_gradEEEEEvRKN4nnvm9NodeAttrsERKNS_9OpContextERKSt6vectorINS_7NDArrayESaISI_EERKSH_INS_9OpReqTypeESaISN_EESM_
libmxnet.so:_ZN5mxnet2op16ElemwiseBinaryOp9ComputeExIN7mshadow3cpuENS0_8mxnet_op19backward_grad_tunedINS0_10mshadow_op9sign_gradEEEEEvRKN4nnvm9NodeAttrsERKNS_9OpContextERKSt6vectorINS_7NDArrayESaISI_EERKSH_INS_9OpReqTypeESaISN_EESM_
libmxnet.so:_ZN5mxnet2op16ElemwiseBinaryOp9ComputeExIN7mshadow3cpuENS0_8mxnet_op19backward_grad_tunedINS0_10mshadow_op9sinh_gradEEEEEvRKN4nnvm9NodeAttrsERKNS_9OpContextERKSt6vectorINS_7NDArrayESaISI_EERKSH_INS_9OpReqTypeESaISN_EESM_
libmxnet.so:_ZN5mxnet2op16ElemwiseBinaryOp9ComputeExIN7mshadow3cpuENS0_8mxnet_op19backward_grad_tunedINS0_10mshadow_op9tanh_gradEEEEEvRKN4nnvm9NodeAttrsERKNS_9OpContextERKSt6vectorINS_7NDArrayESaISI_EERKSH_INS_9OpReqTypeESaISN_EESM_
libmxnet.so:_ZN5mxnet2op16EmbeddingOpShapeINS0_14EmbeddingParamEEEbRKN4nnvm9NodeAttrsEPSt6vectorINS_6TShapeESaIS8_EESB_
libmxnet.so:_ZN5mxnet2op16EmbeddingOpShapeINS0_20SparseEmbeddingParamEEEbRKN4nnvm9NodeAttrsEPSt6vectorINS_6TShapeESaIS8_EESB_
libmxnet.so:_ZN5mxnet2op16GatherNDBackwardIN7mshadow3cpuEEEvRKN4nnvm9NodeAttrsERKNS_9OpContextERKSt6vectorINS_5TBlobESaISC_EERKSB_INS_9OpReqTypeESaISH_EESG_
libmxnet.so:_ZN5mxnet2op16GetNumBackInputsERKNS0_12PoolingParamE
libmxnet.so:_ZN5mxnet2op16HardSigmoidParam11__MANAGER__Ev
libmxnet.so:_ZN5mxnet2op16HawkesLLBackwardIN7mshadow3cpuEEEvRKN4nnvm9NodeAttrsERKNS_9OpContextERKSt6vectorINS_5TBlobESaISC_EERKSB_INS_9OpReqTypeESaISH_EESG_
libmxnet.so:_ZN5mxnet2op16HistogramOpShapeERKN4nnvm9NodeAttrsEPSt6vectorINS_6TShapeESaIS6_EES9_
libmxnet.so:_ZN5mxnet2op16IndexCopyForwardIN7mshadow3cpuEEEvRKN4nnvm9NodeAttrsERKNS_9OpContextERKSt6vectorINS_5TBlobESaISC_EERKSB_INS_9OpReqTypeESaISH_EESG_
libmxnet.so:_ZN5mxnet2op16KhatriRaoComputeIN7mshadow3cpuEEEvRKN4nnvm9NodeAttrsERKNS_9OpContextERKSt6vectorINS_5TBlobESaISC_EERKSB_INS_9OpReqTypeESaISH_EESG_
libmxnet.so:_ZN5mxnet2op16LaDiagTrianShapeILb0ELb0EEEbRKN4nnvm9NodeAttrsEPSt6vectorINS_6TShapeESaIS7_EESA_
libmxnet.so:_ZN5mxnet2op16LaDiagTrianShapeILb0ELb1EEEbRKN4nnvm9NodeAttrsEPSt6vectorINS_6TShapeESaIS7_EESA_
libmxnet.so:_ZN5mxnet2op16LaDiagTrianShapeILb1ELb0EEEbRKN4nnvm9NodeAttrsEPSt6vectorINS_6TShapeESaIS7_EESA_
libmxnet.so:_ZN5mxnet2op16LaDiagTrianShapeILb1ELb1EEEbRKN4nnvm9NodeAttrsEPSt6vectorINS_6TShapeESaIS7_EESA_
libmxnet.so:_ZN5mxnet2op16LaMatrixMacParam11__MANAGER__Ev
libmxnet.so:_ZN5mxnet2op16LaOpGemmBackwardIN7mshadow3cpuELi2ELi2ELi3ELi2ENS0_14gemm2_backwardEEEvRKN4nnvm9NodeAttrsERKNS_9OpContextERKSt6vectorINS_5TBlobESaISD_EERKSC_INS_9OpReqTypeESaISI_EESH_
libmxnet.so:_ZN5mxnet2op16LaOpGemmBackwardIN7mshadow3cpuELi2ELi2ELi4ELi3ENS0_13gemm_backwardEEEvRKN4nnvm9NodeAttrsERKNS_9OpContextERKSt6vectorINS_5TBlobESaISD_EERKSC_INS_9OpReqTypeESaISI_EESH_
libmxnet.so:_ZN5mxnet2op16LayerNormComputeIN7mshadow3cpuEEEvRKN4nnvm9NodeAttrsERKNS_9OpContextERKSt6vectorINS_5TBlobESaISC_EERKSB_INS_9OpReqTypeESaISH_EESG_
libmxnet.so:_ZN5mxnet2op16LegacyOpBackwardERKNS_10OpStatePtrERKNS_9OpContextERKSt6vectorINS_5TBlobESaIS8_EERKS7_INS_9OpReqTypeESaISD_EESC_
libmxnet.so:_ZN5mxnet2op16MultiSGDMomParam11__MANAGER__Ev
libmxnet.so:_ZN5mxnet2op16MultiSampleParam11__MANAGER__Ev
libmxnet.so:_ZN5mxnet2op16OpBackNumOutputsERKN4nnvm9NodeAttrsE
libmxnet.so:_ZN5mxnet2op16OpPropInferShapeERKN4nnvm9NodeAttrsEPSt6vectorINS_6TShapeESaIS6_EES9_
libmxnet.so:_ZN5mxnet2op16OpPropNumOutputsERKN4nnvm9NodeAttrsE
libmxnet.so:_ZN5mxnet2op16QuadraticOpShapeERKN4nnvm9NodeAttrsEPSt6vectorINS_6TShapeESaIS6_EES9_
libmxnet.so:_ZN5mxnet2op16RMSPropAlexParam11__MANAGER__Ev
libmxnet.so:_ZN5mxnet2op16RangeParamParserEPN4nnvm9NodeAttrsE
libmxnet.so:_ZN5mxnet2op16RepeatOpBackwardIN7mshadow3cpuEEEvRKN4nnvm9NodeAttrsERKNS_9OpContextERKSt6vectorINS_5TBlobESaISC_EERKSB_INS_9OpReqTypeESaISH_EESG_
libmxnet.so:_ZN5mxnet2op16ReshapeLikeParam11__MANAGER__Ev
libmxnet.so:_ZN5mxnet2op16ReverseOpForwardIN7mshadow3cpuEEEvRKN4nnvm9NodeAttrsERKNS_9OpContextERKSt6vectorINS_5TBlobESaISC_EERKSB_INS_9OpReqTypeESaISH_EESG_
libmxnet.so:_ZN5mxnet2op16SampleGammaParam11__MANAGER__Ev
libmxnet.so:_ZN5mxnet2op16SampleUniqueTypeINS0_24SampleUniqueZifpianParamEEEbRKN4nnvm9NodeAttrsEPSt6vectorIiSaIiEESA_
libmxnet.so:_ZN5mxnet2op16ScatterNDForwardIN7mshadow3cpuEEEvRKN4nnvm9NodeAttrsERKNS_9OpContextERKSt6vectorINS_5TBlobESaISC_EERKSB_INS_9OpReqTypeESaISH_EESG_
libmxnet.so:_ZN5mxnet2op16SimpleOpRegistry20__REGISTER_OR_FIND__EPKc
libmxnet.so:_ZN5mxnet2op16SimpleOpRegistry3GetEv
libmxnet.so:_ZN5mxnet2op16SimpleOpRegistryD1Ev
libmxnet.so:_ZN5mxnet2op16SimpleOpRegistryD2Ev
libmxnet.so:_ZN5mxnet2op16SliceLikeForwardIN7mshadow3cpuEEEvRKN4nnvm9NodeAttrsERKNS_9OpContextERKSt6vectorINS_5TBlobESaISC_EERKSB_INS_9OpReqTypeESaISH_EESG_
libmxnet.so:_ZN5mxnet2op16SupportMKLDNNSumERKNS_7NDArrayE
libmxnet.so:_ZN5mxnet2op16WhereOpForwardExIN7mshadow3cpuEEEvRKN4nnvm9NodeAttrsERKNS_9OpContextERKSt6vectorINS_7NDArrayESaISC_EERKSB_INS_9OpReqTypeESaISH_EESG_
libmxnet.so:_ZN5mxnet2op17AMPMultiCastParam11__MANAGER__Ev
libmxnet.so:_ZN5mxnet2op17AMPMultiCastShapeERKN4nnvm9NodeAttrsEPSt6vectorINS_6TShapeESaIS6_EES9_
libmxnet.so:_ZN5mxnet2op17ActivationComputeIN7mshadow3cpuEEEvRKN4nnvm9NodeAttrsERKNS_9OpContextERKSt6vectorINS_5TBlobESaISC_EERKSB_INS_9OpReqTypeESaISH_EESG_
libmxnet.so:_ZN5mxnet2op17BatchDotBackward_IN7mshadow3cpuEEEvRKN4nnvm9NodeAttrsERKNS_9OpContextERKSt6vectorINS_5TBlobESaISC_EERKSB_INS_9OpReqTypeESaISH_EESG_
libmxnet.so:_ZN5mxnet2op17BoxOverlapForwardIN7mshadow3cpuEEEvRKN4nnvm9NodeAttrsERKNS_9OpContextERKSt6vectorINS_5TBlobESaISC_EERKSB_INS_9OpReqTypeESaISH_EESG_
libmxnet.so:_ZN5mxnet2op17CTCLossOpBackwardIN7mshadow3cpuEEEvRKN4nnvm9NodeAttrsERKNS_9OpContextERKSt6vectorINS_5TBlobESaISC_EERKSB_INS_9OpReqTypeESaISH_EESG_
libmxnet.so:_ZN5mxnet2op17ConcatGradComputeIN7mshadow3cpuEEEvRKN4nnvm9NodeAttrsERKNS_9OpContextERKSt6vectorINS_5TBlobESaISC_EERKSB_INS_9OpReqTypeESaISH_EESG_
libmxnet.so:_ZN5mxnet2op17DGLAdjacencyShapeERKN4nnvm9NodeAttrsEPSt6vectorINS_6TShapeESaIS6_EES9_
libmxnet.so:_ZN5mxnet2op17DepthToSpaceParam11__MANAGER__Ev
libmxnet.so:_ZN5mxnet2op17EdgeIDStorageTypeERKN4nnvm9NodeAttrsEiPNS_12DispatchModeEPSt6vectorIiSaIiEESA_
libmxnet.so:_ZN5mxnet2op17GroupAdagradParam11__MANAGER__Ev
libmxnet.so:_ZN5mxnet2op17GroupAdagradShapeERKN4nnvm9NodeAttrsEPSt6vectorINS_6TShapeESaIS6_EES9_
libmxnet.so:_ZN5mxnet2op17IndexCopyBackwardIN7mshadow3cpuEEEvRKN4nnvm9NodeAttrsERKNS_9OpContextERKSt6vectorINS_5TBlobESaISC_EERKSB_INS_9OpReqTypeESaISH_EESG_
libmxnet.so:_ZN5mxnet2op17InstanceNormParam11__MANAGER__Ev
libmxnet.so:_ZN5mxnet2op17LaMatrixMultParam11__MANAGER__Ev
libmxnet.so:_ZN5mxnet2op17LpNormGradComputeIN7mshadow3cpuEEEvRKN4nnvm9NodeAttrsERKNS_9OpContextERKSt6vectorINS_5TBlobESaISC_EERKSB_INS_9OpReqTypeESaISH_EESG_
libmxnet.so:_ZN5mxnet2op17LpNormStorageTypeERKN4nnvm9NodeAttrsEiPNS_12DispatchModeEPSt6vectorIiSaIiEESA_
libmxnet.so:_ZN5mxnet2op17MPUpdateInferTypeILi2ELi1ELi6EEEbRKN4nnvm9NodeAttrsEPSt6vectorIiSaIiEES9_
libmxnet.so:_ZN5mxnet2op17MPUpdateInferTypeILi4ELi1ELi5EEEbRKN4nnvm9NodeAttrsEPSt6vectorIiSaIiEES9_
libmxnet.so:_ZN5mxnet2op17MakeZeroGradNodesERKSt10shared_ptrIN4nnvm4NodeEERKSt6vectorINS2_9NodeEntryESaIS8_EE
libmxnet.so:_ZN5mxnet2op17MultiAllFiniteCPUERKN4nnvm9NodeAttrsERKNS_9OpContextERKSt6vectorINS_5TBlobESaIS9_EERKS8_INS_9OpReqTypeESaISE_EESD_
libmxnet.so:_ZN5mxnet2op17MultiSGDMomUpdateIN7mshadow3cpuENS0_13type_identityELi3EEEvRKN4nnvm9NodeAttrsERKNS_9OpContextERKSt6vectorINS_5TBlobESaISD_EERKSC_INS_9OpReqTypeESaISI_EESH_
libmxnet.so:_ZN5mxnet2op17MultiSGDMomUpdateIN7mshadow3cpuENS0_16single_precisionELi4EEEvRKN4nnvm9NodeAttrsERKNS_9OpContextERKSt6vectorINS_5TBlobESaISD_EERKSC_INS_9OpReqTypeESaISI_EESH_
libmxnet.so:_ZN5mxnet2op17MultiSampleOpTypeERKN4nnvm9NodeAttrsEPSt6vectorIiSaIiEES8_
libmxnet.so:_ZN5mxnet2op17NNZComputeCsrImplIN7mshadow3cpuEEEvRKNS0_8NNZParamERKNS_9OpContextERKNS_7NDArrayENS_9OpReqTypeERKNS_5TBlobE
libmxnet.so:_ZN5mxnet2op17PSROIPoolingParam11__MANAGER__Ev
libmxnet.so:_ZN5mxnet2op17QuantizedConvTypeERKN4nnvm9NodeAttrsEPSt6vectorIiSaIiEES8_
libmxnet.so:_ZN5mxnet2op17RMSPropAlexUpdateIN7mshadow3cpuEEEvRKN4nnvm9NodeAttrsERKNS_9OpContextERKSt6vectorINS_5TBlobESaISC_EERKSB_INS_9OpReqTypeESaISH_EESG_
libmxnet.so:_ZN5mxnet2op17ReduceAxesComputeIN7mshadow3cpuENS0_10mshadow_op6nansumELb0ENS4_8identityEEEvRKN4nnvm9NodeAttrsERKNS_9OpContextERKSt6vectorINS_5TBlobESaISF_EERKSE_INS_9OpReqTypeESaISK_EESJ_
libmxnet.so:_ZN5mxnet2op17ReduceAxesComputeIN7mshadow3cpuENS0_10mshadow_op7nanprodELb0ENS4_8identityEEEvRKN4nnvm9NodeAttrsERKNS_9OpContextERKSt6vectorINS_5TBlobESaISF_EERKSE_INS_9OpReqTypeESaISK_EESJ_
libmxnet.so:_ZN5mxnet2op17ReduceAxesComputeIN7mshadow3cpuENS0_10mshadow_op7productELb0ENS4_8identityEEEvRKN4nnvm9NodeAttrsERKNS_9OpContextERKSt6vectorINS_5TBlobESaISF_EERKSE_INS_9OpReqTypeESaISK_EESJ_
libmxnet.so:_ZN5mxnet2op17ReduceAxesComputeIN7mshadow3cpuENS2_3red3sumELb0ENS0_10mshadow_op8identityEEEvRKN4nnvm9NodeAttrsERKNS_9OpContextERKSt6vectorINS_5TBlobESaISG_EERKSF_INS_9OpReqTypeESaISL_EESK_
libmxnet.so:_ZN5mxnet2op17ReduceAxesComputeIN7mshadow3cpuENS2_3red3sumELb1ENS0_10mshadow_op8identityEEEvRKN4nnvm9NodeAttrsERKNS_9OpContextERKSt6vectorINS_5TBlobESaISG_EERKSF_INS_9OpReqTypeESaISL_EESK_
libmxnet.so:_ZN5mxnet2op17ReduceAxesComputeIN7mshadow3cpuENS2_3red7maximumELb0ENS0_10mshadow_op8identityEEEvRKN4nnvm9NodeAttrsERKNS_9OpContextERKSt6vectorINS_5TBlobESaISG_EERKSF_INS_9OpReqTypeESaISL_EESK_
libmxnet.so:_ZN5mxnet2op17ReduceAxesComputeIN7mshadow3cpuENS2_3red7minimumELb0ENS0_10mshadow_op8identityEEEvRKN4nnvm9NodeAttrsERKNS_9OpContextERKSt6vectorINS_5TBlobESaISG_EERKSF_INS_9OpReqTypeESaISL_EESK_
libmxnet.so:_ZN5mxnet2op17RegressionForwardIN7mshadow3cpuENS0_10mshadow_op7sigmoidEEEvRKN4nnvm9NodeAttrsERKNS_9OpContextERKSt6vectorINS_5TBlobESaISE_EERKSD_INS_9OpReqTypeESaISJ_EESI_
libmxnet.so:_ZN5mxnet2op17RegressionForwardIN7mshadow3cpuENS0_10mshadow_op8identityEEEvRKN4nnvm9NodeAttrsERKNS_9OpContextERKSt6vectorINS_5TBlobESaISE_EERKSD_INS_9OpReqTypeESaISJ_EESI_
libmxnet.so:_ZN5mxnet2op17RegressionOpShapeERKN4nnvm9NodeAttrsEPSt6vectorINS_6TShapeESaIS6_EES9_
libmxnet.so:_ZN5mxnet2op17RequantizeForwardIN7mshadow3cpuEEEvRKN4nnvm9NodeAttrsERKNS_9OpContextERKSt6vectorINS_5TBlobESaISC_EERKSB_INS_9OpReqTypeESaISH_EESG_
libmxnet.so:_ZN5mxnet2op17SampleNormalParam11__MANAGER__Ev
libmxnet.so:_ZN5mxnet2op17SampleUniqueShapeINS0_24SampleUniqueZifpianParamEEEbRKN4nnvm9NodeAttrsEPSt6vectorINS_6TShapeESaIS8_EESB_
libmxnet.so:_ZN5mxnet2op17SearchAxisComputeIN7mshadow3cpuENS2_3red7maximumEEEvRKN4nnvm9NodeAttrsERKNS_9OpContextERKSt6vectorINS_5TBlobESaISE_EERKSD_INS_9OpReqTypeESaISJ_EESI_
libmxnet.so:_ZN5mxnet2op17SearchAxisComputeIN7mshadow3cpuENS2_3red7minimumEEEvRKN4nnvm9NodeAttrsERKNS_9OpContextERKSt6vectorINS_5TBlobESaISE_EERKSD_INS_9OpReqTypeESaISJ_EESI_
libmxnet.so:_ZN5mxnet2op17SequenceLastParam11__MANAGER__Ev
libmxnet.so:_ZN5mxnet2op17SequenceMaskParam11__MANAGER__Ev
libmxnet.so:_ZN5mxnet2op17ShuffleForwardCPUERKN4nnvm9NodeAttrsERKNS_9OpContextERKSt6vectorINS_5TBlobESaIS9_EERKS8_INS_9OpReqTypeESaISE_EESD_
libmxnet.so:_ZN5mxnet2op17SliceChannelParam11__MANAGER__Ev
libmxnet.so:_ZN5mxnet2op17SliceLikeBackwardIN7mshadow3cpuEEEvRKN4nnvm9NodeAttrsERKNS_9OpContextERKSt6vectorINS_5TBlobESaISC_EERKSB_INS_9OpReqTypeESaISH_EESG_
libmxnet.so:_ZN5mxnet2op17StdOptStorageTypeILm1ENS0_11SGDMomParamEEEbRKN4nnvm9NodeAttrsEiPNS_12DispatchModeEPSt6vectorIiSaIiEESC_
libmxnet.so:_ZN5mxnet2op17StdOptStorageTypeILm2ENS0_9AdamParamEEEbRKN4nnvm9NodeAttrsEiPNS_12DispatchModeEPSt6vectorIiSaIiEESC_
libmxnet.so:_ZN5mxnet2op17UpSamplingComputeIN7mshadow3cpuEEEvRKN4nnvm9NodeAttrsERKNS_9OpContextERKSt6vectorINS_5TBlobESaISC_EERKSB_INS_9OpReqTypeESaISH_EESG_
libmxnet.so:_ZN5mxnet2op17WhereOpBackwardExIN7mshadow3cpuEEEvRKN4nnvm9NodeAttrsERKNS_9OpContextERKSt6vectorINS_7NDArrayESaISC_EERKSB_INS_9OpReqTypeESaISH_EESG_
libmxnet.so:_ZN5mxnet2op18AdagradStorageTypeERKN4nnvm9NodeAttrsEiPNS_12DispatchModeEPSt6vectorIiSaIiEESA_
libmxnet.so:_ZN5mxnet2op18BatchTakeOpForwardIN7mshadow3cpuEEEvRKN4nnvm9NodeAttrsERKNS_9OpContextERKSt6vectorINS_5TBlobESaISC_EERKSB_INS_9OpReqTypeESaISH_EESG_
libmxnet.so:_ZN5mxnet2op18BooleanMaskForwardIN7mshadow3cpuEEEvRKN4nnvm9NodeAttrsERKNS_9OpContextERKSt6vectorINS_7NDArrayESaISC_EERKSB_INS_9OpReqTypeESaISH_EESG_
libmxnet.so:_ZN5mxnet2op18BoxOverlapBackwardIN7mshadow3cpuEEEvRKN4nnvm9NodeAttrsERKNS_9OpContextERKSt6vectorINS_5TBlobESaISC_EERKSB_INS_9OpReqTypeESaISH_EESG_
libmxnet.so:_ZN5mxnet2op18BroadcastAxesParam11__MANAGER__Ev
libmxnet.so:_ZN5mxnet2op18BroadcastAxesShapeERKN4nnvm9NodeAttrsEPSt6vectorINS_6TShapeESaIS6_EES9_
libmxnet.so:_ZN5mxnet2op18BroadcastLikeParam11__MANAGER__Ev
libmxnet.so:_ZN5mxnet2op18BroadcastLikeShapeERKN4nnvm9NodeAttrsEPSt6vectorINS_6TShapeESaIS6_EES9_
libmxnet.so:_ZN5mxnet2op18CTCLossOpNumInputsERKN4nnvm9NodeAttrsE
libmxnet.so:_ZN5mxnet2op18ConvolutionComputeIN7mshadow3cpuEEEvRKN4nnvm9NodeAttrsERKNS_9OpContextERKSt6vectorINS_5TBlobESaISC_EERKSB_INS_9OpReqTypeESaISH_EESG_
libmxnet.so:_ZN5mxnet2op18ConvolutionV1Param11__MANAGER__Ev
libmxnet.so:_ZN5mxnet2op18CreateDropoutStateERKN4nnvm9NodeAttrsENS_7ContextERKSt6vectorINS_6TShapeESaIS7_EERKS6_IiSaIiEE
libmxnet.so:_ZN5mxnet2op18DeconvolutionParam11__MANAGER__Ev
libmxnet.so:_ZN5mxnet2op18DepthToSpaceOpTypeERKN4nnvm9NodeAttrsEPSt6vectorIiSaIiEES8_
libmxnet.so:_ZN5mxnet2op18DropoutGradComputeIN7mshadow3cpuEEEvRKNS_10OpStatePtrERKNS_9OpContextERKSt6vectorINS_5TBlobESaISB_EERKSA_INS_9OpReqTypeESaISG_EESF_
libmxnet.so:_ZN5mxnet2op18ElementWiseSumGradERKSt10shared_ptrIN4nnvm4NodeEERKSt6vectorINS2_9NodeEntryESaIS8_EE
libmxnet.so:_ZN5mxnet2op18ElementWiseSumTypeERKN4nnvm9NodeAttrsEPSt6vectorIiSaIiEES8_
libmxnet.so:_ZN5mxnet2op18EmbeddingOpForwardIN7mshadow3cpuEEEvRKN4nnvm9NodeAttrsERKNS_9OpContextERKSt6vectorINS_5TBlobESaISC_EERKSB_INS_9OpReqTypeESaISH_EESG_
libmxnet.so:_ZN5mxnet2op18FillComputeZerosExIN7mshadow3cpuEEEvRKN4nnvm9NodeAttrsERKNS_9OpContextERKSt6vectorINS_7NDArrayESaISC_EERKSB_INS_9OpReqTypeESaISH_EESG_
libmxnet.so:_ZN5mxnet2op18GridGeneratorParam11__MANAGER__Ev
libmxnet.so:_ZN5mxnet2op18HardSigmoidForwardIN7mshadow3cpuEEEvRKN4nnvm9NodeAttrsERKNS_9OpContextERKSt6vectorINS_5TBlobESaISC_EERKSB_INS_9OpReqTypeESaISH_EESG_
libmxnet.so:_ZN5mxnet2op18HistogramOpForwardIN7mshadow3cpuEEEvRKN4nnvm9NodeAttrsERKNS_9OpContextERKSt6vectorINS_5TBlobESaISC_EERKSB_INS_9OpReqTypeESaISH_EESG_
libmxnet.so:_ZN5mxnet2op18InferSubgraphShapeERKN4nnvm6SymbolEPSt6vectorINS_6TShapeESaIS6_EES9_
libmxnet.so:_ZN5mxnet2op18MPUpdateInferShapeILi2ELi1ELi6EEEbRKN4nnvm9NodeAttrsEPSt6vectorINS_6TShapeESaIS7_EESA_
libmxnet.so:_ZN5mxnet2op18MPUpdateInferShapeILi4ELi1ELi5EEEbRKN4nnvm9NodeAttrsEPSt6vectorINS_6TShapeESaIS7_EESA_
libmxnet.so:_ZN5mxnet2op18MultiBoxPriorParam11__MANAGER__Ev
libmxnet.so:_ZN5mxnet2op18MultiProposalParam11__MANAGER__Ev
libmxnet.so:_ZN5mxnet2op18MultiSampleOpShapeERKN4nnvm9NodeAttrsEPSt6vectorINS_6TShapeESaIS6_EES9_
libmxnet.so:_ZN5mxnet2op18OpBackMutateInputsERKN4nnvm9NodeAttrsE
libmxnet.so:_ZN5mxnet2op18OpPropMutateInputsERKN4nnvm9NodeAttrsE
libmxnet.so:_ZN5mxnet2op18PoolingGradComputeIN7mshadow3cpuEEEvRKN4nnvm9NodeAttrsERKNS_9OpContextERKSt6vectorINS_5TBlobESaISC_EERKSB_INS_9OpReqTypeESaISH_EESG_
libmxnet.so:_ZN5mxnet2op18PoolingParamParserEPN4nnvm9NodeAttrsE
libmxnet.so:_ZN5mxnet2op18QuadraticOpForwardIN7mshadow3cpuEEEvRKN4nnvm9NodeAttrsERKNS_9OpContextERKSt6vectorINS_5TBlobESaISC_EERKSB_INS_9OpReqTypeESaISH_EESG_
libmxnet.so:_ZN5mxnet2op18QuantizedConvShapeERKN4nnvm9NodeAttrsEPSt6vectorINS_6TShapeESaIS6_EES9_
libmxnet.so:_ZN5mxnet2op18RNNStatefulComputeIN7mshadow3cpuEEEvRKNS_10OpStatePtrERKNS_9OpContextERKSt6vectorINS_5TBlobESaISB_EERKSA_INS_9OpReqTypeESaISG_EESF_
libmxnet.so:_ZN5mxnet2op18RegressionBackwardIN7mshadow3cpuENS0_10mshadow_op10minus_signEEEvRKN4nnvm9NodeAttrsERKNS_9OpContextERKSt6vectorINS_5TBlobESaISE_EERKSD_INS_9OpReqTypeESaISJ_EESI_
libmxnet.so:_ZN5mxnet2op18RegressionBackwardIN7mshadow3cpuENS0_10mshadow_op5minusEEEvRKN4nnvm9NodeAttrsERKNS_9OpContextERKSt6vectorINS_5TBlobESaISE_EERKSD_INS_9OpReqTypeESaISJ_EESI_
libmxnet.so:_ZN5mxnet2op18SamplePoissonParam11__MANAGER__Ev
libmxnet.so:_ZN5mxnet2op18SampleRandIntParam11__MANAGER__Ev
libmxnet.so:_ZN5mxnet2op18SampleUniformParam11__MANAGER__Ev
libmxnet.so:_ZN5mxnet2op18SliceAssignOpShapeERKN4nnvm9NodeAttrsEPSt6vectorINS_6TShapeESaIS6_EES9_
libmxnet.so:_ZN5mxnet2op18SliceDimTwoCsrImplIN7mshadow3cpuEEEvRKNS_6TShapeES6_RKNS_9OpContextERKNS_7NDArrayESC_
libmxnet.so:_ZN5mxnet2op18SoftmaxGradComputeIN7mshadow3cpuENS0_10mshadow_op3mulENS0_8mxnet_op11softmax_bwdELb0EEEvRKN4nnvm9NodeAttrsERKNS_9OpContextERKSt6vectorINS_5TBlobESaISG_EERKSF_INS_9OpReqTypeESaISL_EESK_
libmxnet.so:_ZN5mxnet2op18SoftmaxGradComputeIN7mshadow3cpuENS0_10mshadow_op3mulENS0_8mxnet_op11softmax_bwdELb1EEEvRKN4nnvm9NodeAttrsERKNS_9OpContextERKSt6vectorINS_5TBlobESaISG_EERKSF_INS_9OpReqTypeESaISL_EESK_
libmxnet.so:_ZN5mxnet2op18SoftmaxGradComputeIN7mshadow3cpuENS0_10mshadow_op4leftENS0_8mxnet_op15log_softmax_bwdELb0EEEvRKN4nnvm9NodeAttrsERKNS_9OpContextERKSt6vectorINS_5TBlobESaISG_EERKSF_INS_9OpReqTypeESaISL_EESK_
libmxnet.so:_ZN5mxnet2op18SoftmaxOutputParam11__MANAGER__Ev
libmxnet.so:_ZN5mxnet2op18SpaceToDepthOpTypeERKN4nnvm9NodeAttrsEPSt6vectorIiSaIiEES8_
libmxnet.so:_ZN5mxnet2op18SparseRetainOpTypeERKN4nnvm9NodeAttrsEPSt6vectorIiSaIiEES8_
libmxnet.so:_ZN5mxnet2op18SyncBatchNormParam11__MANAGER__Ev
libmxnet.so:_ZN5mxnet2op19AMPMultiCastComputeIN7mshadow3cpuEEEvRKN4nnvm9NodeAttrsERKNS_9OpContextERKSt6vectorINS_5TBlobESaISC_EERKSB_INS_9OpReqTypeESaISH_EESG_
libmxnet.so:_ZN5mxnet2op19BilinearSampleParam11__MANAGER__Ev
libmxnet.so:_ZN5mxnet2op19BooleanMaskBackwardIN7mshadow3cpuEEEvRKN4nnvm9NodeAttrsERKNS_9OpContextERKSt6vectorINS_7NDArrayESaISC_EERKSB_INS_9OpReqTypeESaISH_EESG_
libmxnet.so:_ZN5mxnet2op19DepthToSpaceOpShapeERKN4nnvm9NodeAttrsEPSt6vectorINS_6TShapeESaIS6_EES9_
libmxnet.so:_ZN5mxnet2op19ElementWiseSumParam11__MANAGER__Ev
libmxnet.so:_ZN5mxnet2op19ElementWiseSumShapeERKN4nnvm9NodeAttrsEPSt6vectorINS_6TShapeESaIS6_EES9_
libmxnet.so:_ZN5mxnet2op19ElemwiseStorageTypeILi1ELi1ELb0ELb1ELb0EEEbRKN4nnvm9NodeAttrsEiPNS_12DispatchModeEPSt6vectorIiSaIiEESB_
libmxnet.so:_ZN5mxnet2op19ElemwiseStorageTypeILi1ELi1ELb0ELb1ELb1EEEbRKN4nnvm9NodeAttrsEiPNS_12DispatchModeEPSt6vectorIiSaIiEESB_
libmxnet.so:_ZN5mxnet2op19ElemwiseStorageTypeILi1ELi2ELb1ELb1ELb1EEEbRKN4nnvm9NodeAttrsEiPNS_12DispatchModeEPSt6vectorIiSaIiEESB_
libmxnet.so:_ZN5mxnet2op19ElemwiseStorageTypeILi2ELi1ELb1ELb1ELb1EEEbRKN4nnvm9NodeAttrsEiPNS_12DispatchModeEPSt6vectorIiSaIiEESB_
libmxnet.so:_ZN5mxnet2op19ElemwiseStorageTypeILi4ELi1ELb0ELb1ELb0EEEbRKN4nnvm9NodeAttrsEiPNS_12DispatchModeEPSt6vectorIiSaIiEESB_
libmxnet.so:_ZN5mxnet2op19EmbeddingOpBackwardIN7mshadow3cpuEEEvRKN4nnvm9NodeAttrsERKNS_9OpContextERKSt6vectorINS_5TBlobESaISC_EERKSB_INS_9OpReqTypeESaISH_EESG_
libmxnet.so:_ZN5mxnet2op19FullyConnectedParam11__MANAGER__Ev
libmxnet.so:_ZN5mxnet2op19HardSigmoidBackwardIN7mshadow3cpuEEEvRKN4nnvm9NodeAttrsERKNS_9OpContextERKSt6vectorINS_5TBlobESaISC_EERKSB_INS_9OpReqTypeESaISH_EESG_
libmxnet.so:_ZN5mxnet2op19MultiAllFiniteParam11__MANAGER__Ev
libmxnet.so:_ZN5mxnet2op19MultiBoxTargetParam11__MANAGER__Ev
libmxnet.so:_ZN5mxnet2op19NeighborSampleParam11__MANAGER__Ev
libmxnet.so:_ZN5mxnet2op19OpBackInplaceOptionERKN4nnvm9NodeAttrsE
libmxnet.so:_ZN5mxnet2op19OpPropCreateLayerOpERKN4nnvm9NodeAttrsENS_7ContextERKSt6vectorINS_6TShapeESaIS7_EERKS6_IiSaIiEE
libmxnet.so:_ZN5mxnet2op19OpPropGetOpPropertyERKN4nnvm9NodeAttrsE
libmxnet.so:_ZN5mxnet2op19OpPropInplaceOptionERKN4nnvm9NodeAttrsE
libmxnet.so:_ZN5mxnet2op19QuadraticOpBackwardIN7mshadow3cpuEEEvRKN4nnvm9NodeAttrsERKNS_9OpContextERKSt6vectorINS_5TBlobESaISC_EERKSB_INS_9OpReqTypeESaISH_EESG_
libmxnet.so:_ZN5mxnet2op19QuantizeStorageTypeERKN4nnvm9NodeAttrsEiPNS_12DispatchModeEPSt6vectorIiSaIiEESA_
libmxnet.so:_ZN5mxnet2op19RegressionForwardExIN7mshadow3cpuENS0_10mshadow_op7sigmoidEEEvRKN4nnvm9NodeAttrsERKNS_9OpContextERKSt6vectorINS_7NDArrayESaISE_EERKSD_INS_9OpReqTypeESaISJ_EESI_
libmxnet.so:_ZN5mxnet2op19RegressionForwardExIN7mshadow3cpuENS0_10mshadow_op8identityEEEvRKN4nnvm9NodeAttrsERKNS_9OpContextERKSt6vectorINS_7NDArrayESaISE_EERKSD_INS_9OpReqTypeESaISJ_EESI_
libmxnet.so:_ZN5mxnet2op19SampleUniqueZifpianERKN4nnvm9NodeAttrsERKNS_9OpContextERKSt6vectorINS_5TBlobESaIS9_EERKS8_INS_9OpReqTypeESaISE_EESD_
libmxnet.so:_ZN5mxnet2op19ScatterSetNDForwardIN7mshadow3cpuEEEvRKN4nnvm9NodeAttrsERKNS_9OpContextERKSt6vectorINS_5TBlobESaISC_EERKSB_INS_9OpReqTypeESaISH_EESG_
libmxnet.so:_ZN5mxnet2op19SimpleOpScalarParam11__MANAGER__Ev
libmxnet.so:_ZN5mxnet2op19SpaceToDepthOpShapeERKN4nnvm9NodeAttrsEPSt6vectorINS_6TShapeESaIS6_EES9_
libmxnet.so:_ZN5mxnet2op19SparseRetainOpShapeERKN4nnvm9NodeAttrsEPSt6vectorINS_6TShapeESaIS6_EES9_
libmxnet.so:_ZN5mxnet2op20AdaptiveAvgPoolParam11__MANAGER__Ev
libmxnet.so:_ZN5mxnet2op20BatchNormGradComputeIN7mshadow3cpuEEEvRKN4nnvm9NodeAttrsERKNS_9OpContextERKSt6vectorINS_5TBlobESaISC_EERKSB_INS_9OpReqTypeESaISH_EESG_
libmxnet.so:_ZN5mxnet2op20BilinearSamplerParam11__MANAGER__Ev
libmxnet.so:_ZN5mxnet2op20BinaryBroadcastShapeERKN4nnvm9NodeAttrsEPSt6vectorINS_6TShapeESaIS6_EES9_
libmxnet.so:_ZN5mxnet2op20CTCLossOpStorageTypeERKN4nnvm9NodeAttrsEiPNS_12DispatchModeEPSt6vectorIiSaIiEESA_
libmxnet.so:_ZN5mxnet2op20CastStorageComputeExIN7mshadow3cpuEEEvRKN4nnvm9NodeAttrsERKNS_9OpContextERKSt6vectorINS_7NDArrayESaISC_EERKSB_INS_9OpReqTypeESaISH_EESG_
libmxnet.so:_ZN5mxnet2op20DeconvolutionComputeIN7mshadow3cpuEEEvRKN4nnvm9NodeAttrsERKNS_9OpContextERKSt6vectorINS_5TBlobESaISC_EERKSB_INS_9OpReqTypeESaISH_EESG_
libmxnet.so:_ZN5mxnet2op20GetReshapeLikeParamsERKNS0_16ReshapeLikeParamERKNS_6TShapeES6_PiS7_S7_S7_
libmxnet.so:_ZN5mxnet2op20GroupAdagradUpdateExIN7mshadow3cpuEEEvRKN4nnvm9NodeAttrsERKNS_9OpContextERKSt6vectorINS_7NDArrayESaISC_EERKSB_INS_9OpReqTypeESaISH_EESG_
libmxnet.so:_ZN5mxnet2op20HistogramForwardImplIN7mshadow3cpuEEEvRKNS_9OpContextERKNS_5TBlobES9_S9_S9_
libmxnet.so:_ZN5mxnet2op20HistogramForwardImplIN7mshadow3cpuEEEvRKNS_9OpContextERKNS_5TBlobES9_S9_idd
libmxnet.so:_ZN5mxnet2op20IndexArrayForwardCPUERKN4nnvm9NodeAttrsERKNS_9OpContextERKSt6vectorINS_5TBlobESaIS9_EERKS8_INS_9OpReqTypeESaISE_EESD_
libmxnet.so:_ZN5mxnet2op20InferSubgraphStorageERKN4nnvm6SymbolEiPNS_12DispatchModeEPSt6vectorIiSaIiEESA_
libmxnet.so:_ZN5mxnet2op20L2NormalizationParam11__MANAGER__Ev
libmxnet.so:_ZN5mxnet2op20LayerNormGradComputeIN7mshadow3cpuEEEvRKN4nnvm9NodeAttrsERKNS_9OpContextERKSt6vectorINS_5TBlobESaISC_EERKSB_INS_9OpReqTypeESaISH_EESG_
libmxnet.so:_ZN5mxnet2op20MultiSampleOpForwardIN7mshadow3cpuENS0_12GammaSamplerIS3_EELi2EEEvRKN4nnvm9NodeAttrsERKNS_9OpContextERKSt6vectorINS_5TBlobESaISE_EERKSD_INS_9OpReqTypeESaISJ_EESI_
libmxnet.so:_ZN5mxnet2op20MultiSampleOpForwardIN7mshadow3cpuENS0_13NormalSamplerIS3_EELi2EEEvRKN4nnvm9NodeAttrsERKNS_9OpContextERKSt6vectorINS_5TBlobESaISE_EERKSD_INS_9OpReqTypeESaISJ_EESI_
libmxnet.so:_ZN5mxnet2op20MultiSampleOpForwardIN7mshadow3cpuENS0_14PoissonSamplerIS3_EELi1EEEvRKN4nnvm9NodeAttrsERKNS_9OpContextERKSt6vectorINS_5TBlobESaISE_EERKSD_INS_9OpReqTypeESaISJ_EESI_
libmxnet.so:_ZN5mxnet2op20MultiSampleOpForwardIN7mshadow3cpuENS0_14UniformSamplerIS3_EELi2EEEvRKN4nnvm9NodeAttrsERKNS_9OpContextERKSt6vectorINS_5TBlobESaISE_EERKSD_INS_9OpReqTypeESaISJ_EESI_
libmxnet.so:_ZN5mxnet2op20MultiSampleOpForwardIN7mshadow3cpuENS0_18ExponentialSamplerIS3_EELi1EEEvRKN4nnvm9NodeAttrsERKNS_9OpContextERKSt6vectorINS_5TBlobESaISE_EERKSD_INS_9OpReqTypeESaISJ_EESI_
libmxnet.so:_ZN5mxnet2op20MultiSampleOpForwardIN7mshadow3cpuENS0_23NegativeBinomialSamplerIS3_EELi2EEEvRKN4nnvm9NodeAttrsERKNS_9OpContextERKSt6vectorINS_5TBlobESaISE_EERKSD_INS_9OpReqTypeESaISJ_EESI_
libmxnet.so:_ZN5mxnet2op20MultiSampleOpForwardIN7mshadow3cpuENS0_34GeneralizedNegativeBinomialSamplerIS3_EELi2EEEvRKN4nnvm9NodeAttrsERKNS_9OpContextERKSt6vectorINS_5TBlobESaISE_EERKSD_INS_9OpReqTypeESaISJ_EESI_
libmxnet.so:_ZN5mxnet2op20OpPropListInputNamesB5cxx11ERKN4nnvm9NodeAttrsE
libmxnet.so:_ZN5mxnet2op20QuadraticOpForwardExIN7mshadow3cpuEEEvRKN4nnvm9NodeAttrsERKNS_9OpContextERKSt6vectorINS_7NDArrayESaISC_EERKSB_INS_9OpReqTypeESaISH_EESG_
libmxnet.so:_ZN5mxnet2op20QuantizedFlattenTypeERKN4nnvm9NodeAttrsEPSt6vectorIiSaIiEES8_
libmxnet.so:_ZN5mxnet2op20QuantizedPoolingTypeERKN4nnvm9NodeAttrsEPSt6vectorIiSaIiEES8_
libmxnet.so:_ZN5mxnet2op20RegisterLegacyNDFuncEv
libmxnet.so:_ZN5mxnet2op20RegisterLegacyOpPropEv
libmxnet.so:_ZN5mxnet2op20RegressionBackwardExIN7mshadow3cpuENS0_10mshadow_op5minusEEEvRKN4nnvm9NodeAttrsERKNS_9OpContextERKSt6vectorINS_7NDArrayESaISE_EERKSD_INS_9OpReqTypeESaISJ_EESI_
libmxnet.so:_ZN5mxnet2op20SampleGammaLikeParam11__MANAGER__Ev
libmxnet.so:_ZN5mxnet2op20SequenceReverseParam11__MANAGER__Ev
libmxnet.so:_ZN5mxnet2op20SimpleOpRegEntryImpl21RegisterUnarySymbolicEv
libmxnet.so:_ZN5mxnet2op20SimpleOpRegEntryImpl22RegisterBinarySymbolicEv
libmxnet.so:_ZN5mxnet2op20SimpleOpRegEntryImpl22RegisterSourceSymbolicEv
libmxnet.so:_ZN5mxnet2op20SimpleOpRegEntryImpl23RegisterUnaryImperativeEv
libmxnet.so:_ZN5mxnet2op20SimpleOpRegEntryImpl24RegisterBinaryImperativeEv
libmxnet.so:_ZN5mxnet2op20SimpleOpRegEntryImpl24RegisterSourceImperativeEv
libmxnet.so:_ZN5mxnet2op20SliceAssignOpForwardIN7mshadow3cpuEEEvRKN4nnvm9NodeAttrsERKNS_9OpContextERKSt6vectorINS_5TBlobESaISC_EERKSB_INS_9OpReqTypeESaISH_EESG_
libmxnet.so:_ZN5mxnet2op20SoftmaxOutputComputeIN7mshadow3cpuEEEvRKN4nnvm9NodeAttrsERKNS_9OpContextERKSt6vectorINS_5TBlobESaISC_EERKSB_INS_9OpReqTypeESaISH_EESG_
libmxnet.so:_ZN5mxnet2op20SparseEmbeddingParam11__MANAGER__Ev
libmxnet.so:_ZN5mxnet2op20SquareSumOpForwardExIN7mshadow3cpuEEEvRKN4nnvm9NodeAttrsERKNS_9OpContextERKSt6vectorINS_7NDArrayESaISC_EERKSB_INS_9OpReqTypeESaISH_EESG_
libmxnet.so:_ZN5mxnet2op20SubgraphCompactParam11__MANAGER__Ev
libmxnet.so:_ZN5mxnet2op20TakeOpForwardCsrImplIN7mshadow3cpuEEEvRKNS0_9TakeParamERKNS_9OpContextERKNS_5TBlobERKNS_7NDArrayENS_9OpReqTypeESF_
libmxnet.so:_ZN5mxnet2op20UniqueSampleResourceERKN4nnvm9NodeAttrsE
libmxnet.so:_ZN5mxnet2op21ActivationGradComputeIN7mshadow3cpuEEEvRKN4nnvm9NodeAttrsERKNS_9OpContextERKSt6vectorINS_5TBlobESaISC_EERKSB_INS_9OpReqTypeESaISH_EESG_
libmxnet.so:_ZN5mxnet2op21DGLAdjacencyForwardExIN7mshadow3cpuEEEvRKN4nnvm9NodeAttrsERKNS_9OpContextERKSt6vectorINS_7NDArrayESaISC_EERKSB_INS_9OpReqTypeESaISH_EESG_
libmxnet.so:_ZN5mxnet2op21DepthToSpaceOpForwardIN7mshadow3cpuEEEvRKN4nnvm9NodeAttrsERKNS_9OpContextERKSt6vectorINS_5TBlobESaISC_EERKSB_INS_9OpReqTypeESaISH_EESG_
libmxnet.so:_ZN5mxnet2op21DequantizeStorageTypeERKN4nnvm9NodeAttrsEiPNS_12DispatchModeEPSt6vectorIiSaIiEESA_
libmxnet.so:_ZN5mxnet2op21ElementWiseSumComputeIN7mshadow3cpuEEEvRKN4nnvm9NodeAttrsERKNS_9OpContextERKSt6vectorINS_5TBlobESaISC_EERKSB_INS_9OpReqTypeESaISH_EESG_
libmxnet.so:_ZN5mxnet2op21EmbeddingOpBackwardExIN7mshadow3cpuEEEvRKN4nnvm9NodeAttrsERKNS_9OpContextERKSt6vectorINS_7NDArrayESaISC_EERKSB_INS_9OpReqTypeESaISH_EESG_
libmxnet.so:_ZN5mxnet2op21FullyConnectedComputeIN7mshadow3cpuEEEvRKN4nnvm9NodeAttrsERKNS_9OpContextERKSt6vectorINS_5TBlobESaISC_EERKSB_INS_9OpReqTypeESaISH_EESG_
libmxnet.so:_ZN5mxnet2op21InferSubgraphDataTypeERKN4nnvm6SymbolEPSt6vectorIiSaIiEES8_
libmxnet.so:_ZN5mxnet2op21InitOpWithScalarParam11__MANAGER__Ev
libmxnet.so:_ZN5mxnet2op21MP_MultiSGD_InferTypeINS0_13MultiSGDParamELi3ELi1EEEbRKN4nnvm9NodeAttrsEPSt6vectorIiSaIiEESA_
libmxnet.so:_ZN5mxnet2op21MP_MultiSGD_InferTypeINS0_16MultiSGDMomParamELi4ELi2EEEbRKN4nnvm9NodeAttrsEPSt6vectorIiSaIiEESA_
libmxnet.so:_ZN5mxnet2op21OpBackListOutputNamesB5cxx11ERKN4nnvm9NodeAttrsE
libmxnet.so:_ZN5mxnet2op21OpBackResourceRequestERKN4nnvm9NodeAttrsE
libmxnet.so:_ZN5mxnet2op21OpPropListOutputNamesB5cxx11ERKN4nnvm9NodeAttrsE
libmxnet.so:_ZN5mxnet2op21OpPropResourceRequestERKN4nnvm9NodeAttrsE
libmxnet.so:_ZN5mxnet2op21QuantizedFlattenShapeERKN4nnvm9NodeAttrsEPSt6vectorINS_6TShapeESaIS6_EES9_
libmxnet.so:_ZN5mxnet2op21QuantizedPoolingShapeERKN4nnvm9NodeAttrsEPSt6vectorINS_6TShapeESaIS6_EES9_
libmxnet.so:_ZN5mxnet2op21ReduceAxesOpForwardExIN7mshadow3cpuENS2_3red3sumELb0EEEvRKN4nnvm9NodeAttrsERKNS_9OpContextERKSt6vectorINS_7NDArrayESaISE_EERKSD_INS_9OpReqTypeESaISJ_EESI_
libmxnet.so:_ZN5mxnet2op21ReduceAxesOpForwardExIN7mshadow3cpuENS2_3red3sumELb1EEEvRKN4nnvm9NodeAttrsERKNS_9OpContextERKSt6vectorINS_7NDArrayESaISE_EERKSD_INS_9OpReqTypeESaISJ_EESI_
libmxnet.so:_ZN5mxnet2op21ReduceMinMaxAxesShapeERKN4nnvm9NodeAttrsEPSt6vectorINS_6TShapeESaIS6_EES9_
libmxnet.so:_ZN5mxnet2op21RegressionOutputParam11__MANAGER__Ev
libmxnet.so:_ZN5mxnet2op21RequantizeStorageTypeERKN4nnvm9NodeAttrsEiPNS_12DispatchModeEPSt6vectorIiSaIiEESA_
libmxnet.so:_ZN5mxnet2op21SampleNormalLikeParam11__MANAGER__Ev
libmxnet.so:_ZN5mxnet2op21SpaceToDepthOpForwardIN7mshadow3cpuEEEvRKN4nnvm9NodeAttrsERKNS_9OpContextERKSt6vectorINS_5TBlobESaISC_EERKSB_INS_9OpReqTypeESaISH_EESG_
libmxnet.so:_ZN5mxnet2op21SquareSumOpBackwardExIN7mshadow3cpuEEEvRKN4nnvm9NodeAttrsERKNS_9OpContextERKSt6vectorINS_7NDArrayESaISC_EERKSB_INS_9OpReqTypeESaISH_EESG_
libmxnet.so:_ZN5mxnet2op21TopKNumVisibleOutputsERKN4nnvm9NodeAttrsE
libmxnet.so:_ZN5mxnet2op21UpSamplingGradComputeIN7mshadow3cpuEEEvRKN4nnvm9NodeAttrsERKNS_9OpContextERKSt6vectorINS_5TBlobESaISC_EERKSB_INS_9OpReqTypeESaISH_EESG_
libmxnet.so:_ZN5mxnet2op22BinaryBroadcastComputeIN7mshadow3cpuENS0_10mshadow_op10logical_orEEEvRKN4nnvm9NodeAttrsERKNS_9OpContextERKSt6vectorINS_5TBlobESaISE_EERKSD_INS_9OpReqTypeESaISJ_EESI_
libmxnet.so:_ZN5mxnet2op22BinaryBroadcastComputeIN7mshadow3cpuENS0_10mshadow_op11logical_andEEEvRKN4nnvm9NodeAttrsERKNS_9OpContextERKSt6vectorINS_5TBlobESaISE_EERKSD_INS_9OpReqTypeESaISJ_EESI_
libmxnet.so:_ZN5mxnet2op22BinaryBroadcastComputeIN7mshadow3cpuENS0_10mshadow_op11logical_xorEEEvRKN4nnvm9NodeAttrsERKNS_9OpContextERKSt6vectorINS_5TBlobESaISE_EERKSD_INS_9OpReqTypeESaISJ_EESI_
libmxnet.so:_ZN5mxnet2op22BinaryBroadcastComputeIN7mshadow3cpuENS0_10mshadow_op2eqEEEvRKN4nnvm9NodeAttrsERKNS_9OpContextERKSt6vectorINS_5TBlobESaISE_EERKSD_INS_9OpReqTypeESaISJ_EESI_
libmxnet.so:_ZN5mxnet2op22BinaryBroadcastComputeIN7mshadow3cpuENS0_10mshadow_op2geEEEvRKN4nnvm9NodeAttrsERKNS_9OpContextERKSt6vectorINS_5TBlobESaISE_EERKSD_INS_9OpReqTypeESaISJ_EESI_
libmxnet.so:_ZN5mxnet2op22BinaryBroadcastComputeIN7mshadow3cpuENS0_10mshadow_op2gtEEEvRKN4nnvm9NodeAttrsERKNS_9OpContextERKSt6vectorINS_5TBlobESaISE_EERKSD_INS_9OpReqTypeESaISJ_EESI_
libmxnet.so:_ZN5mxnet2op22BinaryBroadcastComputeIN7mshadow3cpuENS0_10mshadow_op2leEEEvRKN4nnvm9NodeAttrsERKNS_9OpContextERKSt6vectorINS_5TBlobESaISE_EERKSD_INS_9OpReqTypeESaISJ_EESI_
libmxnet.so:_ZN5mxnet2op22BinaryBroadcastComputeIN7mshadow3cpuENS0_10mshadow_op2ltEEEvRKN4nnvm9NodeAttrsERKNS_9OpContextERKSt6vectorINS_5TBlobESaISE_EERKSD_INS_9OpReqTypeESaISJ_EESI_
libmxnet.so:_ZN5mxnet2op22BinaryBroadcastComputeIN7mshadow3cpuENS0_10mshadow_op2neEEEvRKN4nnvm9NodeAttrsERKNS_9OpContextERKSt6vectorINS_5TBlobESaISE_EERKSD_INS_9OpReqTypeESaISJ_EESI_
libmxnet.so:_ZN5mxnet2op22BinaryBroadcastComputeIN7mshadow3cpuENS0_10mshadow_op3divEEEvRKN4nnvm9NodeAttrsERKNS_9OpContextERKSt6vectorINS_5TBlobESaISE_EERKSD_INS_9OpReqTypeESaISJ_EESI_
libmxnet.so:_ZN5mxnet2op22BinaryBroadcastComputeIN7mshadow3cpuENS0_10mshadow_op3modEEEvRKN4nnvm9NodeAttrsERKNS_9OpContextERKSt6vectorINS_5TBlobESaISE_EERKSD_INS_9OpReqTypeESaISJ_EESI_
libmxnet.so:_ZN5mxnet2op22BinaryBroadcastComputeIN7mshadow3cpuENS0_10mshadow_op3mulEEEvRKN4nnvm9NodeAttrsERKNS_9OpContextERKSt6vectorINS_5TBlobESaISE_EERKSD_INS_9OpReqTypeESaISJ_EESI_
libmxnet.so:_ZN5mxnet2op22BinaryBroadcastComputeIN7mshadow3cpuENS0_10mshadow_op4plusEEEvRKN4nnvm9NodeAttrsERKNS_9OpContextERKSt6vectorINS_5TBlobESaISE_EERKSD_INS_9OpReqTypeESaISJ_EESI_
libmxnet.so:_ZN5mxnet2op22BinaryBroadcastComputeIN7mshadow3cpuENS0_10mshadow_op5hypotEEEvRKN4nnvm9NodeAttrsERKNS_9OpContextERKSt6vectorINS_5TBlobESaISE_EERKSD_INS_9OpReqTypeESaISJ_EESI_
libmxnet.so:_ZN5mxnet2op22BinaryBroadcastComputeIN7mshadow3cpuENS0_10mshadow_op5minusEEEvRKN4nnvm9NodeAttrsERKNS_9OpContextERKSt6vectorINS_5TBlobESaISE_EERKSD_INS_9OpReqTypeESaISJ_EESI_
libmxnet.so:_ZN5mxnet2op22BinaryBroadcastComputeIN7mshadow3cpuENS0_10mshadow_op5powerEEEvRKN4nnvm9NodeAttrsERKNS_9OpContextERKSt6vectorINS_5TBlobESaISE_EERKSD_INS_9OpReqTypeESaISJ_EESI_
libmxnet.so:_ZN5mxnet2op22BinaryBroadcastComputeIN7mshadow3cpuENS0_10mshadow_op7maximumEEEvRKN4nnvm9NodeAttrsERKNS_9OpContextERKSt6vectorINS_5TBlobESaISE_EERKSD_INS_9OpReqTypeESaISJ_EESI_
libmxnet.so:_ZN5mxnet2op22BinaryBroadcastComputeIN7mshadow3cpuENS0_10mshadow_op7minimumEEEvRKN4nnvm9NodeAttrsERKNS_9OpContextERKSt6vectorINS_5TBlobESaISE_EERKSD_INS_9OpReqTypeESaISJ_EESI_
libmxnet.so:_ZN5mxnet2op22BipartiteMatchingParam11__MANAGER__Ev
libmxnet.so:_ZN5mxnet2op22BooleanMaskStorageTypeERKN4nnvm9NodeAttrsEiPNS_12DispatchModeEPSt6vectorIiSaIiEESA_
libmxnet.so:_ZN5mxnet2op22ConvolutionGradComputeIN7mshadow3cpuEEEvRKN4nnvm9NodeAttrsERKNS_9OpContextERKSt6vectorINS_5TBlobESaISC_EERKSB_INS_9OpReqTypeESaISH_EESG_
libmxnet.so:_ZN5mxnet2op22ConvolutionParamParserEPN4nnvm9NodeAttrsE
libmxnet.so:_ZN5mxnet2op22LaMatrixMultMacOpShapeERKN4nnvm9NodeAttrsEPSt6vectorINS_6TShapeESaIS6_EES9_
libmxnet.so:_ZN5mxnet2op22MultiBoxDetectionParam11__MANAGER__Ev
libmxnet.so:_ZN5mxnet2op22QuadraticOpStorageTypeERKN4nnvm9NodeAttrsEiPNS_12DispatchModeEPSt6vectorIiSaIiEESA_
libmxnet.so:_ZN5mxnet2op22RNNStatefulGradComputeIN7mshadow3cpuEEEvRKNS_10OpStatePtrERKNS_9OpContextERKSt6vectorINS_5TBlobESaISB_EERKSA_INS_9OpReqTypeESaISG_EESF_
libmxnet.so:_ZN5mxnet2op22ROIAlignForwardComputeIN7mshadow3cpuEEEvRKN4nnvm9NodeAttrsERKNS_9OpContextERKSt6vectorINS_5TBlobESaISC_EERKSB_INS_9OpReqTypeESaISH_EESG_
libmxnet.so:_ZN5mxnet2op22SampleExponentialParam11__MANAGER__Ev
libmxnet.so:_ZN5mxnet2op22SampleMultinomialParam11__MANAGER__Ev
libmxnet.so:_ZN5mxnet2op22SampleNegBinomialParam11__MANAGER__Ev
libmxnet.so:_ZN5mxnet2op22SamplePoissonLikeParam11__MANAGER__Ev
libmxnet.so:_ZN5mxnet2op22SampleUniformLikeParam11__MANAGER__Ev
libmxnet.so:_ZN5mxnet2op22SliceAssignScalarParam11__MANAGER__Ev
libmxnet.so:_ZN5mxnet2op22SoftmaxActivationParam11__MANAGER__Ev
libmxnet.so:_ZN5mxnet2op23BilinearSampleOpForwardIN7mshadow3cpuEEEvRKN4nnvm9NodeAttrsERKNS_9OpContextERKSt6vectorINS_5TBlobESaISC_EERKSB_INS_9OpReqTypeESaISH_EESG_
libmxnet.so:_ZN5mxnet2op23BoxNMSNumVisibleOutputsERKN4nnvm9NodeAttrsE
libmxnet.so:_ZN5mxnet2op23CTCLossOpListInputNamesB5cxx11ERKN4nnvm9NodeAttrsE
libmxnet.so:_ZN5mxnet2op23DGLAdjacencyStorageTypeERKN4nnvm9NodeAttrsEiPNS_12DispatchModeEPSt6vectorIiSaIiEESA_
libmxnet.so:_ZN5mxnet2op23DefaultSubgraphProperty6CreateEv
libmxnet.so:_ZN5mxnet2op23ElemwiseScatterBinaryOp9ComputeExIN7mshadow3cpuENS0_10mshadow_op3divEEEvRKN4nnvm9NodeAttrsERKNS_9OpContextERKSt6vectorINS_7NDArrayESaISF_EERKSE_INS_9OpReqTypeESaISK_EESJ_
libmxnet.so:_ZN5mxnet2op23GroupAdagradStorageTypeERKN4nnvm9NodeAttrsEiPNS_12DispatchModeEPSt6vectorIiSaIiEESA_
libmxnet.so:_ZN5mxnet2op23InitOpWithoutDTypeParam11__MANAGER__Ev
libmxnet.so:_ZN5mxnet2op23LaTriangMatrixMultParam11__MANAGER__Ev
libmxnet.so:_ZN5mxnet2op23OpPropNumVisibleOutputsERKN4nnvm9NodeAttrsE
libmxnet.so:_ZN5mxnet2op23QuantizedActivationTypeERKN4nnvm9NodeAttrsEPSt6vectorIiSaIiEES8_
libmxnet.so:_ZN5mxnet2op23QuantizedFlattenComputeIN7mshadow3cpuEEEvRKN4nnvm9NodeAttrsERKNS_9OpContextERKSt6vectorINS_5TBlobESaISC_EERKSB_INS_9OpReqTypeESaISH_EESG_
libmxnet.so:_ZN5mxnet2op23ROIAlignBackwardComputeIN7mshadow3cpuEEEvRKN4nnvm9NodeAttrsERKNS_9OpContextERKSt6vectorINS_5TBlobESaISC_EERKSB_INS_9OpReqTypeESaISH_EESG_
libmxnet.so:_ZN5mxnet2op23ReshapeLikeShapeComputeERKN4nnvm9NodeAttrsEPSt6vectorINS_6TShapeESaIS6_EES9_
libmxnet.so:_ZN5mxnet2op23SampleMultinomialOpTypeERKN4nnvm9NodeAttrsEPSt6vectorIiSaIiEES8_
libmxnet.so:_ZN5mxnet2op23SparseRetainOpForwardExIN7mshadow3cpuEEEvRKN4nnvm9NodeAttrsERKNS_9OpContextERKSt6vectorINS_7NDArrayESaISC_EERKSB_INS_9OpReqTypeESaISH_EESG_
libmxnet.so:_ZN5mxnet2op23SpatialTransformerParam11__MANAGER__Ev
libmxnet.so:_ZN5mxnet2op24AdaptiveAvgPoolOpForwardIN7mshadow3cpuEEEvRKN4nnvm9NodeAttrsERKNS_9OpContextERKSt6vectorINS_5TBlobESaISC_EERKSB_INS_9OpReqTypeESaISH_EESG_
libmxnet.so:_ZN5mxnet2op24BilinearSampleOpBackwardIN7mshadow3cpuEEEvRKN4nnvm9NodeAttrsERKNS_9OpContextERKSt6vectorINS_5TBlobESaISC_EERKSB_INS_9OpReqTypeESaISH_EESG_
libmxnet.so:_ZN5mxnet2op24BipartiteMatchingForwardIN7mshadow3cpuEEEvRKN4nnvm9NodeAttrsERKNS_9OpContextERKSt6vectorINS_5TBlobESaISC_EERKSB_INS_9OpReqTypeESaISH_EESG_
libmxnet.so:_ZN5mxnet2op24DeconvolutionGradComputeIN7mshadow3cpuEEEvRKN4nnvm9NodeAttrsERKNS_9OpContextERKSt6vectorINS_5TBlobESaISC_EERKSB_INS_9OpReqTypeESaISH_EESG_
libmxnet.so:_ZN5mxnet2op24QuantizedActivationShapeERKN4nnvm9NodeAttrsEPSt6vectorINS_6TShapeESaIS6_EES9_
libmxnet.so:_ZN5mxnet2op24QuantizedConvStorageTypeERKN4nnvm9NodeAttrsEiPNS_12DispatchModeEPSt6vectorIiSaIiEESA_
libmxnet.so:_ZN5mxnet2op24SampleMultinomialForwardIN7mshadow3cpuEEEvRKN4nnvm9NodeAttrsERKNS_9OpContextERKSt6vectorINS_5TBlobESaISC_EERKSB_INS_9OpReqTypeESaISH_EESG_
libmxnet.so:_ZN5mxnet2op24SampleMultinomialOpShapeERKN4nnvm9NodeAttrsEPSt6vectorINS_6TShapeESaIS6_EES9_
libmxnet.so:_ZN5mxnet2op24SampleUniqueZifpianParam11__MANAGER__Ev
libmxnet.so:_ZN5mxnet2op24SliceAssignScalarOpShapeERKN4nnvm9NodeAttrsEPSt6vectorINS_6TShapeESaIS6_EES9_
libmxnet.so:_ZN5mxnet2op24SoftmaxActivationComputeIN7mshadow3cpuEEEvRKN4nnvm9NodeAttrsERKNS_9OpContextERKSt6vectorINS_5TBlobESaISC_EERKSB_INS_9OpReqTypeESaISH_EESG_
libmxnet.so:_ZN5mxnet2op24SoftmaxCrossEntropyShapeERKN4nnvm9NodeAttrsEPSt6vectorINS_6TShapeESaIS6_EES9_
libmxnet.so:_ZN5mxnet2op24SoftmaxOutputGradComputeIN7mshadow3cpuEEEvRKN4nnvm9NodeAttrsERKNS_9OpContextERKSt6vectorINS_5TBlobESaISC_EERKSB_INS_9OpReqTypeESaISH_EESG_
libmxnet.so:_ZN5mxnet2op24SparseRetainOpBackwardExIN7mshadow3cpuEEEvRKN4nnvm9NodeAttrsERKNS_9OpContextERKSt6vectorINS_7NDArrayESaISC_EERKSB_INS_9OpReqTypeESaISH_EESG_
libmxnet.so:_ZN5mxnet2op24TakeOpForwardStorageTypeERKN4nnvm9NodeAttrsEiPNS_12DispatchModeEPSt6vectorIiSaIiEESA_
libmxnet.so:_ZN5mxnet2op25AdaptiveAvgPoolOpBackwardIN7mshadow3cpuEEEvRKN4nnvm9NodeAttrsERKNS_9OpContextERKSt6vectorINS_5TBlobESaISC_EERKSB_INS_9OpReqTypeESaISH_EESG_
libmxnet.so:_ZN5mxnet2op25BilinearSampleOpNumInputsERKN4nnvm9NodeAttrsE
libmxnet.so:_ZN5mxnet2op25BipartiteMatchingBackwardIN7mshadow3cpuEEEvRKN4nnvm9NodeAttrsERKNS_9OpContextERKSt6vectorINS_5TBlobESaISC_EERKSB_INS_9OpReqTypeESaISH_EESG_
libmxnet.so:_ZN5mxnet2op25DefaultSubgraphOpExecTypeERKN4nnvm9NodeAttrsE
libmxnet.so:_ZN5mxnet2op25EmbeddingOpForwardDnsImplIN7mshadow3cpuEEEvPNS2_6StreamIT_EERKNS_5TBlobESA_NS_9OpReqTypeESA_
libmxnet.so:_ZN5mxnet2op25FullyConnectedGradComputeIN7mshadow3cpuEEEvRKN4nnvm9NodeAttrsERKNS_9OpContextERKSt6vectorINS_5TBlobESaISC_EERKSB_INS_9OpReqTypeESaISH_EESG_
libmxnet.so:_ZN5mxnet2op25InitFillWithScalarComputeIN7mshadow3cpuEEEvRKN4nnvm9NodeAttrsERKNS_9OpContextERKSt6vectorINS_5TBlobESaISC_EERKSB_INS_9OpReqTypeESaISH_EESG_
libmxnet.so:_ZN5mxnet2op25LaTriangMatrixMultOpShapeERKN4nnvm9NodeAttrsEPSt6vectorINS_6TShapeESaIS6_EES9_
libmxnet.so:_ZN5mxnet2op25ReduceAxesBackwardUseNoneIN7mshadow3cpuELb0EEEvRKN4nnvm9NodeAttrsERKNS_9OpContextERKSt6vectorINS_5TBlobESaISC_EERKSB_INS_9OpReqTypeESaISH_EESG_
libmxnet.so:_ZN5mxnet2op25ReduceAxesBackwardUseNoneIN7mshadow3cpuELb1EEEvRKN4nnvm9NodeAttrsERKNS_9OpContextERKSt6vectorINS_5TBlobESaISC_EERKSB_INS_9OpReqTypeESaISH_EESG_
libmxnet.so:_ZN5mxnet2op25SampleGenNegBinomialParam11__MANAGER__Ev
libmxnet.so:_ZN5mxnet2op25SampleMultinomialBackwardINS0_34SampleMultinomialBackwardCPUKernelEN7mshadow3cpuEEEvRKN4nnvm9NodeAttrsERKNS_9OpContextERKSt6vectorINS_5TBlobESaISD_EERKSC_INS_9OpReqTypeESaISI_EESH_
libmxnet.so:_ZN5mxnet2op25WhereOpForwardStorageTypeERKN4nnvm9NodeAttrsEiPNS_12DispatchModeEPSt6vectorIiSaIiEESA_
libmxnet.so:_ZN5mxnet2op26AdamStdUpdateDnsRspDnsImplIN7mshadow3cpuEEEvRKNS0_9AdamParamERKNS_9OpContextERKNS_5TBlobERKNS_7NDArrayESC_SC_RKNS_9OpReqTypeEPSA_
libmxnet.so:_ZN5mxnet2op26BilinearSampleOpInputNamesB5cxx11ERKN4nnvm9NodeAttrsE
libmxnet.so:_ZN5mxnet2op26BooleanMaskBackStorageTypeERKN4nnvm9NodeAttrsEiPNS_12DispatchModeEPSt6vectorIiSaIiEESA_
libmxnet.so:_ZN5mxnet2op26DeformableConvolutionParam11__MANAGER__Ev
libmxnet.so:_ZN5mxnet2op26DotForwardInferStorageTypeERKN4nnvm9NodeAttrsEiPNS_12DispatchModeEPSt6vectorIiSaIiEESA_
libmxnet.so:_ZN5mxnet2op26ElementWiseSumComputeExCPUERKN4nnvm9NodeAttrsERKNS_9OpContextERKSt6vectorINS_7NDArrayESaIS9_EERKS8_INS_9OpReqTypeESaISE_EESD_
libmxnet.so:_ZN5mxnet2op26FullyConnectedComputeExCPUERKN4nnvm9NodeAttrsERKNS_9OpContextERKSt6vectorINS_7NDArrayESaIS9_EERKS8_INS_9OpReqTypeESaISE_EESD_
libmxnet.so:_ZN5mxnet2op26ReduceAxesBackwardUseInOutIN7mshadow3cpuENS0_10mshadow_op11nansum_gradELb0EEEvRKN4nnvm9NodeAttrsERKNS_9OpContextERKSt6vectorINS_5TBlobESaISE_EERKSD_INS_9OpReqTypeESaISJ_EESI_
libmxnet.so:_ZN5mxnet2op26ReduceAxesBackwardUseInOutIN7mshadow3cpuENS0_10mshadow_op12nanprod_gradELb0EEEvRKN4nnvm9NodeAttrsERKNS_9OpContextERKSt6vectorINS_5TBlobESaISE_EERKSD_INS_9OpReqTypeESaISJ_EESI_
libmxnet.so:_ZN5mxnet2op26ReduceAxesBackwardUseInOutIN7mshadow3cpuENS0_10mshadow_op2eqELb0EEEvRKN4nnvm9NodeAttrsERKNS_9OpContextERKSt6vectorINS_5TBlobESaISE_EERKSD_INS_9OpReqTypeESaISJ_EESI_
libmxnet.so:_ZN5mxnet2op26ReduceAxesBackwardUseInOutIN7mshadow3cpuENS0_10mshadow_op4rdivELb0EEEvRKN4nnvm9NodeAttrsERKNS_9OpContextERKSt6vectorINS_5TBlobESaISE_EERKSD_INS_9OpReqTypeESaISJ_EESI_
libmxnet.so:_ZN5mxnet2op26ReduceAxesOpForwardStorageERKN4nnvm9NodeAttrsEiPNS_12DispatchModeEPSt6vectorIiSaIiEESA_
libmxnet.so:_ZN5mxnet2op26RegressionInferStorageTypeILb0EEEbRKN4nnvm9NodeAttrsEiPNS_12DispatchModeEPSt6vectorIiSaIiEESB_
libmxnet.so:_ZN5mxnet2op26RegressionInferStorageTypeILb1EEEbRKN4nnvm9NodeAttrsEiPNS_12DispatchModeEPSt6vectorIiSaIiEESB_
libmxnet.so:_ZN5mxnet2op26SampleExponentialLikeParam11__MANAGER__Ev
libmxnet.so:_ZN5mxnet2op26SampleNegBinomialLikeParam11__MANAGER__Ev
libmxnet.so:_ZN5mxnet2op26SliceAssignScalarOpForwardIN7mshadow3cpuEEEvRKN4nnvm9NodeAttrsERKNS_9OpContextERKSt6vectorINS_5TBlobESaISC_EERKSB_INS_9OpReqTypeESaISH_EESG_
libmxnet.so:_ZN5mxnet2op26SoftmaxCrossEntropyForwardIN7mshadow3cpuEEEvRKN4nnvm9NodeAttrsERKNS_9OpContextERKSt6vectorINS_5TBlobESaISC_EERKSB_INS_9OpReqTypeESaISH_EESG_
libmxnet.so:_ZN5mxnet2op26SparseEmbeddingOpForwardExIN7mshadow3cpuEEEvRKN4nnvm9NodeAttrsERKNS_9OpContextERKSt6vectorINS_7NDArrayESaISC_EERKSB_INS_9OpReqTypeESaISH_EESG_
libmxnet.so:_ZN5mxnet2op26WhereOpBackwardStorageTypeERKN4nnvm9NodeAttrsEiPNS_12DispatchModeEPSt6vectorIiSaIiEESA_
libmxnet.so:_ZN5mxnet2op27CastStorageInferStorageTypeERKN4nnvm9NodeAttrsEiPNS_12DispatchModeEPSt6vectorIiSaIiEESA_
libmxnet.so:_ZN5mxnet2op27DeformablePSROIPoolingParam11__MANAGER__Ev
libmxnet.so:_ZN5mxnet2op27DotBackwardInferStorageTypeERKN4nnvm9NodeAttrsEiPNS_12DispatchModeEPSt6vectorIiSaIiEESA_
libmxnet.so:_ZN5mxnet2op27QuantizedElemwiseAddForwardERKN4nnvm9NodeAttrsERKNS_9OpContextERKSt6vectorINS_5TBlobESaIS9_EERKS8_INS_9OpReqTypeESaISE_EESD_
libmxnet.so:_ZN5mxnet2op27QuantizedFullyConnectedTypeERKN4nnvm9NodeAttrsEPSt6vectorIiSaIiEES8_
libmxnet.so:_ZN5mxnet2op27SoftmaxCrossEntropyBackwardIN7mshadow3cpuEEEvRKN4nnvm9NodeAttrsERKNS_9OpContextERKSt6vectorINS_5TBlobESaISC_EERKSB_INS_9OpReqTypeESaISH_EESG_
libmxnet.so:_ZN5mxnet2op27SparseEmbeddingOpBackwardExIN7mshadow3cpuEEEvRKN4nnvm9NodeAttrsERKNS_9OpContextERKSt6vectorINS_7NDArrayESaISC_EERKSB_INS_9OpReqTypeESaISH_EESG_
libmxnet.so:_ZN5mxnet2op28BinaryBroadcastBackwardUseInIN7mshadow3cpuENS0_10mshadow_op10power_gradENS4_11power_rgradEEEvRKN4nnvm9NodeAttrsERKNS_9OpContextERKSt6vectorINS_5TBlobESaISF_EERKSE_INS_9OpReqTypeESaISK_EESJ_
libmxnet.so:_ZN5mxnet2op28BinaryBroadcastBackwardUseInIN7mshadow3cpuENS0_10mshadow_op15hypot_grad_leftENS4_16hypot_grad_rightEEEvRKN4nnvm9NodeAttrsERKNS_9OpContextERKSt6vectorINS_5TBlobESaISF_EERKSE_INS_9OpReqTypeESaISK_EESJ_
libmxnet.so:_ZN5mxnet2op28BinaryBroadcastBackwardUseInIN7mshadow3cpuENS0_10mshadow_op2geENS4_2ltEEEvRKN4nnvm9NodeAttrsERKNS_9OpContextERKSt6vectorINS_5TBlobESaISF_EERKSE_INS_9OpReqTypeESaISK_EESJ_
libmxnet.so:_ZN5mxnet2op28BinaryBroadcastBackwardUseInIN7mshadow3cpuENS0_10mshadow_op2leENS4_2gtEEEvRKN4nnvm9NodeAttrsERKNS_9OpContextERKSt6vectorINS_5TBlobESaISF_EERKSE_INS_9OpReqTypeESaISK_EESJ_
libmxnet.so:_ZN5mxnet2op28BinaryBroadcastBackwardUseInIN7mshadow3cpuENS0_10mshadow_op5rightENS4_4leftEEEvRKN4nnvm9NodeAttrsERKNS_9OpContextERKSt6vectorINS_5TBlobESaISF_EERKSE_INS_9OpReqTypeESaISK_EESJ_
libmxnet.so:_ZN5mxnet2op28BinaryBroadcastBackwardUseInIN7mshadow3cpuENS0_10mshadow_op8div_gradENS4_9div_rgradEEEvRKN4nnvm9NodeAttrsERKNS_9OpContextERKSt6vectorINS_5TBlobESaISF_EERKSE_INS_9OpReqTypeESaISK_EESJ_
libmxnet.so:_ZN5mxnet2op28BinaryBroadcastBackwardUseInIN7mshadow3cpuENS0_10mshadow_op8mod_gradENS4_9mod_rgradEEEvRKN4nnvm9NodeAttrsERKNS_9OpContextERKSt6vectorINS_5TBlobESaISF_EERKSE_INS_9OpReqTypeESaISK_EESJ_
libmxnet.so:_ZN5mxnet2op28QuantizedFullyConnectedShapeERKN4nnvm9NodeAttrsEPSt6vectorINS_6TShapeESaIS6_EES9_
libmxnet.so:_ZN5mxnet2op28ReshapeLikeRangeCanonicalizeEiPKcRKN4dmlc8optionalIiEES7_PiS8_
libmxnet.so:_ZN5mxnet2op28SGDMomStdUpdateDnsRspDnsImplIN7mshadow3cpuEEEvRKNS0_11SGDMomParamERKNS_9OpContextERKNS_5TBlobERKNS_7NDArrayESC_RKNS_9OpReqTypeEPSA_
libmxnet.so:_ZN5mxnet2op28SliceForwardInferStorageTypeERKN4nnvm9NodeAttrsEiPNS_12DispatchModeEPSt6vectorIiSaIiEESA_
libmxnet.so:_ZN5mxnet2op28SoftmaxActivationGradComputeIN7mshadow3cpuEEEvRKN4nnvm9NodeAttrsERKNS_9OpContextERKSt6vectorINS_5TBlobESaISC_EERKSB_INS_9OpReqTypeESaISH_EESG_
libmxnet.so:_ZN5mxnet2op29BinaryBroadcastAddStorageTypeERKN4nnvm9NodeAttrsEiPNS_12DispatchModeEPSt6vectorIiSaIiEESA_
libmxnet.so:_ZN5mxnet2op29BinaryBroadcastComputeDenseExIN7mshadow3cpuENS0_10mshadow_op4plusEEEvRKN4nnvm9NodeAttrsERKNS_9OpContextERKSt6vectorINS_7NDArrayESaISE_EERKSD_INS_9OpReqTypeESaISJ_EESI_
libmxnet.so:_ZN5mxnet2op29BinaryBroadcastComputeDenseExIN7mshadow3cpuENS0_10mshadow_op5minusEEEvRKN4nnvm9NodeAttrsERKNS_9OpContextERKSt6vectorINS_7NDArrayESaISE_EERKSD_INS_9OpReqTypeESaISJ_EESI_
libmxnet.so:_ZN5mxnet2op29BinaryBroadcastMulStorageTypeERKN4nnvm9NodeAttrsEiPNS_12DispatchModeEPSt6vectorIiSaIiEESA_
libmxnet.so:_ZN5mxnet2op29ElemwiseScatterBinaryScalarOp9ComputeExIN7mshadow3cpuENS0_10mshadow_op4plusEEEvRKN4nnvm9NodeAttrsERKNS_9OpContextERKSt6vectorINS_7NDArrayESaISF_EERKSE_INS_9OpReqTypeESaISK_EESJ_
libmxnet.so:_ZN5mxnet2op29ElemwiseScatterBinaryScalarOp9ComputeExIN7mshadow3cpuENS0_10mshadow_op5minusEEEvRKN4nnvm9NodeAttrsERKNS_9OpContextERKSt6vectorINS_7NDArrayESaISF_EERKSE_INS_9OpReqTypeESaISK_EESJ_
libmxnet.so:_ZN5mxnet2op29EmbeddingOpForwardStorageTypeERKN4nnvm9NodeAttrsEiPNS_12DispatchModeEPSt6vectorIiSaIiEESA_
libmxnet.so:_ZN5mxnet2op29SampleGenNegBinomialLikeParam11__MANAGER__Ev
libmxnet.so:_ZN5mxnet2op29SetCalibTableToQuantizedGraphEON4nnvm5GraphE
libmxnet.so:_ZN5mxnet2op2sg11SortEntriesERKSt13unordered_mapIPKN4nnvm9NodeEntryEmSt4hashIS6_ESt8equal_toIS6_ESaISt4pairIKS6_mEEEPSt6vectorIPS4_SaISJ_EE
libmxnet.so:_ZN5mxnet2op2sg13FindSubgraphsEPN4nnvm5GraphERKNS0_16SubgraphPropertyERKSt6vectorISt10shared_ptrINS0_14BiDirectedNodeEESaISB_EEPS8_IS8_IPSA_SaISG_EESaISI_EEPS8_IS9_INS0_18SubgraphSelectorV2EESaISN_EE
libmxnet.so:_ZN5mxnet2op2sg13LabelSubgraphERKN4nnvm5GraphESt10shared_ptrINS0_18SubgraphSelectorV2EEimRKSt6vectorIS6_INS0_14BiDirectedNodeEESaISB_EEPS9_IPSA_SaISG_EEPSt13unordered_setIPKSA_St4hashISM_ESt8equal_toISM_ESaISM_EE
libmxnet.so:_ZN5mxnet2op2sg14CutGraphInputsERKSt6vectorIPN4nnvm9NodeEntryESaIS5_EEPS2_IS4_SaIS4_EEb
libmxnet.so:_ZN5mxnet2op2sg15ResetNodeLabelsERKN4nnvm5GraphERKSt6vectorISt10shared_ptrINS0_14BiDirectedNodeEESaIS9_EEPS6_IPS8_SaISE_EE
libmxnet.so:_ZN5mxnet2op2sg16FindInputEntriesERKN4nnvm5GraphERKSt6vectorISt10shared_ptrINS0_14BiDirectedNodeEESaIS9_EERKS6_IPS8_SaISE_EERKSt13unordered_mapIPKNS2_9NodeEntryEmSt4hashISM_ESt8equal_toISM_ESaISt4pairIKSM_mEEEPS6_IPSK_SaISY_EE
libmxnet.so:_ZN5mxnet2op2sg17CreateSimpleGraphERKN4nnvm5GraphEPSt6vectorISt10shared_ptrINS0_14BiDirectedNodeEESaIS9_EE
libmxnet.so:_ZN5mxnet2op2sg17FindOutputEntriesEPN4nnvm5GraphERKSt6vectorISt10shared_ptrINS0_14BiDirectedNodeEESaIS8_EERKS5_IPS7_SaISD_EERKSt13unordered_mapIPKNS2_9NodeEntryEmSt4hashISL_ESt8equal_toISL_ESaISt4pairIKSL_mEEEPS5_IPSJ_SaISX_EE
libmxnet.so:_ZN5mxnet2op2sg18AdjustSubgraphNodeEPN4nnvm5GraphERKSt6vectorIPNS0_14BiDirectedNodeESaIS7_EERKSt10shared_ptrINS0_18SubgraphSelectorV2EEm
libmxnet.so:_ZN5mxnet2op2sg18CreateSubgraphNodeEPN4nnvm5GraphERKSt6vectorISt10shared_ptrINS0_14BiDirectedNodeEESaIS8_EERKS5_IPS7_SaISD_EERKS6_INS0_18SubgraphSelectorV2EEmPSt13unordered_mapIPKNS2_9NodeEntryEmSt4hashISP_ESt8equal_toISP_ESaISt4pairIKSP_mEEE
libmxnet.so:_ZN5mxnet2op2sg19SelectSubgraphNodesEPN4nnvm5GraphESt10shared_ptrINS0_18SubgraphSelectorV2EERKSt6vectorIS5_INS0_14BiDirectedNodeEESaISA_EEPS8_IS8_IPS9_SaISF_EESaISH_EEPS8_IS7_SaIS7_EEPKS9_mPm
libmxnet.so:_ZN5mxnet2op2sg22PreSelectSubgraphNodesERKN4nnvm5GraphESt10shared_ptrINS0_18SubgraphSelectorV2EEimRKSt6vectorIS6_INS0_14BiDirectedNodeEESaISB_EEPS9_IPSA_SaISG_EE
libmxnet.so:_ZN5mxnet2op30BinaryBroadcastBackwardUseNoneIN7mshadow3cpuENS0_10mshadow_op8identityENS4_8negationEEENSt9enable_ifIXsrSt7is_sameIT_S3_E5valueEvE4typeERKN4nnvm9NodeAttrsERKNS_9OpContextERKSt6vectorINS_5TBlobESaISL_EERKSK_INS_9OpReqTypeESaISQ_EESP_
libmxnet.so:_ZN5mxnet2op30BinaryBroadcastBackwardUseNoneIN7mshadow3cpuENS0_10mshadow_op8identityES5_EENSt9enable_ifIXsrSt7is_sameIT_S3_E5valueEvE4typeERKN4nnvm9NodeAttrsERKNS_9OpContextERKSt6vectorINS_5TBlobESaISK_EERKSJ_INS_9OpReqTypeESaISP_EESO_
libmxnet.so:_ZN5mxnet2op30BinaryBroadcastComputeSparseExIN7mshadow3cpuENS0_10mshadow_op3divEEEvRKN4nnvm9NodeAttrsERKNS_9OpContextERKSt6vectorINS_7NDArrayESaISE_EERKSD_INS_9OpReqTypeESaISJ_EESI_
libmxnet.so:_ZN5mxnet2op30BinaryBroadcastComputeSparseExIN7mshadow3cpuENS0_10mshadow_op3mulEEEvRKN4nnvm9NodeAttrsERKNS_9OpContextERKSt6vectorINS_7NDArrayESaISE_EERKSD_INS_9OpReqTypeESaISJ_EESI_
libmxnet.so:_ZN5mxnet2op30EmbeddingOpBackwardStorageTypeERKN4nnvm9NodeAttrsEiPNS_12DispatchModeEPSt6vectorIiSaIiEESA_
libmxnet.so:_ZN5mxnet2op30IdentityAttachKLSparseRegParam11__MANAGER__Ev
libmxnet.so:_ZN5mxnet2op31SparseEmbeddingOpForwardRspImplIN7mshadow3cpuEEEvRKNS_9OpContextERKNS_5TBlobERKNS_7NDArrayENS_9OpReqTypeES9_
libmxnet.so:_ZN5mxnet2op32SquareSumForwardInferStorageTypeERKN4nnvm9NodeAttrsEiPNS_12DispatchModeEPSt6vectorIiSaIiEESA_
libmxnet.so:_ZN5mxnet2op33BilinearSampleOpNumBackwardInputsERKN4nnvm9NodeAttrsE
libmxnet.so:_ZN5mxnet2op33QuantizedFullyConnectedForwardCPUERKN4nnvm9NodeAttrsERKNS_9OpContextERKSt6vectorINS_5TBlobESaIS9_EERKS8_INS_9OpReqTypeESaISE_EESD_
libmxnet.so:_ZN5mxnet2op33SquareSumBackwardInferStorageTypeERKN4nnvm9NodeAttrsEiPNS_12DispatchModeEPSt6vectorIiSaIiEESA_
libmxnet.so:_ZN5mxnet2op34BilinearSampleOpNumBackwardOutputsERKN4nnvm9NodeAttrsE
libmxnet.so:_ZN5mxnet2op34QuantizedFullyConnectedStorageTypeERKN4nnvm9NodeAttrsEiPNS_12DispatchModeEPSt6vectorIiSaIiEESA_
libmxnet.so:_ZN5mxnet2op35SparseEmbeddingOpForwardStorageTypeERKN4nnvm9NodeAttrsEiPNS_12DispatchModeEPSt6vectorIiSaIiEESA_
libmxnet.so:_ZN5mxnet2op35SparseRetainForwardInferStorageTypeERKN4nnvm9NodeAttrsEiPNS_12DispatchModeEPSt6vectorIiSaIiEESA_
libmxnet.so:_ZN5mxnet2op36SparseEmbeddingOpBackwardStorageTypeERKN4nnvm9NodeAttrsEiPNS_12DispatchModeEPSt6vectorIiSaIiEESA_
libmxnet.so:_ZN5mxnet2op36SparseRetainBackwardInferStorageTypeERKN4nnvm9NodeAttrsEiPNS_12DispatchModeEPSt6vectorIiSaIiEESA_
libmxnet.so:_ZN5mxnet2op37ElementWiseSumForwardInferStorageTypeERKN4nnvm9NodeAttrsEiPNS_12DispatchModeEPSt6vectorIiSaIiEESA_
libmxnet.so:_ZN5mxnet2op4ClipIN7mshadow3cpuEEEvRKN4nnvm9NodeAttrsERKNS_9OpContextERKSt6vectorINS_5TBlobESaISC_EERKSB_INS_9OpReqTypeESaISH_EESG_
libmxnet.so:_ZN5mxnet2op4SortIN7mshadow3cpuEEEvRKN4nnvm9NodeAttrsERKNS_9OpContextERKSt6vectorINS_5TBlobESaISC_EERKSB_INS_9OpReqTypeESaISH_EESG_
libmxnet.so:_ZN5mxnet2op4TopKIN7mshadow3cpuEEEvRKN4nnvm9NodeAttrsERKNS_9OpContextERKSt6vectorINS_5TBlobESaISC_EERKSB_INS_9OpReqTypeESaISH_EESG_
libmxnet.so:_ZN5mxnet2op5image10ImageShapeERKN4nnvm9NodeAttrsEPSt6vectorINS_6TShapeESaIS7_EESA_
libmxnet.so:_ZN5mxnet2op5image11ResizeParam11__MANAGER__Ev
libmxnet.so:_ZN5mxnet2op5image11ResizeShapeERKN4nnvm9NodeAttrsEPSt6vectorINS_6TShapeESaIS7_EESA_
libmxnet.so:_ZN5mxnet2op5image12ToTensorTypeERKN4nnvm9NodeAttrsEPSt6vectorIiSaIiEES9_
libmxnet.so:_ZN5mxnet2op5image13CropOpForwardERKN4nnvm9NodeAttrsERKNS_9OpContextERKSt6vectorINS_5TBlobESaISA_EERKS9_INS_9OpReqTypeESaISF_EESE_
libmxnet.so:_ZN5mxnet2op5image13FlipLeftRightERKN4nnvm9NodeAttrsERKNS_9OpContextERKSt6vectorINS_5TBlobESaISA_EERKS9_INS_9OpReqTypeESaISF_EESE_
libmxnet.so:_ZN5mxnet2op5image13FlipTopBottomERKN4nnvm9NodeAttrsERKNS_9OpContextERKSt6vectorINS_5TBlobESaISA_EERKS9_INS_9OpReqTypeESaISF_EESE_
libmxnet.so:_ZN5mxnet2op5image13ToTensorShapeERKN4nnvm9NodeAttrsEPSt6vectorINS_6TShapeESaIS7_EESA_
libmxnet.so:_ZN5mxnet2op5image14AdjustLightingERKN4nnvm9NodeAttrsERKNS_9OpContextERKSt6vectorINS_5TBlobESaISA_EERKS9_INS_9OpReqTypeESaISF_EESE_
libmxnet.so:_ZN5mxnet2op5image14CropOpBackwardERKN4nnvm9NodeAttrsERKNS_9OpContextERKSt6vectorINS_5TBlobESaISA_EERKS9_INS_9OpReqTypeESaISF_EESE_
libmxnet.so:_ZN5mxnet2op5image14NormalizeParam11__MANAGER__Ev
libmxnet.so:_ZN5mxnet2op5image14RandomContrastERKN4nnvm9NodeAttrsERKNS_9OpContextERKSt6vectorINS_5TBlobESaISA_EERKS9_INS_9OpReqTypeESaISF_EESE_
libmxnet.so:_ZN5mxnet2op5image14RandomLightingERKN4nnvm9NodeAttrsERKNS_9OpContextERKSt6vectorINS_5TBlobESaISA_EERKS9_INS_9OpReqTypeESaISF_EESE_
libmxnet.so:_ZN5mxnet2op5image15NormalizeOpTypeERKN4nnvm9NodeAttrsEPSt6vectorIiSaIiEES9_
libmxnet.so:_ZN5mxnet2op5image16NormalizeOpShapeERKN4nnvm9NodeAttrsEPSt6vectorINS_6TShapeESaIS7_EESA_
libmxnet.so:_ZN5mxnet2op5image16RandomBrightnessERKN4nnvm9NodeAttrsERKNS_9OpContextERKSt6vectorINS_5TBlobESaISA_EERKS9_INS_9OpReqTypeESaISF_EESE_
libmxnet.so:_ZN5mxnet2op5image16RandomSaturationERKN4nnvm9NodeAttrsERKNS_9OpContextERKSt6vectorINS_5TBlobESaISA_EERKS9_INS_9OpReqTypeESaISF_EESE_
libmxnet.so:_ZN5mxnet2op5image17RandomColorJitterERKN4nnvm9NodeAttrsERKNS_9OpContextERKSt6vectorINS_5TBlobESaISA_EERKS9_INS_9OpReqTypeESaISF_EESE_
libmxnet.so:_ZN5mxnet2op5image17ToTensorOpForwardIN7mshadow3cpuEEEvRKN4nnvm9NodeAttrsERKNS_9OpContextERKSt6vectorINS_5TBlobESaISD_EERKSC_INS_9OpReqTypeESaISI_EESH_
libmxnet.so:_ZN5mxnet2op5image18NormalizeOpForwardIN7mshadow3cpuEEEvRKN4nnvm9NodeAttrsERKNS_9OpContextERKSt6vectorINS_5TBlobESaISD_EERKSC_INS_9OpReqTypeESaISI_EESH_
libmxnet.so:_ZN5mxnet2op5image18RandomEnhanceParam11__MANAGER__Ev
libmxnet.so:_ZN5mxnet2op5image19AdjustLightingParam11__MANAGER__Ev
libmxnet.so:_ZN5mxnet2op5image19NormalizeOpBackwardIN7mshadow3cpuEEEvRKN4nnvm9NodeAttrsERKNS_9OpContextERKSt6vectorINS_5TBlobESaISD_EERKSC_INS_9OpReqTypeESaISI_EESH_
libmxnet.so:_ZN5mxnet2op5image19RandomFlipLeftRightERKN4nnvm9NodeAttrsERKNS_9OpContextERKSt6vectorINS_5TBlobESaISA_EERKS9_INS_9OpReqTypeESaISF_EESE_
libmxnet.so:_ZN5mxnet2op5image19RandomFlipTopBottomERKN4nnvm9NodeAttrsERKNS_9OpContextERKSt6vectorINS_5TBlobESaISA_EERKS9_INS_9OpReqTypeESaISF_EESE_
libmxnet.so:_ZN5mxnet2op5image19RandomLightingParam11__MANAGER__Ev
libmxnet.so:_ZN5mxnet2op5image22RandomColorJitterParam11__MANAGER__Ev
libmxnet.so:_ZN5mxnet2op5image6ResizeIN7mshadow3cpuEEEvRKN4nnvm9NodeAttrsERKNS_9OpContextERKSt6vectorINS_5TBlobESaISD_EERKSC_INS_9OpReqTypeESaISI_EESH_
libmxnet.so:_ZN5mxnet2op5image9CropParam11__MANAGER__Ev
libmxnet.so:_ZN5mxnet2op5image9CropShapeERKN4nnvm9NodeAttrsEPSt6vectorINS_6TShapeESaIS7_EESA_
libmxnet.so:_ZN5mxnet2op5image9RandomHueERKN4nnvm9NodeAttrsERKNS_9OpContextERKSt6vectorINS_5TBlobESaISA_EERKS9_INS_9OpReqTypeESaISF_EESE_
libmxnet.so:_ZN5mxnet2op6ClipExIN7mshadow3cpuEEEvRKN4nnvm9NodeAttrsERKNS_9OpContextERKSt6vectorINS_7NDArrayESaISC_EERKSB_INS_9OpReqTypeESaISH_EESG_
libmxnet.so:_ZN5mxnet2op6custom10AttrParserEPN4nnvm9NodeAttrsE
libmxnet.so:_ZN5mxnet2op6custom10BackwardExERKNS_10OpStatePtrERKNS_9OpContextERKSt6vectorINS_7NDArrayESaIS9_EERKS8_INS_9OpReqTypeESaISE_EESD_
libmxnet.so:_ZN5mxnet2op6custom10InferShapeERKN4nnvm9NodeAttrsEPSt6vectorINS_6TShapeESaIS7_EESA_
libmxnet.so:_ZN5mxnet2op6custom11CreateStateERKN4nnvm9NodeAttrsENS_7ContextERKSt6vectorINS_6TShapeESaIS8_EERKS7_IiSaIiEE
libmxnet.so:_ZN5mxnet2op6custom16InferStorageTypeERKN4nnvm9NodeAttrsEiPNS_12DispatchModeEPSt6vectorIiSaIiEESB_
libmxnet.so:_ZN5mxnet2op6custom24BackwardInferStorageTypeERKN4nnvm9NodeAttrsEiPNS_12DispatchModeEPSt6vectorIiSaIiEESB_
libmxnet.so:_ZN5mxnet2op6custom4ListIL21CustomOpPropCallbacks2EEESt6vectorINSt7__cxx1112basic_stringIcSt11char_traitsIcESaIcEEESaISA_EERKN4nnvm9NodeAttrsE
libmxnet.so:_ZN5mxnet2op6custom8GradientERKSt10shared_ptrIN4nnvm4NodeEERKSt6vectorINS3_9NodeEntryESaIS9_EE
libmxnet.so:_ZN5mxnet2op6custom9ForwardExERKNS_10OpStatePtrERKNS_9OpContextERKSt6vectorINS_7NDArrayESaIS9_EERKS8_INS_9OpReqTypeESaISE_EESD_
libmxnet.so:_ZN5mxnet2op6custom9InferTypeERKN4nnvm9NodeAttrsEPSt6vectorIiSaIiEES9_
libmxnet.so:_ZN5mxnet2op7ArgSortIN7mshadow3cpuEEEvRKN4nnvm9NodeAttrsERKNS_9OpContextERKSt6vectorINS_5TBlobESaISC_EERKSB_INS_9OpReqTypeESaISH_EESG_
libmxnet.so:_ZN5mxnet2op7EyeFillIN7mshadow3cpuEEEvRKN4nnvm9NodeAttrsERKNS_9OpContextERKSt6vectorINS_5TBlobESaISC_EERKSB_INS_9OpReqTypeESaISH_EESG_
libmxnet.so:_ZN5mxnet2op7LRNTypeERKN4nnvm9NodeAttrsEPSt6vectorIiSaIiEES8_
libmxnet.so:_ZN5mxnet2op7Sample_IN7mshadow3cpuENS0_16SampleGammaParamEEEvRKN4nnvm9NodeAttrsERKNS_9OpContextERKSt6vectorINS_5TBlobESaISD_EERKSC_INS_9OpReqTypeESaISI_EESH_
libmxnet.so:_ZN5mxnet2op7Sample_IN7mshadow3cpuENS0_17SampleNormalParamEEEvRKN4nnvm9NodeAttrsERKNS_9OpContextERKSt6vectorINS_5TBlobESaISD_EERKSC_INS_9OpReqTypeESaISI_EESH_
libmxnet.so:_ZN5mxnet2op7Sample_IN7mshadow3cpuENS0_18SamplePoissonParamEEEvRKN4nnvm9NodeAttrsERKNS_9OpContextERKSt6vectorINS_5TBlobESaISD_EERKSC_INS_9OpReqTypeESaISI_EESH_
libmxnet.so:_ZN5mxnet2op7Sample_IN7mshadow3cpuENS0_18SampleRandIntParamEEEvRKN4nnvm9NodeAttrsERKNS_9OpContextERKSt6vectorINS_5TBlobESaISD_EERKSC_INS_9OpReqTypeESaISI_EESH_
libmxnet.so:_ZN5mxnet2op7Sample_IN7mshadow3cpuENS0_18SampleUniformParamEEEvRKN4nnvm9NodeAttrsERKNS_9OpContextERKSt6vectorINS_5TBlobESaISD_EERKSC_INS_9OpReqTypeESaISI_EESH_
libmxnet.so:_ZN5mxnet2op7Sample_IN7mshadow3cpuENS0_20SampleGammaLikeParamEEEvRKN4nnvm9NodeAttrsERKNS_9OpContextERKSt6vectorINS_5TBlobESaISD_EERKSC_INS_9OpReqTypeESaISI_EESH_
libmxnet.so:_ZN5mxnet2op7Sample_IN7mshadow3cpuENS0_21SampleNormalLikeParamEEEvRKN4nnvm9NodeAttrsERKNS_9OpContextERKSt6vectorINS_5TBlobESaISD_EERKSC_INS_9OpReqTypeESaISI_EESH_
libmxnet.so:_ZN5mxnet2op7Sample_IN7mshadow3cpuENS0_22SampleExponentialParamEEEvRKN4nnvm9NodeAttrsERKNS_9OpContextERKSt6vectorINS_5TBlobESaISD_EERKSC_INS_9OpReqTypeESaISI_EESH_
libmxnet.so:_ZN5mxnet2op7Sample_IN7mshadow3cpuENS0_22SampleNegBinomialParamEEEvRKN4nnvm9NodeAttrsERKNS_9OpContextERKSt6vectorINS_5TBlobESaISD_EERKSC_INS_9OpReqTypeESaISI_EESH_
libmxnet.so:_ZN5mxnet2op7Sample_IN7mshadow3cpuENS0_22SamplePoissonLikeParamEEEvRKN4nnvm9NodeAttrsERKNS_9OpContextERKSt6vectorINS_5TBlobESaISD_EERKSC_INS_9OpReqTypeESaISI_EESH_
libmxnet.so:_ZN5mxnet2op7Sample_IN7mshadow3cpuENS0_22SampleUniformLikeParamEEEvRKN4nnvm9NodeAttrsERKNS_9OpContextERKSt6vectorINS_5TBlobESaISD_EERKSC_INS_9OpReqTypeESaISI_EESH_
libmxnet.so:_ZN5mxnet2op7Sample_IN7mshadow3cpuENS0_25SampleGenNegBinomialParamEEEvRKN4nnvm9NodeAttrsERKNS_9OpContextERKSt6vectorINS_5TBlobESaISD_EERKSC_INS_9OpReqTypeESaISI_EESH_
libmxnet.so:_ZN5mxnet2op7Sample_IN7mshadow3cpuENS0_26SampleExponentialLikeParamEEEvRKN4nnvm9NodeAttrsERKNS_9OpContextERKSt6vectorINS_5TBlobESaISD_EERKSC_INS_9OpReqTypeESaISI_EESH_
libmxnet.so:_ZN5mxnet2op7Sample_IN7mshadow3cpuENS0_26SampleNegBinomialLikeParamEEEvRKN4nnvm9NodeAttrsERKNS_9OpContextERKSt6vectorINS_5TBlobESaISD_EERKSC_INS_9OpReqTypeESaISI_EESH_
libmxnet.so:_ZN5mxnet2op7Sample_IN7mshadow3cpuENS0_29SampleGenNegBinomialLikeParamEEEvRKN4nnvm9NodeAttrsERKNS_9OpContextERKSt6vectorINS_5TBlobESaISD_EERKSC_INS_9OpReqTypeESaISI_EESH_
libmxnet.so:_ZN5mxnet2op7UnaryOp15IdentityComputeIN7mshadow3cpuEEEvRKN4nnvm9NodeAttrsERKNS_9OpContextERKSt6vectorINS_5TBlobESaISD_EERKSC_INS_9OpReqTypeESaISI_EESH_
libmxnet.so:_ZN5mxnet2op7UnaryOp17IdentityComputeExIN7mshadow3cpuEEEvRKN4nnvm9NodeAttrsERKNS_9OpContextERKSt6vectorINS_7NDArrayESaISD_EERKSC_INS_9OpReqTypeESaISI_EESH_
libmxnet.so:_ZN5mxnet2op7UnaryOp26IdentityComputeFirstItemExIN7mshadow3cpuEEEvRKN4nnvm9NodeAttrsERKNS_9OpContextERKSt6vectorINS_7NDArrayESaISD_EERKSC_INS_9OpReqTypeESaISI_EESH_
libmxnet.so:_ZN5mxnet2op7UnaryOp7ComputeIN7mshadow3cpuENS0_10mshadow_op10reciprocalEEEvRKN4nnvm9NodeAttrsERKNS_9OpContextERKSt6vectorINS_5TBlobESaISF_EERKSE_INS_9OpReqTypeESaISK_EESJ_
libmxnet.so:_ZN5mxnet2op7UnaryOp7ComputeIN7mshadow3cpuENS0_10mshadow_op11square_rootEEEvRKN4nnvm9NodeAttrsERKNS_9OpContextERKSt6vectorINS_5TBlobESaISF_EERKSE_INS_9OpReqTypeESaISK_EESJ_
libmxnet.so:_ZN5mxnet2op7UnaryOp7ComputeIN7mshadow3cpuENS0_10mshadow_op20reciprocal_cube_rootEEEvRKN4nnvm9NodeAttrsERKNS_9OpContextERKSt6vectorINS_5TBlobESaISF_EERKSE_INS_9OpReqTypeESaISK_EESJ_
libmxnet.so:_ZN5mxnet2op7UnaryOp7ComputeIN7mshadow3cpuENS0_10mshadow_op22reciprocal_square_rootEEEvRKN4nnvm9NodeAttrsERKNS_9OpContextERKSt6vectorINS_5TBlobESaISF_EERKSE_INS_9OpReqTypeESaISK_EESJ_
libmxnet.so:_ZN5mxnet2op7UnaryOp7ComputeIN7mshadow3cpuENS0_10mshadow_op2ntEEEvRKN4nnvm9NodeAttrsERKNS_9OpContextERKSt6vectorINS_5TBlobESaISF_EERKSE_INS_9OpReqTypeESaISK_EESJ_
libmxnet.so:_ZN5mxnet2op7UnaryOp7ComputeIN7mshadow3cpuENS0_10mshadow_op3absEEEvRKN4nnvm9NodeAttrsERKNS_9OpContextERKSt6vectorINS_5TBlobESaISF_EERKSE_INS_9OpReqTypeESaISK_EESJ_
libmxnet.so:_ZN5mxnet2op7UnaryOp7ComputeIN7mshadow3cpuENS0_10mshadow_op3cosEEEvRKN4nnvm9NodeAttrsERKNS_9OpContextERKSt6vectorINS_5TBlobESaISF_EERKSE_INS_9OpReqTypeESaISK_EESJ_
libmxnet.so:_ZN5mxnet2op7UnaryOp7ComputeIN7mshadow3cpuENS0_10mshadow_op3erfEEEvRKN4nnvm9NodeAttrsERKNS_9OpContextERKSt6vectorINS_5TBlobESaISF_EERKSE_INS_9OpReqTypeESaISK_EESJ_
libmxnet.so:_ZN5mxnet2op7UnaryOp7ComputeIN7mshadow3cpuENS0_10mshadow_op3expEEEvRKN4nnvm9NodeAttrsERKNS_9OpContextERKSt6vectorINS_5TBlobESaISF_EERKSE_INS_9OpReqTypeESaISK_EESJ_
libmxnet.so:_ZN5mxnet2op7UnaryOp7ComputeIN7mshadow3cpuENS0_10mshadow_op3fixEEEvRKN4nnvm9NodeAttrsERKNS_9OpContextERKSt6vectorINS_5TBlobESaISF_EERKSE_INS_9OpReqTypeESaISK_EESJ_
libmxnet.so:_ZN5mxnet2op7UnaryOp7ComputeIN7mshadow3cpuENS0_10mshadow_op3logEEEvRKN4nnvm9NodeAttrsERKNS_9OpContextERKSt6vectorINS_5TBlobESaISF_EERKSE_INS_9OpReqTypeESaISK_EESJ_
libmxnet.so:_ZN5mxnet2op7UnaryOp7ComputeIN7mshadow3cpuENS0_10mshadow_op3sinEEEvRKN4nnvm9NodeAttrsERKNS_9OpContextERKSt6vectorINS_5TBlobESaISF_EERKSE_INS_9OpReqTypeESaISK_EESJ_
libmxnet.so:_ZN5mxnet2op7UnaryOp7ComputeIN7mshadow3cpuENS0_10mshadow_op3tanEEEvRKN4nnvm9NodeAttrsERKNS_9OpContextERKSt6vectorINS_5TBlobESaISF_EERKSE_INS_9OpReqTypeESaISK_EESJ_
libmxnet.so:_ZN5mxnet2op7UnaryOp7ComputeIN7mshadow3cpuENS0_10mshadow_op4ceilEEEvRKN4nnvm9NodeAttrsERKNS_9OpContextERKSt6vectorINS_5TBlobESaISF_EERKSE_INS_9OpReqTypeESaISK_EESJ_
libmxnet.so:_ZN5mxnet2op7UnaryOp7ComputeIN7mshadow3cpuENS0_10mshadow_op4coshEEEvRKN4nnvm9NodeAttrsERKNS_9OpContextERKSt6vectorINS_5TBlobESaISF_EERKSE_INS_9OpReqTypeESaISK_EESJ_
libmxnet.so:_ZN5mxnet2op7UnaryOp7ComputeIN7mshadow3cpuENS0_10mshadow_op4log2EEEvRKN4nnvm9NodeAttrsERKNS_9OpContextERKSt6vectorINS_5TBlobESaISF_EERKSE_INS_9OpReqTypeESaISK_EESJ_
libmxnet.so:_ZN5mxnet2op7UnaryOp7ComputeIN7mshadow3cpuENS0_10mshadow_op4reluEEEvRKN4nnvm9NodeAttrsERKNS_9OpContextERKSt6vectorINS_5TBlobESaISF_EERKSE_INS_9OpReqTypeESaISK_EESJ_
libmxnet.so:_ZN5mxnet2op7UnaryOp7ComputeIN7mshadow3cpuENS0_10mshadow_op4rintEEEvRKN4nnvm9NodeAttrsERKNS_9OpContextERKSt6vectorINS_5TBlobESaISF_EERKSE_INS_9OpReqTypeESaISK_EESJ_
libmxnet.so:_ZN5mxnet2op7UnaryOp7ComputeIN7mshadow3cpuENS0_10mshadow_op4signEEEvRKN4nnvm9NodeAttrsERKNS_9OpContextERKSt6vectorINS_5TBlobESaISF_EERKSE_INS_9OpReqTypeESaISK_EESJ_
libmxnet.so:_ZN5mxnet2op7UnaryOp7ComputeIN7mshadow3cpuENS0_10mshadow_op4sinhEEEvRKN4nnvm9NodeAttrsERKNS_9OpContextERKSt6vectorINS_5TBlobESaISF_EERKSE_INS_9OpReqTypeESaISK_EESJ_
libmxnet.so:_ZN5mxnet2op7UnaryOp7ComputeIN7mshadow3cpuENS0_10mshadow_op4tanhEEEvRKN4nnvm9NodeAttrsERKNS_9OpContextERKSt6vectorINS_5TBlobESaISF_EERKSE_INS_9OpReqTypeESaISK_EESJ_
libmxnet.so:_ZN5mxnet2op7UnaryOp7ComputeIN7mshadow3cpuENS0_10mshadow_op5expm1EEEvRKN4nnvm9NodeAttrsERKNS_9OpContextERKSt6vectorINS_5TBlobESaISF_EERKSE_INS_9OpReqTypeESaISK_EESJ_
libmxnet.so:_ZN5mxnet2op7UnaryOp7ComputeIN7mshadow3cpuENS0_10mshadow_op5floorEEEvRKN4nnvm9NodeAttrsERKNS_9OpContextERKSt6vectorINS_5TBlobESaISF_EERKSE_INS_9OpReqTypeESaISK_EESJ_
libmxnet.so:_ZN5mxnet2op7UnaryOp7ComputeIN7mshadow3cpuENS0_10mshadow_op5gammaEEEvRKN4nnvm9NodeAttrsERKNS_9OpContextERKSt6vectorINS_5TBlobESaISF_EERKSE_INS_9OpReqTypeESaISK_EESJ_
libmxnet.so:_ZN5mxnet2op7UnaryOp7ComputeIN7mshadow3cpuENS0_10mshadow_op5log10EEEvRKN4nnvm9NodeAttrsERKNS_9OpContextERKSt6vectorINS_5TBlobESaISF_EERKSE_INS_9OpReqTypeESaISK_EESJ_
libmxnet.so:_ZN5mxnet2op7UnaryOp7ComputeIN7mshadow3cpuENS0_10mshadow_op5log1pEEEvRKN4nnvm9NodeAttrsERKNS_9OpContextERKSt6vectorINS_5TBlobESaISF_EERKSE_INS_9OpReqTypeESaISK_EESJ_
libmxnet.so:_ZN5mxnet2op7UnaryOp7ComputeIN7mshadow3cpuENS0_10mshadow_op5roundEEEvRKN4nnvm9NodeAttrsERKNS_9OpContextERKSt6vectorINS_5TBlobESaISF_EERKSE_INS_9OpReqTypeESaISK_EESJ_
libmxnet.so:_ZN5mxnet2op7UnaryOp7ComputeIN7mshadow3cpuENS0_10mshadow_op5truncEEEvRKN4nnvm9NodeAttrsERKNS_9OpContextERKSt6vectorINS_5TBlobESaISF_EERKSE_INS_9OpReqTypeESaISK_EESJ_
libmxnet.so:_ZN5mxnet2op7UnaryOp7ComputeIN7mshadow3cpuENS0_10mshadow_op6arccosEEEvRKN4nnvm9NodeAttrsERKNS_9OpContextERKSt6vectorINS_5TBlobESaISF_EERKSE_INS_9OpReqTypeESaISK_EESJ_
libmxnet.so:_ZN5mxnet2op7UnaryOp7ComputeIN7mshadow3cpuENS0_10mshadow_op6arcsinEEEvRKN4nnvm9NodeAttrsERKNS_9OpContextERKSt6vectorINS_5TBlobESaISF_EERKSE_INS_9OpReqTypeESaISK_EESJ_
libmxnet.so:_ZN5mxnet2op7UnaryOp7ComputeIN7mshadow3cpuENS0_10mshadow_op6arctanEEEvRKN4nnvm9NodeAttrsERKNS_9OpContextERKSt6vectorINS_5TBlobESaISF_EERKSE_INS_9OpReqTypeESaISK_EESJ_
libmxnet.so:_ZN5mxnet2op7UnaryOp7ComputeIN7mshadow3cpuENS0_10mshadow_op6erfinvEEEvRKN4nnvm9NodeAttrsERKNS_9OpContextERKSt6vectorINS_5TBlobESaISF_EERKSE_INS_9OpReqTypeESaISK_EESJ_
libmxnet.so:_ZN5mxnet2op7UnaryOp7ComputeIN7mshadow3cpuENS0_10mshadow_op6squareEEEvRKN4nnvm9NodeAttrsERKNS_9OpContextERKSt6vectorINS_5TBlobESaISF_EERKSE_INS_9OpReqTypeESaISK_EESJ_
libmxnet.so:_ZN5mxnet2op7UnaryOp7ComputeIN7mshadow3cpuENS0_10mshadow_op7arccoshEEEvRKN4nnvm9NodeAttrsERKNS_9OpContextERKSt6vectorINS_5TBlobESaISF_EERKSE_INS_9OpReqTypeESaISK_EESJ_
libmxnet.so:_ZN5mxnet2op7UnaryOp7ComputeIN7mshadow3cpuENS0_10mshadow_op7arcsinhEEEvRKN4nnvm9NodeAttrsERKNS_9OpContextERKSt6vectorINS_5TBlobESaISF_EERKSE_INS_9OpReqTypeESaISK_EESJ_
libmxnet.so:_ZN5mxnet2op7UnaryOp7ComputeIN7mshadow3cpuENS0_10mshadow_op7arctanhEEEvRKN4nnvm9NodeAttrsERKNS_9OpContextERKSt6vectorINS_5TBlobESaISF_EERKSE_INS_9OpReqTypeESaISK_EESJ_
libmxnet.so:_ZN5mxnet2op7UnaryOp7ComputeIN7mshadow3cpuENS0_10mshadow_op7degreesEEEvRKN4nnvm9NodeAttrsERKNS_9OpContextERKSt6vectorINS_5TBlobESaISF_EERKSE_INS_9OpReqTypeESaISK_EESJ_
libmxnet.so:_ZN5mxnet2op7UnaryOp7ComputeIN7mshadow3cpuENS0_10mshadow_op7gammalnEEEvRKN4nnvm9NodeAttrsERKNS_9OpContextERKSt6vectorINS_5TBlobESaISF_EERKSE_INS_9OpReqTypeESaISK_EESJ_
libmxnet.so:_ZN5mxnet2op7UnaryOp7ComputeIN7mshadow3cpuENS0_10mshadow_op7radiansEEEvRKN4nnvm9NodeAttrsERKNS_9OpContextERKSt6vectorINS_5TBlobESaISF_EERKSE_INS_9OpReqTypeESaISK_EESJ_
libmxnet.so:_ZN5mxnet2op7UnaryOp7ComputeIN7mshadow3cpuENS0_10mshadow_op7sigmoidEEEvRKN4nnvm9NodeAttrsERKNS_9OpContextERKSt6vectorINS_5TBlobESaISF_EERKSE_INS_9OpReqTypeESaISK_EESJ_
libmxnet.so:_ZN5mxnet2op7UnaryOp7ComputeIN7mshadow3cpuENS0_10mshadow_op8identityEEEvRKN4nnvm9NodeAttrsERKNS_9OpContextERKSt6vectorINS_5TBlobESaISF_EERKSE_INS_9OpReqTypeESaISK_EESJ_
libmxnet.so:_ZN5mxnet2op7UnaryOp7ComputeIN7mshadow3cpuENS0_10mshadow_op8negationEEEvRKN4nnvm9NodeAttrsERKNS_9OpContextERKSt6vectorINS_5TBlobESaISF_EERKSE_INS_9OpReqTypeESaISK_EESJ_
libmxnet.so:_ZN5mxnet2op7UnaryOp7ComputeIN7mshadow3cpuENS0_10mshadow_op8softsignEEEvRKN4nnvm9NodeAttrsERKNS_9OpContextERKSt6vectorINS_5TBlobESaISF_EERKSE_INS_9OpReqTypeESaISK_EESJ_
libmxnet.so:_ZN5mxnet2op7UnaryOp7ComputeIN7mshadow3cpuENS0_10mshadow_op9cube_rootEEEvRKN4nnvm9NodeAttrsERKNS_9OpContextERKSt6vectorINS_5TBlobESaISF_EERKSE_INS_9OpReqTypeESaISK_EESJ_
libmxnet.so:_ZN5mxnet2op7UnaryOp9ComputeExIN7mshadow3cpuENS0_10mshadow_op11square_rootEEEvRKN4nnvm9NodeAttrsERKNS_9OpContextERKSt6vectorINS_7NDArrayESaISF_EERKSE_INS_9OpReqTypeESaISK_EESJ_
libmxnet.so:_ZN5mxnet2op7UnaryOp9ComputeExIN7mshadow3cpuENS0_10mshadow_op3absEEEvRKN4nnvm9NodeAttrsERKNS_9OpContextERKSt6vectorINS_7NDArrayESaISF_EERKSE_INS_9OpReqTypeESaISK_EESJ_
libmxnet.so:_ZN5mxnet2op7UnaryOp9ComputeExIN7mshadow3cpuENS0_10mshadow_op3fixEEEvRKN4nnvm9NodeAttrsERKNS_9OpContextERKSt6vectorINS_7NDArrayESaISF_EERKSE_INS_9OpReqTypeESaISK_EESJ_
libmxnet.so:_ZN5mxnet2op7UnaryOp9ComputeExIN7mshadow3cpuENS0_10mshadow_op3sinEEEvRKN4nnvm9NodeAttrsERKNS_9OpContextERKSt6vectorINS_7NDArrayESaISF_EERKSE_INS_9OpReqTypeESaISK_EESJ_
libmxnet.so:_ZN5mxnet2op7UnaryOp9ComputeExIN7mshadow3cpuENS0_10mshadow_op3tanEEEvRKN4nnvm9NodeAttrsERKNS_9OpContextERKSt6vectorINS_7NDArrayESaISF_EERKSE_INS_9OpReqTypeESaISK_EESJ_
libmxnet.so:_ZN5mxnet2op7UnaryOp9ComputeExIN7mshadow3cpuENS0_10mshadow_op4ceilEEEvRKN4nnvm9NodeAttrsERKNS_9OpContextERKSt6vectorINS_7NDArrayESaISF_EERKSE_INS_9OpReqTypeESaISK_EESJ_
libmxnet.so:_ZN5mxnet2op7UnaryOp9ComputeExIN7mshadow3cpuENS0_10mshadow_op4reluEEEvRKN4nnvm9NodeAttrsERKNS_9OpContextERKSt6vectorINS_7NDArrayESaISF_EERKSE_INS_9OpReqTypeESaISK_EESJ_
libmxnet.so:_ZN5mxnet2op7UnaryOp9ComputeExIN7mshadow3cpuENS0_10mshadow_op4rintEEEvRKN4nnvm9NodeAttrsERKNS_9OpContextERKSt6vectorINS_7NDArrayESaISF_EERKSE_INS_9OpReqTypeESaISK_EESJ_
libmxnet.so:_ZN5mxnet2op7UnaryOp9ComputeExIN7mshadow3cpuENS0_10mshadow_op4signEEEvRKN4nnvm9NodeAttrsERKNS_9OpContextERKSt6vectorINS_7NDArrayESaISF_EERKSE_INS_9OpReqTypeESaISK_EESJ_
libmxnet.so:_ZN5mxnet2op7UnaryOp9ComputeExIN7mshadow3cpuENS0_10mshadow_op4sinhEEEvRKN4nnvm9NodeAttrsERKNS_9OpContextERKSt6vectorINS_7NDArrayESaISF_EERKSE_INS_9OpReqTypeESaISK_EESJ_
libmxnet.so:_ZN5mxnet2op7UnaryOp9ComputeExIN7mshadow3cpuENS0_10mshadow_op4tanhEEEvRKN4nnvm9NodeAttrsERKNS_9OpContextERKSt6vectorINS_7NDArrayESaISF_EERKSE_INS_9OpReqTypeESaISK_EESJ_
libmxnet.so:_ZN5mxnet2op7UnaryOp9ComputeExIN7mshadow3cpuENS0_10mshadow_op5expm1EEEvRKN4nnvm9NodeAttrsERKNS_9OpContextERKSt6vectorINS_7NDArrayESaISF_EERKSE_INS_9OpReqTypeESaISK_EESJ_
libmxnet.so:_ZN5mxnet2op7UnaryOp9ComputeExIN7mshadow3cpuENS0_10mshadow_op5floorEEEvRKN4nnvm9NodeAttrsERKNS_9OpContextERKSt6vectorINS_7NDArrayESaISF_EERKSE_INS_9OpReqTypeESaISK_EESJ_
libmxnet.so:_ZN5mxnet2op7UnaryOp9ComputeExIN7mshadow3cpuENS0_10mshadow_op5log1pEEEvRKN4nnvm9NodeAttrsERKNS_9OpContextERKSt6vectorINS_7NDArrayESaISF_EERKSE_INS_9OpReqTypeESaISK_EESJ_
libmxnet.so:_ZN5mxnet2op7UnaryOp9ComputeExIN7mshadow3cpuENS0_10mshadow_op5roundEEEvRKN4nnvm9NodeAttrsERKNS_9OpContextERKSt6vectorINS_7NDArrayESaISF_EERKSE_INS_9OpReqTypeESaISK_EESJ_
libmxnet.so:_ZN5mxnet2op7UnaryOp9ComputeExIN7mshadow3cpuENS0_10mshadow_op5truncEEEvRKN4nnvm9NodeAttrsERKNS_9OpContextERKSt6vectorINS_7NDArrayESaISF_EERKSE_INS_9OpReqTypeESaISK_EESJ_
libmxnet.so:_ZN5mxnet2op7UnaryOp9ComputeExIN7mshadow3cpuENS0_10mshadow_op6arcsinEEEvRKN4nnvm9NodeAttrsERKNS_9OpContextERKSt6vectorINS_7NDArrayESaISF_EERKSE_INS_9OpReqTypeESaISK_EESJ_
libmxnet.so:_ZN5mxnet2op7UnaryOp9ComputeExIN7mshadow3cpuENS0_10mshadow_op6arctanEEEvRKN4nnvm9NodeAttrsERKNS_9OpContextERKSt6vectorINS_7NDArrayESaISF_EERKSE_INS_9OpReqTypeESaISK_EESJ_
libmxnet.so:_ZN5mxnet2op7UnaryOp9ComputeExIN7mshadow3cpuENS0_10mshadow_op6squareEEEvRKN4nnvm9NodeAttrsERKNS_9OpContextERKSt6vectorINS_7NDArrayESaISF_EERKSE_INS_9OpReqTypeESaISK_EESJ_
libmxnet.so:_ZN5mxnet2op7UnaryOp9ComputeExIN7mshadow3cpuENS0_10mshadow_op7arcsinhEEEvRKN4nnvm9NodeAttrsERKNS_9OpContextERKSt6vectorINS_7NDArrayESaISF_EERKSE_INS_9OpReqTypeESaISK_EESJ_
libmxnet.so:_ZN5mxnet2op7UnaryOp9ComputeExIN7mshadow3cpuENS0_10mshadow_op7arctanhEEEvRKN4nnvm9NodeAttrsERKNS_9OpContextERKSt6vectorINS_7NDArrayESaISF_EERKSE_INS_9OpReqTypeESaISK_EESJ_
libmxnet.so:_ZN5mxnet2op7UnaryOp9ComputeExIN7mshadow3cpuENS0_10mshadow_op7degreesEEEvRKN4nnvm9NodeAttrsERKNS_9OpContextERKSt6vectorINS_7NDArrayESaISF_EERKSE_INS_9OpReqTypeESaISK_EESJ_
libmxnet.so:_ZN5mxnet2op7UnaryOp9ComputeExIN7mshadow3cpuENS0_10mshadow_op7radiansEEEvRKN4nnvm9NodeAttrsERKNS_9OpContextERKSt6vectorINS_7NDArrayESaISF_EERKSE_INS_9OpReqTypeESaISK_EESJ_
libmxnet.so:_ZN5mxnet2op7UnaryOp9ComputeExIN7mshadow3cpuENS0_10mshadow_op8negationEEEvRKN4nnvm9NodeAttrsERKNS_9OpContextERKSt6vectorINS_7NDArrayESaISF_EERKSE_INS_9OpReqTypeESaISK_EESJ_
libmxnet.so:_ZN5mxnet2op7UnaryOp9ComputeExIN7mshadow3cpuENS0_10mshadow_op9cube_rootEEEvRKN4nnvm9NodeAttrsERKNS_9OpContextERKSt6vectorINS_7NDArrayESaISF_EERKSE_INS_9OpReqTypeESaISK_EESJ_
libmxnet.so:_ZN5mxnet2op8CastTypeERKN4nnvm9NodeAttrsEPSt6vectorIiSaIiEES8_
libmxnet.so:_ZN5mxnet2op8CreateOpIN7mshadow3cpuEEEPNS_8OperatorENS0_13MakeLossParamEi
libmxnet.so:_ZN5mxnet2op8CreateOpIN7mshadow3cpuEEEPNS_8OperatorENS0_13NativeOpParamE
libmxnet.so:_ZN5mxnet2op8CreateOpIN7mshadow3cpuEEEPNS_8OperatorENS0_13ProposalParamE
libmxnet.so:_ZN5mxnet2op8CreateOpIN7mshadow3cpuEEEPNS_8OperatorENS0_13SwapAxisParamEi
libmxnet.so:_ZN5mxnet2op8CreateOpIN7mshadow3cpuEEEPNS_8OperatorENS0_14LeakyReLUParamEi
libmxnet.so:_ZN5mxnet2op8CreateOpIN7mshadow3cpuEEEPNS_8OperatorENS0_14NDArrayOpParamE
libmxnet.so:_ZN5mxnet2op8CreateOpIN7mshadow3cpuEEEPNS_8OperatorENS0_14PoolingV1ParamEi
libmxnet.so:_ZN5mxnet2op8CreateOpIN7mshadow3cpuEEEPNS_8OperatorENS0_14SVMOutputParamEi
libmxnet.so:_ZN5mxnet2op8CreateOpIN7mshadow3cpuEEEPNS_8OperatorENS0_15ROIPoolingParamEi
libmxnet.so:_ZN5mxnet2op8CreateOpIN7mshadow3cpuEEEPNS_8OperatorENS0_16BatchNormV1ParamEi
libmxnet.so:_ZN5mxnet2op8CreateOpIN7mshadow3cpuEEEPNS_8OperatorENS0_16CorrelationParamEi
libmxnet.so:_ZN5mxnet2op8CreateOpIN7mshadow3cpuEEEPNS_8OperatorENS0_16CountSketchParamEi
libmxnet.so:_ZN5mxnet2op8CreateOpIN7mshadow3cpuEEEPNS_8OperatorENS0_17InstanceNormParamEi
libmxnet.so:_ZN5mxnet2op8CreateOpIN7mshadow3cpuEEEPNS_8OperatorENS0_17PSROIPoolingParamEi
libmxnet.so:_ZN5mxnet2op8CreateOpIN7mshadow3cpuEEEPNS_8OperatorENS0_17SequenceLastParamEii
libmxnet.so:_ZN5mxnet2op8CreateOpIN7mshadow3cpuEEEPNS_8OperatorENS0_17SequenceMaskParamEii
libmxnet.so:_ZN5mxnet2op8CreateOpIN7mshadow3cpuEEEPNS_8OperatorENS0_17SliceChannelParamEi
libmxnet.so:_ZN5mxnet2op8CreateOpIN7mshadow3cpuEEEPNS_8OperatorENS0_18ConvolutionV1ParamEiPSt6vectorINS_6TShapeESaIS8_EESB_NS_7ContextE
libmxnet.so:_ZN5mxnet2op8CreateOpIN7mshadow3cpuEEEPNS_8OperatorENS0_18GridGeneratorParamEi
libmxnet.so:_ZN5mxnet2op8CreateOpIN7mshadow3cpuEEEPNS_8OperatorENS0_18MultiBoxPriorParamEi
libmxnet.so:_ZN5mxnet2op8CreateOpIN7mshadow3cpuEEEPNS_8OperatorENS0_18MultiProposalParamE
libmxnet.so:_ZN5mxnet2op8CreateOpIN7mshadow3cpuEEEPNS_8OperatorENS0_18SyncBatchNormParamEi
libmxnet.so:_ZN5mxnet2op8CreateOpIN7mshadow3cpuEEEPNS_8OperatorENS0_19MultiBoxTargetParamEi
libmxnet.so:_ZN5mxnet2op8CreateOpIN7mshadow3cpuEEEPNS_8OperatorENS0_20BilinearSamplerParamEi
libmxnet.so:_ZN5mxnet2op8CreateOpIN7mshadow3cpuEEEPNS_8OperatorENS0_20L2NormalizationParamEi
libmxnet.so:_ZN5mxnet2op8CreateOpIN7mshadow3cpuEEEPNS_8OperatorENS0_20SequenceReverseParamEii
libmxnet.so:_ZN5mxnet2op8CreateOpIN7mshadow3cpuEEEPNS_8OperatorENS0_22MultiBoxDetectionParamEi
libmxnet.so:_ZN5mxnet2op8CreateOpIN7mshadow3cpuEEEPNS_8OperatorENS0_23SpatialTransformerParamEi
libmxnet.so:_ZN5mxnet2op8CreateOpIN7mshadow3cpuEEEPNS_8OperatorENS0_26DeformableConvolutionParamEiPSt6vectorINS_6TShapeESaIS8_EESB_NS_7ContextE
libmxnet.so:_ZN5mxnet2op8CreateOpIN7mshadow3cpuEEEPNS_8OperatorENS0_27DeformablePSROIPoolingParamEi
libmxnet.so:_ZN5mxnet2op8CreateOpIN7mshadow3cpuEEEPNS_8OperatorENS0_30IdentityAttachKLSparseRegParamE
libmxnet.so:_ZN5mxnet2op8CreateOpIN7mshadow3cpuEEEPNS_8OperatorENS0_8FFTParamEi
libmxnet.so:_ZN5mxnet2op8CreateOpIN7mshadow3cpuEEEPNS_8OperatorENS0_8PadParamEi
libmxnet.so:_ZN5mxnet2op8CreateOpIN7mshadow3cpuEEEPNS_8OperatorENS0_9CropParamE
libmxnet.so:_ZN5mxnet2op8CreateOpIN7mshadow3cpuEEEPNS_8OperatorENS0_9IFFTParamEi
libmxnet.so:_ZN5mxnet2op8DotParam11__MANAGER__Ev
libmxnet.so:_ZN5mxnet2op8DotShapeERKN4nnvm9NodeAttrsEPSt6vectorINS_6TShapeESaIS6_EES9_
libmxnet.so:_ZN5mxnet2op8EyeParam11__MANAGER__Ev
libmxnet.so:_ZN5mxnet2op8FFTParam11__MANAGER__Ev
libmxnet.so:_ZN5mxnet2op8InitTypeINS0_10RangeParamEEEbRKN4nnvm9NodeAttrsEPSt6vectorIiSaIiEESA_
libmxnet.so:_ZN5mxnet2op8InitTypeINS0_11InitOpParamEEEbRKN4nnvm9NodeAttrsEPSt6vectorIiSaIiEESA_
libmxnet.so:_ZN5mxnet2op8InitTypeINS0_13LinspaceParamEEEbRKN4nnvm9NodeAttrsEPSt6vectorIiSaIiEESA_
libmxnet.so:_ZN5mxnet2op8InitTypeINS0_21InitOpWithScalarParamEEEbRKN4nnvm9NodeAttrsEPSt6vectorIiSaIiEESA_
libmxnet.so:_ZN5mxnet2op8InitTypeINS0_23InitOpWithoutDTypeParamEEEbRKN4nnvm9NodeAttrsEPSt6vectorIiSaIiEESA_
libmxnet.so:_ZN5mxnet2op8InitTypeINS0_8EyeParamEEEbRKN4nnvm9NodeAttrsEPSt6vectorIiSaIiEESA_
libmxnet.so:_ZN5mxnet2op8LRNParam11__MANAGER__Ev
libmxnet.so:_ZN5mxnet2op8LRNShapeERKN4nnvm9NodeAttrsEPSt6vectorINS_6TShapeESaIS6_EES9_
libmxnet.so:_ZN5mxnet2op8NAGParam11__MANAGER__Ev
libmxnet.so:_ZN5mxnet2op8NNZParam11__MANAGER__Ev
libmxnet.so:_ZN5mxnet2op8NNZShapeERKN4nnvm9NodeAttrsEPSt6vectorINS_6TShapeESaIS6_EES9_
libmxnet.so:_ZN5mxnet2op8NormTypeERKN4nnvm9NodeAttrsEPSt6vectorIiSaIiEES8_
libmxnet.so:_ZN5mxnet2op8PadParam11__MANAGER__Ev
libmxnet.so:_ZN5mxnet2op8RNNParam11__MANAGER__Ev
libmxnet.so:_ZN5mxnet2op8SGDParam11__MANAGER__Ev
libmxnet.so:_ZN5mxnet2op8SortTypeERKN4nnvm9NodeAttrsEPSt6vectorIiSaIiEES8_
libmxnet.so:_ZN5mxnet2op8TopKTypeERKN4nnvm9NodeAttrsEPSt6vectorIiSaIiEES8_
libmxnet.so:_ZN5mxnet2op8mxnet_op8tuned_opINS0_10mshadow_op10logical_orEN7mshadow4half6half_tEE6UseOMPEmm
libmxnet.so:_ZN5mxnet2op8mxnet_op8tuned_opINS0_10mshadow_op10logical_orEaE6UseOMPEmm
libmxnet.so:_ZN5mxnet2op8mxnet_op8tuned_opINS0_10mshadow_op10logical_orEdE6UseOMPEmm
libmxnet.so:_ZN5mxnet2op8mxnet_op8tuned_opINS0_10mshadow_op10logical_orEfE6UseOMPEmm
libmxnet.so:_ZN5mxnet2op8mxnet_op8tuned_opINS0_10mshadow_op10logical_orEhE6UseOMPEmm
libmxnet.so:_ZN5mxnet2op8mxnet_op8tuned_opINS0_10mshadow_op10logical_orEiE6UseOMPEmm
libmxnet.so:_ZN5mxnet2op8mxnet_op8tuned_opINS0_10mshadow_op10logical_orElE6UseOMPEmm
libmxnet.so:_ZN5mxnet2op8mxnet_op8tuned_opINS0_10mshadow_op10minus_signEN7mshadow4half6half_tEE6UseOMPEmm
libmxnet.so:_ZN5mxnet2op8mxnet_op8tuned_opINS0_10mshadow_op10minus_signEaE6UseOMPEmm
libmxnet.so:_ZN5mxnet2op8mxnet_op8tuned_opINS0_10mshadow_op10minus_signEdE6UseOMPEmm
libmxnet.so:_ZN5mxnet2op8mxnet_op8tuned_opINS0_10mshadow_op10minus_signEfE6UseOMPEmm
libmxnet.so:_ZN5mxnet2op8mxnet_op8tuned_opINS0_10mshadow_op10minus_signEhE6UseOMPEmm
libmxnet.so:_ZN5mxnet2op8mxnet_op8tuned_opINS0_10mshadow_op10minus_signEiE6UseOMPEmm
libmxnet.so:_ZN5mxnet2op8mxnet_op8tuned_opINS0_10mshadow_op10minus_signElE6UseOMPEmm
libmxnet.so:_ZN5mxnet2op8mxnet_op8tuned_opINS0_10mshadow_op10reciprocalEN7mshadow4half6half_tEE6UseOMPEmm
libmxnet.so:_ZN5mxnet2op8mxnet_op8tuned_opINS0_10mshadow_op10reciprocalEaE6UseOMPEmm
libmxnet.so:_ZN5mxnet2op8mxnet_op8tuned_opINS0_10mshadow_op10reciprocalEdE6UseOMPEmm
libmxnet.so:_ZN5mxnet2op8mxnet_op8tuned_opINS0_10mshadow_op10reciprocalEfE6UseOMPEmm
libmxnet.so:_ZN5mxnet2op8mxnet_op8tuned_opINS0_10mshadow_op10reciprocalEhE6UseOMPEmm
libmxnet.so:_ZN5mxnet2op8mxnet_op8tuned_opINS0_10mshadow_op10reciprocalEiE6UseOMPEmm
libmxnet.so:_ZN5mxnet2op8mxnet_op8tuned_opINS0_10mshadow_op10reciprocalElE6UseOMPEmm
libmxnet.so:_ZN5mxnet2op8mxnet_op8tuned_opINS0_10mshadow_op11logical_andEN7mshadow4half6half_tEE6UseOMPEmm
libmxnet.so:_ZN5mxnet2op8mxnet_op8tuned_opINS0_10mshadow_op11logical_andEaE6UseOMPEmm
libmxnet.so:_ZN5mxnet2op8mxnet_op8tuned_opINS0_10mshadow_op11logical_andEdE6UseOMPEmm
libmxnet.so:_ZN5mxnet2op8mxnet_op8tuned_opINS0_10mshadow_op11logical_andEfE6UseOMPEmm
libmxnet.so:_ZN5mxnet2op8mxnet_op8tuned_opINS0_10mshadow_op11logical_andEhE6UseOMPEmm
libmxnet.so:_ZN5mxnet2op8mxnet_op8tuned_opINS0_10mshadow_op11logical_andEiE6UseOMPEmm
libmxnet.so:_ZN5mxnet2op8mxnet_op8tuned_opINS0_10mshadow_op11logical_andElE6UseOMPEmm
libmxnet.so:_ZN5mxnet2op8mxnet_op8tuned_opINS0_10mshadow_op11logical_xorEN7mshadow4half6half_tEE6UseOMPEmm
libmxnet.so:_ZN5mxnet2op8mxnet_op8tuned_opINS0_10mshadow_op11logical_xorEaE6UseOMPEmm
libmxnet.so:_ZN5mxnet2op8mxnet_op8tuned_opINS0_10mshadow_op11logical_xorEdE6UseOMPEmm
libmxnet.so:_ZN5mxnet2op8mxnet_op8tuned_opINS0_10mshadow_op11logical_xorEfE6UseOMPEmm
libmxnet.so:_ZN5mxnet2op8mxnet_op8tuned_opINS0_10mshadow_op11logical_xorEhE6UseOMPEmm
libmxnet.so:_ZN5mxnet2op8mxnet_op8tuned_opINS0_10mshadow_op11logical_xorEiE6UseOMPEmm
libmxnet.so:_ZN5mxnet2op8mxnet_op8tuned_opINS0_10mshadow_op11logical_xorElE6UseOMPEmm
libmxnet.so:_ZN5mxnet2op8mxnet_op8tuned_opINS0_10mshadow_op11square_rootEN7mshadow4half6half_tEE6UseOMPEmm
libmxnet.so:_ZN5mxnet2op8mxnet_op8tuned_opINS0_10mshadow_op11square_rootEaE6UseOMPEmm
libmxnet.so:_ZN5mxnet2op8mxnet_op8tuned_opINS0_10mshadow_op11square_rootEdE6UseOMPEmm
libmxnet.so:_ZN5mxnet2op8mxnet_op8tuned_opINS0_10mshadow_op11square_rootEfE6UseOMPEmm
libmxnet.so:_ZN5mxnet2op8mxnet_op8tuned_opINS0_10mshadow_op11square_rootEhE6UseOMPEmm
libmxnet.so:_ZN5mxnet2op8mxnet_op8tuned_opINS0_10mshadow_op11square_rootEiE6UseOMPEmm
libmxnet.so:_ZN5mxnet2op8mxnet_op8tuned_opINS0_10mshadow_op11square_rootElE6UseOMPEmm
libmxnet.so:_ZN5mxnet2op8mxnet_op8tuned_opINS0_10mshadow_op14smooth_l1_lossEN7mshadow4half6half_tEE6UseOMPEmm
libmxnet.so:_ZN5mxnet2op8mxnet_op8tuned_opINS0_10mshadow_op14smooth_l1_lossEaE6UseOMPEmm
libmxnet.so:_ZN5mxnet2op8mxnet_op8tuned_opINS0_10mshadow_op14smooth_l1_lossEdE6UseOMPEmm
libmxnet.so:_ZN5mxnet2op8mxnet_op8tuned_opINS0_10mshadow_op14smooth_l1_lossEfE6UseOMPEmm
libmxnet.so:_ZN5mxnet2op8mxnet_op8tuned_opINS0_10mshadow_op14smooth_l1_lossEhE6UseOMPEmm
libmxnet.so:_ZN5mxnet2op8mxnet_op8tuned_opINS0_10mshadow_op14smooth_l1_lossEiE6UseOMPEmm
libmxnet.so:_ZN5mxnet2op8mxnet_op8tuned_opINS0_10mshadow_op14smooth_l1_lossElE6UseOMPEmm
libmxnet.so:_ZN5mxnet2op8mxnet_op8tuned_opINS0_10mshadow_op15hypot_grad_leftEN7mshadow4half6half_tEE6UseOMPEmm
libmxnet.so:_ZN5mxnet2op8mxnet_op8tuned_opINS0_10mshadow_op15hypot_grad_leftEaE6UseOMPEmm
libmxnet.so:_ZN5mxnet2op8mxnet_op8tuned_opINS0_10mshadow_op15hypot_grad_leftEdE6UseOMPEmm
libmxnet.so:_ZN5mxnet2op8mxnet_op8tuned_opINS0_10mshadow_op15hypot_grad_leftEfE6UseOMPEmm
libmxnet.so:_ZN5mxnet2op8mxnet_op8tuned_opINS0_10mshadow_op15hypot_grad_leftEhE6UseOMPEmm
libmxnet.so:_ZN5mxnet2op8mxnet_op8tuned_opINS0_10mshadow_op15hypot_grad_leftEiE6UseOMPEmm
libmxnet.so:_ZN5mxnet2op8mxnet_op8tuned_opINS0_10mshadow_op15hypot_grad_leftElE6UseOMPEmm
libmxnet.so:_ZN5mxnet2op8mxnet_op8tuned_opINS0_10mshadow_op16hypot_grad_rightEN7mshadow4half6half_tEE6UseOMPEmm
libmxnet.so:_ZN5mxnet2op8mxnet_op8tuned_opINS0_10mshadow_op16hypot_grad_rightEaE6UseOMPEmm
libmxnet.so:_ZN5mxnet2op8mxnet_op8tuned_opINS0_10mshadow_op16hypot_grad_rightEdE6UseOMPEmm
libmxnet.so:_ZN5mxnet2op8mxnet_op8tuned_opINS0_10mshadow_op16hypot_grad_rightEfE6UseOMPEmm
libmxnet.so:_ZN5mxnet2op8mxnet_op8tuned_opINS0_10mshadow_op16hypot_grad_rightEhE6UseOMPEmm
libmxnet.so:_ZN5mxnet2op8mxnet_op8tuned_opINS0_10mshadow_op16hypot_grad_rightEiE6UseOMPEmm
libmxnet.so:_ZN5mxnet2op8mxnet_op8tuned_opINS0_10mshadow_op16hypot_grad_rightElE6UseOMPEmm
libmxnet.so:_ZN5mxnet2op8mxnet_op8tuned_opINS0_10mshadow_op20reciprocal_cube_rootEN7mshadow4half6half_tEE6UseOMPEmm
libmxnet.so:_ZN5mxnet2op8mxnet_op8tuned_opINS0_10mshadow_op20reciprocal_cube_rootEaE6UseOMPEmm
libmxnet.so:_ZN5mxnet2op8mxnet_op8tuned_opINS0_10mshadow_op20reciprocal_cube_rootEdE6UseOMPEmm
libmxnet.so:_ZN5mxnet2op8mxnet_op8tuned_opINS0_10mshadow_op20reciprocal_cube_rootEfE6UseOMPEmm
libmxnet.so:_ZN5mxnet2op8mxnet_op8tuned_opINS0_10mshadow_op20reciprocal_cube_rootEhE6UseOMPEmm
libmxnet.so:_ZN5mxnet2op8mxnet_op8tuned_opINS0_10mshadow_op20reciprocal_cube_rootEiE6UseOMPEmm
libmxnet.so:_ZN5mxnet2op8mxnet_op8tuned_opINS0_10mshadow_op20reciprocal_cube_rootElE6UseOMPEmm
libmxnet.so:_ZN5mxnet2op8mxnet_op8tuned_opINS0_10mshadow_op22reciprocal_square_rootEN7mshadow4half6half_tEE6UseOMPEmm
libmxnet.so:_ZN5mxnet2op8mxnet_op8tuned_opINS0_10mshadow_op22reciprocal_square_rootEaE6UseOMPEmm
libmxnet.so:_ZN5mxnet2op8mxnet_op8tuned_opINS0_10mshadow_op22reciprocal_square_rootEdE6UseOMPEmm
libmxnet.so:_ZN5mxnet2op8mxnet_op8tuned_opINS0_10mshadow_op22reciprocal_square_rootEfE6UseOMPEmm
libmxnet.so:_ZN5mxnet2op8mxnet_op8tuned_opINS0_10mshadow_op22reciprocal_square_rootEhE6UseOMPEmm
libmxnet.so:_ZN5mxnet2op8mxnet_op8tuned_opINS0_10mshadow_op22reciprocal_square_rootEiE6UseOMPEmm
libmxnet.so:_ZN5mxnet2op8mxnet_op8tuned_opINS0_10mshadow_op22reciprocal_square_rootElE6UseOMPEmm
libmxnet.so:_ZN5mxnet2op8mxnet_op8tuned_opINS0_10mshadow_op2eqEN7mshadow4half6half_tEE6UseOMPEmm
libmxnet.so:_ZN5mxnet2op8mxnet_op8tuned_opINS0_10mshadow_op2eqEaE6UseOMPEmm
libmxnet.so:_ZN5mxnet2op8mxnet_op8tuned_opINS0_10mshadow_op2eqEdE6UseOMPEmm
libmxnet.so:_ZN5mxnet2op8mxnet_op8tuned_opINS0_10mshadow_op2eqEfE6UseOMPEmm
libmxnet.so:_ZN5mxnet2op8mxnet_op8tuned_opINS0_10mshadow_op2eqEhE6UseOMPEmm
libmxnet.so:_ZN5mxnet2op8mxnet_op8tuned_opINS0_10mshadow_op2eqEiE6UseOMPEmm
libmxnet.so:_ZN5mxnet2op8mxnet_op8tuned_opINS0_10mshadow_op2eqElE6UseOMPEmm
libmxnet.so:_ZN5mxnet2op8mxnet_op8tuned_opINS0_10mshadow_op2geEN7mshadow4half6half_tEE6UseOMPEmm
libmxnet.so:_ZN5mxnet2op8mxnet_op8tuned_opINS0_10mshadow_op2geEaE6UseOMPEmm
libmxnet.so:_ZN5mxnet2op8mxnet_op8tuned_opINS0_10mshadow_op2geEdE6UseOMPEmm
libmxnet.so:_ZN5mxnet2op8mxnet_op8tuned_opINS0_10mshadow_op2geEfE6UseOMPEmm
libmxnet.so:_ZN5mxnet2op8mxnet_op8tuned_opINS0_10mshadow_op2geEhE6UseOMPEmm
libmxnet.so:_ZN5mxnet2op8mxnet_op8tuned_opINS0_10mshadow_op2geEiE6UseOMPEmm
libmxnet.so:_ZN5mxnet2op8mxnet_op8tuned_opINS0_10mshadow_op2geElE6UseOMPEmm
libmxnet.so:_ZN5mxnet2op8mxnet_op8tuned_opINS0_10mshadow_op2gtEN7mshadow4half6half_tEE6UseOMPEmm
libmxnet.so:_ZN5mxnet2op8mxnet_op8tuned_opINS0_10mshadow_op2gtEaE6UseOMPEmm
libmxnet.so:_ZN5mxnet2op8mxnet_op8tuned_opINS0_10mshadow_op2gtEdE6UseOMPEmm
libmxnet.so:_ZN5mxnet2op8mxnet_op8tuned_opINS0_10mshadow_op2gtEfE6UseOMPEmm
libmxnet.so:_ZN5mxnet2op8mxnet_op8tuned_opINS0_10mshadow_op2gtEhE6UseOMPEmm
libmxnet.so:_ZN5mxnet2op8mxnet_op8tuned_opINS0_10mshadow_op2gtEiE6UseOMPEmm
libmxnet.so:_ZN5mxnet2op8mxnet_op8tuned_opINS0_10mshadow_op2gtElE6UseOMPEmm
libmxnet.so:_ZN5mxnet2op8mxnet_op8tuned_opINS0_10mshadow_op2leEN7mshadow4half6half_tEE6UseOMPEmm
libmxnet.so:_ZN5mxnet2op8mxnet_op8tuned_opINS0_10mshadow_op2leEaE6UseOMPEmm
libmxnet.so:_ZN5mxnet2op8mxnet_op8tuned_opINS0_10mshadow_op2leEdE6UseOMPEmm
libmxnet.so:_ZN5mxnet2op8mxnet_op8tuned_opINS0_10mshadow_op2leEfE6UseOMPEmm
libmxnet.so:_ZN5mxnet2op8mxnet_op8tuned_opINS0_10mshadow_op2leEhE6UseOMPEmm
libmxnet.so:_ZN5mxnet2op8mxnet_op8tuned_opINS0_10mshadow_op2leEiE6UseOMPEmm
libmxnet.so:_ZN5mxnet2op8mxnet_op8tuned_opINS0_10mshadow_op2leElE6UseOMPEmm
libmxnet.so:_ZN5mxnet2op8mxnet_op8tuned_opINS0_10mshadow_op2ltEN7mshadow4half6half_tEE6UseOMPEmm
libmxnet.so:_ZN5mxnet2op8mxnet_op8tuned_opINS0_10mshadow_op2ltEaE6UseOMPEmm
libmxnet.so:_ZN5mxnet2op8mxnet_op8tuned_opINS0_10mshadow_op2ltEdE6UseOMPEmm
libmxnet.so:_ZN5mxnet2op8mxnet_op8tuned_opINS0_10mshadow_op2ltEfE6UseOMPEmm
libmxnet.so:_ZN5mxnet2op8mxnet_op8tuned_opINS0_10mshadow_op2ltEhE6UseOMPEmm
libmxnet.so:_ZN5mxnet2op8mxnet_op8tuned_opINS0_10mshadow_op2ltEiE6UseOMPEmm
libmxnet.so:_ZN5mxnet2op8mxnet_op8tuned_opINS0_10mshadow_op2ltElE6UseOMPEmm
libmxnet.so:_ZN5mxnet2op8mxnet_op8tuned_opINS0_10mshadow_op2neEN7mshadow4half6half_tEE6UseOMPEmm
libmxnet.so:_ZN5mxnet2op8mxnet_op8tuned_opINS0_10mshadow_op2neEaE6UseOMPEmm
libmxnet.so:_ZN5mxnet2op8mxnet_op8tuned_opINS0_10mshadow_op2neEdE6UseOMPEmm
libmxnet.so:_ZN5mxnet2op8mxnet_op8tuned_opINS0_10mshadow_op2neEfE6UseOMPEmm
libmxnet.so:_ZN5mxnet2op8mxnet_op8tuned_opINS0_10mshadow_op2neEhE6UseOMPEmm
libmxnet.so:_ZN5mxnet2op8mxnet_op8tuned_opINS0_10mshadow_op2neEiE6UseOMPEmm
libmxnet.so:_ZN5mxnet2op8mxnet_op8tuned_opINS0_10mshadow_op2neElE6UseOMPEmm
libmxnet.so:_ZN5mxnet2op8mxnet_op8tuned_opINS0_10mshadow_op2ntEN7mshadow4half6half_tEE6UseOMPEmm
libmxnet.so:_ZN5mxnet2op8mxnet_op8tuned_opINS0_10mshadow_op2ntEaE6UseOMPEmm
libmxnet.so:_ZN5mxnet2op8mxnet_op8tuned_opINS0_10mshadow_op2ntEdE6UseOMPEmm
libmxnet.so:_ZN5mxnet2op8mxnet_op8tuned_opINS0_10mshadow_op2ntEfE6UseOMPEmm
libmxnet.so:_ZN5mxnet2op8mxnet_op8tuned_opINS0_10mshadow_op2ntEhE6UseOMPEmm
libmxnet.so:_ZN5mxnet2op8mxnet_op8tuned_opINS0_10mshadow_op2ntEiE6UseOMPEmm
libmxnet.so:_ZN5mxnet2op8mxnet_op8tuned_opINS0_10mshadow_op2ntElE6UseOMPEmm
libmxnet.so:_ZN5mxnet2op8mxnet_op8tuned_opINS0_10mshadow_op3absEN7mshadow4half6half_tEE6UseOMPEmm
libmxnet.so:_ZN5mxnet2op8mxnet_op8tuned_opINS0_10mshadow_op3absEaE6UseOMPEmm
libmxnet.so:_ZN5mxnet2op8mxnet_op8tuned_opINS0_10mshadow_op3absEdE6UseOMPEmm
libmxnet.so:_ZN5mxnet2op8mxnet_op8tuned_opINS0_10mshadow_op3absEfE6UseOMPEmm
libmxnet.so:_ZN5mxnet2op8mxnet_op8tuned_opINS0_10mshadow_op3absEhE6UseOMPEmm
libmxnet.so:_ZN5mxnet2op8mxnet_op8tuned_opINS0_10mshadow_op3absEiE6UseOMPEmm
libmxnet.so:_ZN5mxnet2op8mxnet_op8tuned_opINS0_10mshadow_op3absElE6UseOMPEmm
libmxnet.so:_ZN5mxnet2op8mxnet_op8tuned_opINS0_10mshadow_op3cosEN7mshadow4half6half_tEE6UseOMPEmm
libmxnet.so:_ZN5mxnet2op8mxnet_op8tuned_opINS0_10mshadow_op3cosEaE6UseOMPEmm
libmxnet.so:_ZN5mxnet2op8mxnet_op8tuned_opINS0_10mshadow_op3cosEdE6UseOMPEmm
libmxnet.so:_ZN5mxnet2op8mxnet_op8tuned_opINS0_10mshadow_op3cosEfE6UseOMPEmm
libmxnet.so:_ZN5mxnet2op8mxnet_op8tuned_opINS0_10mshadow_op3cosEhE6UseOMPEmm
libmxnet.so:_ZN5mxnet2op8mxnet_op8tuned_opINS0_10mshadow_op3cosEiE6UseOMPEmm
libmxnet.so:_ZN5mxnet2op8mxnet_op8tuned_opINS0_10mshadow_op3cosElE6UseOMPEmm
libmxnet.so:_ZN5mxnet2op8mxnet_op8tuned_opINS0_10mshadow_op3divEN7mshadow4half6half_tEE6UseOMPEmm
libmxnet.so:_ZN5mxnet2op8mxnet_op8tuned_opINS0_10mshadow_op3divEaE6UseOMPEmm
libmxnet.so:_ZN5mxnet2op8mxnet_op8tuned_opINS0_10mshadow_op3divEdE6UseOMPEmm
libmxnet.so:_ZN5mxnet2op8mxnet_op8tuned_opINS0_10mshadow_op3divEfE6UseOMPEmm
libmxnet.so:_ZN5mxnet2op8mxnet_op8tuned_opINS0_10mshadow_op3divEhE6UseOMPEmm
libmxnet.so:_ZN5mxnet2op8mxnet_op8tuned_opINS0_10mshadow_op3divEiE6UseOMPEmm
libmxnet.so:_ZN5mxnet2op8mxnet_op8tuned_opINS0_10mshadow_op3divElE6UseOMPEmm
libmxnet.so:_ZN5mxnet2op8mxnet_op8tuned_opINS0_10mshadow_op3eluEN7mshadow4half6half_tEE6UseOMPEmm
libmxnet.so:_ZN5mxnet2op8mxnet_op8tuned_opINS0_10mshadow_op3eluEaE6UseOMPEmm
libmxnet.so:_ZN5mxnet2op8mxnet_op8tuned_opINS0_10mshadow_op3eluEdE6UseOMPEmm
libmxnet.so:_ZN5mxnet2op8mxnet_op8tuned_opINS0_10mshadow_op3eluEfE6UseOMPEmm
libmxnet.so:_ZN5mxnet2op8mxnet_op8tuned_opINS0_10mshadow_op3eluEhE6UseOMPEmm
libmxnet.so:_ZN5mxnet2op8mxnet_op8tuned_opINS0_10mshadow_op3eluEiE6UseOMPEmm
libmxnet.so:_ZN5mxnet2op8mxnet_op8tuned_opINS0_10mshadow_op3eluElE6UseOMPEmm
libmxnet.so:_ZN5mxnet2op8mxnet_op8tuned_opINS0_10mshadow_op3erfEN7mshadow4half6half_tEE6UseOMPEmm
libmxnet.so:_ZN5mxnet2op8mxnet_op8tuned_opINS0_10mshadow_op3erfEaE6UseOMPEmm
libmxnet.so:_ZN5mxnet2op8mxnet_op8tuned_opINS0_10mshadow_op3erfEdE6UseOMPEmm
libmxnet.so:_ZN5mxnet2op8mxnet_op8tuned_opINS0_10mshadow_op3erfEfE6UseOMPEmm
libmxnet.so:_ZN5mxnet2op8mxnet_op8tuned_opINS0_10mshadow_op3erfEhE6UseOMPEmm
libmxnet.so:_ZN5mxnet2op8mxnet_op8tuned_opINS0_10mshadow_op3erfEiE6UseOMPEmm
libmxnet.so:_ZN5mxnet2op8mxnet_op8tuned_opINS0_10mshadow_op3erfElE6UseOMPEmm
libmxnet.so:_ZN5mxnet2op8mxnet_op8tuned_opINS0_10mshadow_op3expEN7mshadow4half6half_tEE6UseOMPEmm
libmxnet.so:_ZN5mxnet2op8mxnet_op8tuned_opINS0_10mshadow_op3expEaE6UseOMPEmm
libmxnet.so:_ZN5mxnet2op8mxnet_op8tuned_opINS0_10mshadow_op3expEdE6UseOMPEmm
libmxnet.so:_ZN5mxnet2op8mxnet_op8tuned_opINS0_10mshadow_op3expEfE6UseOMPEmm
libmxnet.so:_ZN5mxnet2op8mxnet_op8tuned_opINS0_10mshadow_op3expEhE6UseOMPEmm
libmxnet.so:_ZN5mxnet2op8mxnet_op8tuned_opINS0_10mshadow_op3expEiE6UseOMPEmm
libmxnet.so:_ZN5mxnet2op8mxnet_op8tuned_opINS0_10mshadow_op3expElE6UseOMPEmm
libmxnet.so:_ZN5mxnet2op8mxnet_op8tuned_opINS0_10mshadow_op3fixEN7mshadow4half6half_tEE6UseOMPEmm
libmxnet.so:_ZN5mxnet2op8mxnet_op8tuned_opINS0_10mshadow_op3fixEaE6UseOMPEmm
libmxnet.so:_ZN5mxnet2op8mxnet_op8tuned_opINS0_10mshadow_op3fixEdE6UseOMPEmm
libmxnet.so:_ZN5mxnet2op8mxnet_op8tuned_opINS0_10mshadow_op3fixEfE6UseOMPEmm
libmxnet.so:_ZN5mxnet2op8mxnet_op8tuned_opINS0_10mshadow_op3fixEhE6UseOMPEmm
libmxnet.so:_ZN5mxnet2op8mxnet_op8tuned_opINS0_10mshadow_op3fixEiE6UseOMPEmm
libmxnet.so:_ZN5mxnet2op8mxnet_op8tuned_opINS0_10mshadow_op3fixElE6UseOMPEmm
libmxnet.so:_ZN5mxnet2op8mxnet_op8tuned_opINS0_10mshadow_op3logEN7mshadow4half6half_tEE6UseOMPEmm
libmxnet.so:_ZN5mxnet2op8mxnet_op8tuned_opINS0_10mshadow_op3logEaE6UseOMPEmm
libmxnet.so:_ZN5mxnet2op8mxnet_op8tuned_opINS0_10mshadow_op3logEdE6UseOMPEmm
libmxnet.so:_ZN5mxnet2op8mxnet_op8tuned_opINS0_10mshadow_op3logEfE6UseOMPEmm
libmxnet.so:_ZN5mxnet2op8mxnet_op8tuned_opINS0_10mshadow_op3logEhE6UseOMPEmm
libmxnet.so:_ZN5mxnet2op8mxnet_op8tuned_opINS0_10mshadow_op3logEiE6UseOMPEmm
libmxnet.so:_ZN5mxnet2op8mxnet_op8tuned_opINS0_10mshadow_op3logElE6UseOMPEmm
libmxnet.so:_ZN5mxnet2op8mxnet_op8tuned_opINS0_10mshadow_op3modEN7mshadow4half6half_tEE6UseOMPEmm
libmxnet.so:_ZN5mxnet2op8mxnet_op8tuned_opINS0_10mshadow_op3modEaE6UseOMPEmm
libmxnet.so:_ZN5mxnet2op8mxnet_op8tuned_opINS0_10mshadow_op3modEdE6UseOMPEmm
libmxnet.so:_ZN5mxnet2op8mxnet_op8tuned_opINS0_10mshadow_op3modEfE6UseOMPEmm
libmxnet.so:_ZN5mxnet2op8mxnet_op8tuned_opINS0_10mshadow_op3modEhE6UseOMPEmm
libmxnet.so:_ZN5mxnet2op8mxnet_op8tuned_opINS0_10mshadow_op3modEiE6UseOMPEmm
libmxnet.so:_ZN5mxnet2op8mxnet_op8tuned_opINS0_10mshadow_op3modElE6UseOMPEmm
libmxnet.so:_ZN5mxnet2op8mxnet_op8tuned_opINS0_10mshadow_op3mulEN7mshadow4half6half_tEE6UseOMPEmm
libmxnet.so:_ZN5mxnet2op8mxnet_op8tuned_opINS0_10mshadow_op3mulEaE6UseOMPEmm
libmxnet.so:_ZN5mxnet2op8mxnet_op8tuned_opINS0_10mshadow_op3mulEdE6UseOMPEmm
libmxnet.so:_ZN5mxnet2op8mxnet_op8tuned_opINS0_10mshadow_op3mulEfE6UseOMPEmm
libmxnet.so:_ZN5mxnet2op8mxnet_op8tuned_opINS0_10mshadow_op3mulEhE6UseOMPEmm
libmxnet.so:_ZN5mxnet2op8mxnet_op8tuned_opINS0_10mshadow_op3mulEiE6UseOMPEmm
libmxnet.so:_ZN5mxnet2op8mxnet_op8tuned_opINS0_10mshadow_op3mulElE6UseOMPEmm
libmxnet.so:_ZN5mxnet2op8mxnet_op8tuned_opINS0_10mshadow_op3sinEN7mshadow4half6half_tEE6UseOMPEmm
libmxnet.so:_ZN5mxnet2op8mxnet_op8tuned_opINS0_10mshadow_op3sinEaE6UseOMPEmm
libmxnet.so:_ZN5mxnet2op8mxnet_op8tuned_opINS0_10mshadow_op3sinEdE6UseOMPEmm
libmxnet.so:_ZN5mxnet2op8mxnet_op8tuned_opINS0_10mshadow_op3sinEfE6UseOMPEmm
libmxnet.so:_ZN5mxnet2op8mxnet_op8tuned_opINS0_10mshadow_op3sinEhE6UseOMPEmm
libmxnet.so:_ZN5mxnet2op8mxnet_op8tuned_opINS0_10mshadow_op3sinEiE6UseOMPEmm
libmxnet.so:_ZN5mxnet2op8mxnet_op8tuned_opINS0_10mshadow_op3sinElE6UseOMPEmm
libmxnet.so:_ZN5mxnet2op8mxnet_op8tuned_opINS0_10mshadow_op3tanEN7mshadow4half6half_tEE6UseOMPEmm
libmxnet.so:_ZN5mxnet2op8mxnet_op8tuned_opINS0_10mshadow_op3tanEaE6UseOMPEmm
libmxnet.so:_ZN5mxnet2op8mxnet_op8tuned_opINS0_10mshadow_op3tanEdE6UseOMPEmm
libmxnet.so:_ZN5mxnet2op8mxnet_op8tuned_opINS0_10mshadow_op3tanEfE6UseOMPEmm
libmxnet.so:_ZN5mxnet2op8mxnet_op8tuned_opINS0_10mshadow_op3tanEhE6UseOMPEmm
libmxnet.so:_ZN5mxnet2op8mxnet_op8tuned_opINS0_10mshadow_op3tanEiE6UseOMPEmm
libmxnet.so:_ZN5mxnet2op8mxnet_op8tuned_opINS0_10mshadow_op3tanElE6UseOMPEmm
libmxnet.so:_ZN5mxnet2op8mxnet_op8tuned_opINS0_10mshadow_op4ceilEN7mshadow4half6half_tEE6UseOMPEmm
libmxnet.so:_ZN5mxnet2op8mxnet_op8tuned_opINS0_10mshadow_op4ceilEaE6UseOMPEmm
libmxnet.so:_ZN5mxnet2op8mxnet_op8tuned_opINS0_10mshadow_op4ceilEdE6UseOMPEmm
libmxnet.so:_ZN5mxnet2op8mxnet_op8tuned_opINS0_10mshadow_op4ceilEfE6UseOMPEmm
libmxnet.so:_ZN5mxnet2op8mxnet_op8tuned_opINS0_10mshadow_op4ceilEhE6UseOMPEmm
libmxnet.so:_ZN5mxnet2op8mxnet_op8tuned_opINS0_10mshadow_op4ceilEiE6UseOMPEmm
libmxnet.so:_ZN5mxnet2op8mxnet_op8tuned_opINS0_10mshadow_op4ceilElE6UseOMPEmm
libmxnet.so:_ZN5mxnet2op8mxnet_op8tuned_opINS0_10mshadow_op4clipEN7mshadow4half6half_tEE6UseOMPEmm
libmxnet.so:_ZN5mxnet2op8mxnet_op8tuned_opINS0_10mshadow_op4clipEaE6UseOMPEmm
libmxnet.so:_ZN5mxnet2op8mxnet_op8tuned_opINS0_10mshadow_op4clipEdE6UseOMPEmm
libmxnet.so:_ZN5mxnet2op8mxnet_op8tuned_opINS0_10mshadow_op4clipEfE6UseOMPEmm
libmxnet.so:_ZN5mxnet2op8mxnet_op8tuned_opINS0_10mshadow_op4clipEhE6UseOMPEmm
libmxnet.so:_ZN5mxnet2op8mxnet_op8tuned_opINS0_10mshadow_op4clipEiE6UseOMPEmm
libmxnet.so:_ZN5mxnet2op8mxnet_op8tuned_opINS0_10mshadow_op4clipElE6UseOMPEmm
libmxnet.so:_ZN5mxnet2op8mxnet_op8tuned_opINS0_10mshadow_op4coshEN7mshadow4half6half_tEE6UseOMPEmm
libmxnet.so:_ZN5mxnet2op8mxnet_op8tuned_opINS0_10mshadow_op4coshEaE6UseOMPEmm
libmxnet.so:_ZN5mxnet2op8mxnet_op8tuned_opINS0_10mshadow_op4coshEdE6UseOMPEmm
libmxnet.so:_ZN5mxnet2op8mxnet_op8tuned_opINS0_10mshadow_op4coshEfE6UseOMPEmm
libmxnet.so:_ZN5mxnet2op8mxnet_op8tuned_opINS0_10mshadow_op4coshEhE6UseOMPEmm
libmxnet.so:_ZN5mxnet2op8mxnet_op8tuned_opINS0_10mshadow_op4coshEiE6UseOMPEmm
libmxnet.so:_ZN5mxnet2op8mxnet_op8tuned_opINS0_10mshadow_op4coshElE6UseOMPEmm
libmxnet.so:_ZN5mxnet2op8mxnet_op8tuned_opINS0_10mshadow_op4geluEN7mshadow4half6half_tEE6UseOMPEmm
libmxnet.so:_ZN5mxnet2op8mxnet_op8tuned_opINS0_10mshadow_op4geluEaE6UseOMPEmm
libmxnet.so:_ZN5mxnet2op8mxnet_op8tuned_opINS0_10mshadow_op4geluEdE6UseOMPEmm
libmxnet.so:_ZN5mxnet2op8mxnet_op8tuned_opINS0_10mshadow_op4geluEfE6UseOMPEmm
libmxnet.so:_ZN5mxnet2op8mxnet_op8tuned_opINS0_10mshadow_op4geluEhE6UseOMPEmm
libmxnet.so:_ZN5mxnet2op8mxnet_op8tuned_opINS0_10mshadow_op4geluEiE6UseOMPEmm
libmxnet.so:_ZN5mxnet2op8mxnet_op8tuned_opINS0_10mshadow_op4geluElE6UseOMPEmm
libmxnet.so:_ZN5mxnet2op8mxnet_op8tuned_opINS0_10mshadow_op4leftEN7mshadow4half6half_tEE6UseOMPEmm
libmxnet.so:_ZN5mxnet2op8mxnet_op8tuned_opINS0_10mshadow_op4leftEaE6UseOMPEmm
libmxnet.so:_ZN5mxnet2op8mxnet_op8tuned_opINS0_10mshadow_op4leftEdE6UseOMPEmm
libmxnet.so:_ZN5mxnet2op8mxnet_op8tuned_opINS0_10mshadow_op4leftEfE6UseOMPEmm
libmxnet.so:_ZN5mxnet2op8mxnet_op8tuned_opINS0_10mshadow_op4leftEhE6UseOMPEmm
libmxnet.so:_ZN5mxnet2op8mxnet_op8tuned_opINS0_10mshadow_op4leftEiE6UseOMPEmm
libmxnet.so:_ZN5mxnet2op8mxnet_op8tuned_opINS0_10mshadow_op4leftElE6UseOMPEmm
libmxnet.so:_ZN5mxnet2op8mxnet_op8tuned_opINS0_10mshadow_op4log2EN7mshadow4half6half_tEE6UseOMPEmm
libmxnet.so:_ZN5mxnet2op8mxnet_op8tuned_opINS0_10mshadow_op4log2EaE6UseOMPEmm
libmxnet.so:_ZN5mxnet2op8mxnet_op8tuned_opINS0_10mshadow_op4log2EdE6UseOMPEmm
libmxnet.so:_ZN5mxnet2op8mxnet_op8tuned_opINS0_10mshadow_op4log2EfE6UseOMPEmm
libmxnet.so:_ZN5mxnet2op8mxnet_op8tuned_opINS0_10mshadow_op4log2EhE6UseOMPEmm
libmxnet.so:_ZN5mxnet2op8mxnet_op8tuned_opINS0_10mshadow_op4log2EiE6UseOMPEmm
libmxnet.so:_ZN5mxnet2op8mxnet_op8tuned_opINS0_10mshadow_op4log2ElE6UseOMPEmm
libmxnet.so:_ZN5mxnet2op8mxnet_op8tuned_opINS0_10mshadow_op4plusEN7mshadow4half6half_tEE6UseOMPEmm
libmxnet.so:_ZN5mxnet2op8mxnet_op8tuned_opINS0_10mshadow_op4plusEaE6UseOMPEmm
libmxnet.so:_ZN5mxnet2op8mxnet_op8tuned_opINS0_10mshadow_op4plusEdE6UseOMPEmm
libmxnet.so:_ZN5mxnet2op8mxnet_op8tuned_opINS0_10mshadow_op4plusEfE6UseOMPEmm
libmxnet.so:_ZN5mxnet2op8mxnet_op8tuned_opINS0_10mshadow_op4plusEhE6UseOMPEmm
libmxnet.so:_ZN5mxnet2op8mxnet_op8tuned_opINS0_10mshadow_op4plusEiE6UseOMPEmm
libmxnet.so:_ZN5mxnet2op8mxnet_op8tuned_opINS0_10mshadow_op4plusElE6UseOMPEmm
libmxnet.so:_ZN5mxnet2op8mxnet_op8tuned_opINS0_10mshadow_op4rdivEN7mshadow4half6half_tEE6UseOMPEmm
libmxnet.so:_ZN5mxnet2op8mxnet_op8tuned_opINS0_10mshadow_op4rdivEaE6UseOMPEmm
libmxnet.so:_ZN5mxnet2op8mxnet_op8tuned_opINS0_10mshadow_op4rdivEdE6UseOMPEmm
libmxnet.so:_ZN5mxnet2op8mxnet_op8tuned_opINS0_10mshadow_op4rdivEfE6UseOMPEmm
libmxnet.so:_ZN5mxnet2op8mxnet_op8tuned_opINS0_10mshadow_op4rdivEhE6UseOMPEmm
libmxnet.so:_ZN5mxnet2op8mxnet_op8tuned_opINS0_10mshadow_op4rdivEiE6UseOMPEmm
libmxnet.so:_ZN5mxnet2op8mxnet_op8tuned_opINS0_10mshadow_op4rdivElE6UseOMPEmm
libmxnet.so:_ZN5mxnet2op8mxnet_op8tuned_opINS0_10mshadow_op4reluEN7mshadow4half6half_tEE6UseOMPEmm
libmxnet.so:_ZN5mxnet2op8mxnet_op8tuned_opINS0_10mshadow_op4reluEaE6UseOMPEmm
libmxnet.so:_ZN5mxnet2op8mxnet_op8tuned_opINS0_10mshadow_op4reluEdE6UseOMPEmm
libmxnet.so:_ZN5mxnet2op8mxnet_op8tuned_opINS0_10mshadow_op4reluEfE6UseOMPEmm
libmxnet.so:_ZN5mxnet2op8mxnet_op8tuned_opINS0_10mshadow_op4reluEhE6UseOMPEmm
libmxnet.so:_ZN5mxnet2op8mxnet_op8tuned_opINS0_10mshadow_op4reluEiE6UseOMPEmm
libmxnet.so:_ZN5mxnet2op8mxnet_op8tuned_opINS0_10mshadow_op4reluElE6UseOMPEmm
libmxnet.so:_ZN5mxnet2op8mxnet_op8tuned_opINS0_10mshadow_op4rintEN7mshadow4half6half_tEE6UseOMPEmm
libmxnet.so:_ZN5mxnet2op8mxnet_op8tuned_opINS0_10mshadow_op4rintEaE6UseOMPEmm
libmxnet.so:_ZN5mxnet2op8mxnet_op8tuned_opINS0_10mshadow_op4rintEdE6UseOMPEmm
libmxnet.so:_ZN5mxnet2op8mxnet_op8tuned_opINS0_10mshadow_op4rintEfE6UseOMPEmm
libmxnet.so:_ZN5mxnet2op8mxnet_op8tuned_opINS0_10mshadow_op4rintEhE6UseOMPEmm
libmxnet.so:_ZN5mxnet2op8mxnet_op8tuned_opINS0_10mshadow_op4rintEiE6UseOMPEmm
libmxnet.so:_ZN5mxnet2op8mxnet_op8tuned_opINS0_10mshadow_op4rintElE6UseOMPEmm
libmxnet.so:_ZN5mxnet2op8mxnet_op8tuned_opINS0_10mshadow_op4rmodEN7mshadow4half6half_tEE6UseOMPEmm
libmxnet.so:_ZN5mxnet2op8mxnet_op8tuned_opINS0_10mshadow_op4rmodEaE6UseOMPEmm
libmxnet.so:_ZN5mxnet2op8mxnet_op8tuned_opINS0_10mshadow_op4rmodEdE6UseOMPEmm
libmxnet.so:_ZN5mxnet2op8mxnet_op8tuned_opINS0_10mshadow_op4rmodEfE6UseOMPEmm
libmxnet.so:_ZN5mxnet2op8mxnet_op8tuned_opINS0_10mshadow_op4rmodEhE6UseOMPEmm
libmxnet.so:_ZN5mxnet2op8mxnet_op8tuned_opINS0_10mshadow_op4rmodEiE6UseOMPEmm
libmxnet.so:_ZN5mxnet2op8mxnet_op8tuned_opINS0_10mshadow_op4rmodElE6UseOMPEmm
libmxnet.so:_ZN5mxnet2op8mxnet_op8tuned_opINS0_10mshadow_op4seluEN7mshadow4half6half_tEE6UseOMPEmm
libmxnet.so:_ZN5mxnet2op8mxnet_op8tuned_opINS0_10mshadow_op4seluEaE6UseOMPEmm
libmxnet.so:_ZN5mxnet2op8mxnet_op8tuned_opINS0_10mshadow_op4seluEdE6UseOMPEmm
libmxnet.so:_ZN5mxnet2op8mxnet_op8tuned_opINS0_10mshadow_op4seluEfE6UseOMPEmm
libmxnet.so:_ZN5mxnet2op8mxnet_op8tuned_opINS0_10mshadow_op4seluEhE6UseOMPEmm
libmxnet.so:_ZN5mxnet2op8mxnet_op8tuned_opINS0_10mshadow_op4seluEiE6UseOMPEmm
libmxnet.so:_ZN5mxnet2op8mxnet_op8tuned_opINS0_10mshadow_op4seluElE6UseOMPEmm
libmxnet.so:_ZN5mxnet2op8mxnet_op8tuned_opINS0_10mshadow_op4signEN7mshadow4half6half_tEE6UseOMPEmm
libmxnet.so:_ZN5mxnet2op8mxnet_op8tuned_opINS0_10mshadow_op4signEaE6UseOMPEmm
libmxnet.so:_ZN5mxnet2op8mxnet_op8tuned_opINS0_10mshadow_op4signEdE6UseOMPEmm
libmxnet.so:_ZN5mxnet2op8mxnet_op8tuned_opINS0_10mshadow_op4signEfE6UseOMPEmm
libmxnet.so:_ZN5mxnet2op8mxnet_op8tuned_opINS0_10mshadow_op4signEhE6UseOMPEmm
libmxnet.so:_ZN5mxnet2op8mxnet_op8tuned_opINS0_10mshadow_op4signEiE6UseOMPEmm
libmxnet.so:_ZN5mxnet2op8mxnet_op8tuned_opINS0_10mshadow_op4signElE6UseOMPEmm
libmxnet.so:_ZN5mxnet2op8mxnet_op8tuned_opINS0_10mshadow_op4sinhEN7mshadow4half6half_tEE6UseOMPEmm
libmxnet.so:_ZN5mxnet2op8mxnet_op8tuned_opINS0_10mshadow_op4sinhEaE6UseOMPEmm
libmxnet.so:_ZN5mxnet2op8mxnet_op8tuned_opINS0_10mshadow_op4sinhEdE6UseOMPEmm
libmxnet.so:_ZN5mxnet2op8mxnet_op8tuned_opINS0_10mshadow_op4sinhEfE6UseOMPEmm
libmxnet.so:_ZN5mxnet2op8mxnet_op8tuned_opINS0_10mshadow_op4sinhEhE6UseOMPEmm
libmxnet.so:_ZN5mxnet2op8mxnet_op8tuned_opINS0_10mshadow_op4sinhEiE6UseOMPEmm
libmxnet.so:_ZN5mxnet2op8mxnet_op8tuned_opINS0_10mshadow_op4sinhElE6UseOMPEmm
libmxnet.so:_ZN5mxnet2op8mxnet_op8tuned_opINS0_10mshadow_op4tanhEN7mshadow4half6half_tEE6UseOMPEmm
libmxnet.so:_ZN5mxnet2op8mxnet_op8tuned_opINS0_10mshadow_op4tanhEaE6UseOMPEmm
libmxnet.so:_ZN5mxnet2op8mxnet_op8tuned_opINS0_10mshadow_op4tanhEdE6UseOMPEmm
libmxnet.so:_ZN5mxnet2op8mxnet_op8tuned_opINS0_10mshadow_op4tanhEfE6UseOMPEmm
libmxnet.so:_ZN5mxnet2op8mxnet_op8tuned_opINS0_10mshadow_op4tanhEhE6UseOMPEmm
libmxnet.so:_ZN5mxnet2op8mxnet_op8tuned_opINS0_10mshadow_op4tanhEiE6UseOMPEmm
libmxnet.so:_ZN5mxnet2op8mxnet_op8tuned_opINS0_10mshadow_op4tanhElE6UseOMPEmm
libmxnet.so:_ZN5mxnet2op8mxnet_op8tuned_opINS0_10mshadow_op4xeluEN7mshadow4half6half_tEE6UseOMPEmm
libmxnet.so:_ZN5mxnet2op8mxnet_op8tuned_opINS0_10mshadow_op4xeluEaE6UseOMPEmm
libmxnet.so:_ZN5mxnet2op8mxnet_op8tuned_opINS0_10mshadow_op4xeluEdE6UseOMPEmm
libmxnet.so:_ZN5mxnet2op8mxnet_op8tuned_opINS0_10mshadow_op4xeluEfE6UseOMPEmm
libmxnet.so:_ZN5mxnet2op8mxnet_op8tuned_opINS0_10mshadow_op4xeluEhE6UseOMPEmm
libmxnet.so:_ZN5mxnet2op8mxnet_op8tuned_opINS0_10mshadow_op4xeluEiE6UseOMPEmm
libmxnet.so:_ZN5mxnet2op8mxnet_op8tuned_opINS0_10mshadow_op4xeluElE6UseOMPEmm
libmxnet.so:_ZN5mxnet2op8mxnet_op8tuned_opINS0_10mshadow_op5expm1EN7mshadow4half6half_tEE6UseOMPEmm
libmxnet.so:_ZN5mxnet2op8mxnet_op8tuned_opINS0_10mshadow_op5expm1EaE6UseOMPEmm
libmxnet.so:_ZN5mxnet2op8mxnet_op8tuned_opINS0_10mshadow_op5expm1EdE6UseOMPEmm
libmxnet.so:_ZN5mxnet2op8mxnet_op8tuned_opINS0_10mshadow_op5expm1EfE6UseOMPEmm
libmxnet.so:_ZN5mxnet2op8mxnet_op8tuned_opINS0_10mshadow_op5expm1EhE6UseOMPEmm
libmxnet.so:_ZN5mxnet2op8mxnet_op8tuned_opINS0_10mshadow_op5expm1EiE6UseOMPEmm
libmxnet.so:_ZN5mxnet2op8mxnet_op8tuned_opINS0_10mshadow_op5expm1ElE6UseOMPEmm
libmxnet.so:_ZN5mxnet2op8mxnet_op8tuned_opINS0_10mshadow_op5floorEN7mshadow4half6half_tEE6UseOMPEmm
libmxnet.so:_ZN5mxnet2op8mxnet_op8tuned_opINS0_10mshadow_op5floorEaE6UseOMPEmm
libmxnet.so:_ZN5mxnet2op8mxnet_op8tuned_opINS0_10mshadow_op5floorEdE6UseOMPEmm
libmxnet.so:_ZN5mxnet2op8mxnet_op8tuned_opINS0_10mshadow_op5floorEfE6UseOMPEmm
libmxnet.so:_ZN5mxnet2op8mxnet_op8tuned_opINS0_10mshadow_op5floorEhE6UseOMPEmm
libmxnet.so:_ZN5mxnet2op8mxnet_op8tuned_opINS0_10mshadow_op5floorEiE6UseOMPEmm
libmxnet.so:_ZN5mxnet2op8mxnet_op8tuned_opINS0_10mshadow_op5floorElE6UseOMPEmm
libmxnet.so:_ZN5mxnet2op8mxnet_op8tuned_opINS0_10mshadow_op5gammaEN7mshadow4half6half_tEE6UseOMPEmm
libmxnet.so:_ZN5mxnet2op8mxnet_op8tuned_opINS0_10mshadow_op5gammaEaE6UseOMPEmm
libmxnet.so:_ZN5mxnet2op8mxnet_op8tuned_opINS0_10mshadow_op5gammaEdE6UseOMPEmm
libmxnet.so:_ZN5mxnet2op8mxnet_op8tuned_opINS0_10mshadow_op5gammaEfE6UseOMPEmm
libmxnet.so:_ZN5mxnet2op8mxnet_op8tuned_opINS0_10mshadow_op5gammaEhE6UseOMPEmm
libmxnet.so:_ZN5mxnet2op8mxnet_op8tuned_opINS0_10mshadow_op5gammaEiE6UseOMPEmm
libmxnet.so:_ZN5mxnet2op8mxnet_op8tuned_opINS0_10mshadow_op5gammaElE6UseOMPEmm
libmxnet.so:_ZN5mxnet2op8mxnet_op8tuned_opINS0_10mshadow_op5hypotEN7mshadow4half6half_tEE6UseOMPEmm
libmxnet.so:_ZN5mxnet2op8mxnet_op8tuned_opINS0_10mshadow_op5hypotEaE6UseOMPEmm
libmxnet.so:_ZN5mxnet2op8mxnet_op8tuned_opINS0_10mshadow_op5hypotEdE6UseOMPEmm
libmxnet.so:_ZN5mxnet2op8mxnet_op8tuned_opINS0_10mshadow_op5hypotEfE6UseOMPEmm
libmxnet.so:_ZN5mxnet2op8mxnet_op8tuned_opINS0_10mshadow_op5hypotEhE6UseOMPEmm
libmxnet.so:_ZN5mxnet2op8mxnet_op8tuned_opINS0_10mshadow_op5hypotEiE6UseOMPEmm
libmxnet.so:_ZN5mxnet2op8mxnet_op8tuned_opINS0_10mshadow_op5hypotElE6UseOMPEmm
libmxnet.so:_ZN5mxnet2op8mxnet_op8tuned_opINS0_10mshadow_op5log10EN7mshadow4half6half_tEE6UseOMPEmm
libmxnet.so:_ZN5mxnet2op8mxnet_op8tuned_opINS0_10mshadow_op5log10EaE6UseOMPEmm
libmxnet.so:_ZN5mxnet2op8mxnet_op8tuned_opINS0_10mshadow_op5log10EdE6UseOMPEmm
libmxnet.so:_ZN5mxnet2op8mxnet_op8tuned_opINS0_10mshadow_op5log10EfE6UseOMPEmm
libmxnet.so:_ZN5mxnet2op8mxnet_op8tuned_opINS0_10mshadow_op5log10EhE6UseOMPEmm
libmxnet.so:_ZN5mxnet2op8mxnet_op8tuned_opINS0_10mshadow_op5log10EiE6UseOMPEmm
libmxnet.so:_ZN5mxnet2op8mxnet_op8tuned_opINS0_10mshadow_op5log10ElE6UseOMPEmm
libmxnet.so:_ZN5mxnet2op8mxnet_op8tuned_opINS0_10mshadow_op5log1pEN7mshadow4half6half_tEE6UseOMPEmm
libmxnet.so:_ZN5mxnet2op8mxnet_op8tuned_opINS0_10mshadow_op5log1pEaE6UseOMPEmm
libmxnet.so:_ZN5mxnet2op8mxnet_op8tuned_opINS0_10mshadow_op5log1pEdE6UseOMPEmm
libmxnet.so:_ZN5mxnet2op8mxnet_op8tuned_opINS0_10mshadow_op5log1pEfE6UseOMPEmm
libmxnet.so:_ZN5mxnet2op8mxnet_op8tuned_opINS0_10mshadow_op5log1pEhE6UseOMPEmm
libmxnet.so:_ZN5mxnet2op8mxnet_op8tuned_opINS0_10mshadow_op5log1pEiE6UseOMPEmm
libmxnet.so:_ZN5mxnet2op8mxnet_op8tuned_opINS0_10mshadow_op5log1pElE6UseOMPEmm
libmxnet.so:_ZN5mxnet2op8mxnet_op8tuned_opINS0_10mshadow_op5minusEN7mshadow4half6half_tEE6UseOMPEmm
libmxnet.so:_ZN5mxnet2op8mxnet_op8tuned_opINS0_10mshadow_op5minusEaE6UseOMPEmm
libmxnet.so:_ZN5mxnet2op8mxnet_op8tuned_opINS0_10mshadow_op5minusEdE6UseOMPEmm
libmxnet.so:_ZN5mxnet2op8mxnet_op8tuned_opINS0_10mshadow_op5minusEfE6UseOMPEmm
libmxnet.so:_ZN5mxnet2op8mxnet_op8tuned_opINS0_10mshadow_op5minusEhE6UseOMPEmm
libmxnet.so:_ZN5mxnet2op8mxnet_op8tuned_opINS0_10mshadow_op5minusEiE6UseOMPEmm
libmxnet.so:_ZN5mxnet2op8mxnet_op8tuned_opINS0_10mshadow_op5minusElE6UseOMPEmm
libmxnet.so:_ZN5mxnet2op8mxnet_op8tuned_opINS0_10mshadow_op5powerEN7mshadow4half6half_tEE6UseOMPEmm
libmxnet.so:_ZN5mxnet2op8mxnet_op8tuned_opINS0_10mshadow_op5powerEaE6UseOMPEmm
libmxnet.so:_ZN5mxnet2op8mxnet_op8tuned_opINS0_10mshadow_op5powerEdE6UseOMPEmm
libmxnet.so:_ZN5mxnet2op8mxnet_op8tuned_opINS0_10mshadow_op5powerEfE6UseOMPEmm
libmxnet.so:_ZN5mxnet2op8mxnet_op8tuned_opINS0_10mshadow_op5powerEhE6UseOMPEmm
libmxnet.so:_ZN5mxnet2op8mxnet_op8tuned_opINS0_10mshadow_op5powerEiE6UseOMPEmm
libmxnet.so:_ZN5mxnet2op8mxnet_op8tuned_opINS0_10mshadow_op5powerElE6UseOMPEmm
libmxnet.so:_ZN5mxnet2op8mxnet_op8tuned_opINS0_10mshadow_op5rightEN7mshadow4half6half_tEE6UseOMPEmm
libmxnet.so:_ZN5mxnet2op8mxnet_op8tuned_opINS0_10mshadow_op5rightEaE6UseOMPEmm
libmxnet.so:_ZN5mxnet2op8mxnet_op8tuned_opINS0_10mshadow_op5rightEdE6UseOMPEmm
libmxnet.so:_ZN5mxnet2op8mxnet_op8tuned_opINS0_10mshadow_op5rightEfE6UseOMPEmm
libmxnet.so:_ZN5mxnet2op8mxnet_op8tuned_opINS0_10mshadow_op5rightEhE6UseOMPEmm
libmxnet.so:_ZN5mxnet2op8mxnet_op8tuned_opINS0_10mshadow_op5rightEiE6UseOMPEmm
libmxnet.so:_ZN5mxnet2op8mxnet_op8tuned_opINS0_10mshadow_op5rightElE6UseOMPEmm
libmxnet.so:_ZN5mxnet2op8mxnet_op8tuned_opINS0_10mshadow_op5roundEN7mshadow4half6half_tEE6UseOMPEmm
libmxnet.so:_ZN5mxnet2op8mxnet_op8tuned_opINS0_10mshadow_op5roundEaE6UseOMPEmm
libmxnet.so:_ZN5mxnet2op8mxnet_op8tuned_opINS0_10mshadow_op5roundEdE6UseOMPEmm
libmxnet.so:_ZN5mxnet2op8mxnet_op8tuned_opINS0_10mshadow_op5roundEfE6UseOMPEmm
libmxnet.so:_ZN5mxnet2op8mxnet_op8tuned_opINS0_10mshadow_op5roundEhE6UseOMPEmm
libmxnet.so:_ZN5mxnet2op8mxnet_op8tuned_opINS0_10mshadow_op5roundEiE6UseOMPEmm
libmxnet.so:_ZN5mxnet2op8mxnet_op8tuned_opINS0_10mshadow_op5roundElE6UseOMPEmm
libmxnet.so:_ZN5mxnet2op8mxnet_op8tuned_opINS0_10mshadow_op5truncEN7mshadow4half6half_tEE6UseOMPEmm
libmxnet.so:_ZN5mxnet2op8mxnet_op8tuned_opINS0_10mshadow_op5truncEaE6UseOMPEmm
libmxnet.so:_ZN5mxnet2op8mxnet_op8tuned_opINS0_10mshadow_op5truncEdE6UseOMPEmm
libmxnet.so:_ZN5mxnet2op8mxnet_op8tuned_opINS0_10mshadow_op5truncEfE6UseOMPEmm
libmxnet.so:_ZN5mxnet2op8mxnet_op8tuned_opINS0_10mshadow_op5truncEhE6UseOMPEmm
libmxnet.so:_ZN5mxnet2op8mxnet_op8tuned_opINS0_10mshadow_op5truncEiE6UseOMPEmm
libmxnet.so:_ZN5mxnet2op8mxnet_op8tuned_opINS0_10mshadow_op5truncElE6UseOMPEmm
libmxnet.so:_ZN5mxnet2op8mxnet_op8tuned_opINS0_10mshadow_op6arccosEN7mshadow4half6half_tEE6UseOMPEmm
libmxnet.so:_ZN5mxnet2op8mxnet_op8tuned_opINS0_10mshadow_op6arccosEaE6UseOMPEmm
libmxnet.so:_ZN5mxnet2op8mxnet_op8tuned_opINS0_10mshadow_op6arccosEdE6UseOMPEmm
libmxnet.so:_ZN5mxnet2op8mxnet_op8tuned_opINS0_10mshadow_op6arccosEfE6UseOMPEmm
libmxnet.so:_ZN5mxnet2op8mxnet_op8tuned_opINS0_10mshadow_op6arccosEhE6UseOMPEmm
libmxnet.so:_ZN5mxnet2op8mxnet_op8tuned_opINS0_10mshadow_op6arccosEiE6UseOMPEmm
libmxnet.so:_ZN5mxnet2op8mxnet_op8tuned_opINS0_10mshadow_op6arccosElE6UseOMPEmm
libmxnet.so:_ZN5mxnet2op8mxnet_op8tuned_opINS0_10mshadow_op6arcsinEN7mshadow4half6half_tEE6UseOMPEmm
libmxnet.so:_ZN5mxnet2op8mxnet_op8tuned_opINS0_10mshadow_op6arcsinEaE6UseOMPEmm
libmxnet.so:_ZN5mxnet2op8mxnet_op8tuned_opINS0_10mshadow_op6arcsinEdE6UseOMPEmm
libmxnet.so:_ZN5mxnet2op8mxnet_op8tuned_opINS0_10mshadow_op6arcsinEfE6UseOMPEmm
libmxnet.so:_ZN5mxnet2op8mxnet_op8tuned_opINS0_10mshadow_op6arcsinEhE6UseOMPEmm
libmxnet.so:_ZN5mxnet2op8mxnet_op8tuned_opINS0_10mshadow_op6arcsinEiE6UseOMPEmm
libmxnet.so:_ZN5mxnet2op8mxnet_op8tuned_opINS0_10mshadow_op6arcsinElE6UseOMPEmm
libmxnet.so:_ZN5mxnet2op8mxnet_op8tuned_opINS0_10mshadow_op6arctanEN7mshadow4half6half_tEE6UseOMPEmm
libmxnet.so:_ZN5mxnet2op8mxnet_op8tuned_opINS0_10mshadow_op6arctanEaE6UseOMPEmm
libmxnet.so:_ZN5mxnet2op8mxnet_op8tuned_opINS0_10mshadow_op6arctanEdE6UseOMPEmm
libmxnet.so:_ZN5mxnet2op8mxnet_op8tuned_opINS0_10mshadow_op6arctanEfE6UseOMPEmm
libmxnet.so:_ZN5mxnet2op8mxnet_op8tuned_opINS0_10mshadow_op6arctanEhE6UseOMPEmm
libmxnet.so:_ZN5mxnet2op8mxnet_op8tuned_opINS0_10mshadow_op6arctanEiE6UseOMPEmm
libmxnet.so:_ZN5mxnet2op8mxnet_op8tuned_opINS0_10mshadow_op6arctanElE6UseOMPEmm
libmxnet.so:_ZN5mxnet2op8mxnet_op8tuned_opINS0_10mshadow_op6erfinvEN7mshadow4half6half_tEE6UseOMPEmm
libmxnet.so:_ZN5mxnet2op8mxnet_op8tuned_opINS0_10mshadow_op6erfinvEaE6UseOMPEmm
libmxnet.so:_ZN5mxnet2op8mxnet_op8tuned_opINS0_10mshadow_op6erfinvEdE6UseOMPEmm
libmxnet.so:_ZN5mxnet2op8mxnet_op8tuned_opINS0_10mshadow_op6erfinvEfE6UseOMPEmm
libmxnet.so:_ZN5mxnet2op8mxnet_op8tuned_opINS0_10mshadow_op6erfinvEhE6UseOMPEmm
libmxnet.so:_ZN5mxnet2op8mxnet_op8tuned_opINS0_10mshadow_op6erfinvEiE6UseOMPEmm
libmxnet.so:_ZN5mxnet2op8mxnet_op8tuned_opINS0_10mshadow_op6erfinvElE6UseOMPEmm
libmxnet.so:_ZN5mxnet2op8mxnet_op8tuned_opINS0_10mshadow_op6rminusEN7mshadow4half6half_tEE6UseOMPEmm
libmxnet.so:_ZN5mxnet2op8mxnet_op8tuned_opINS0_10mshadow_op6rminusEaE6UseOMPEmm
libmxnet.so:_ZN5mxnet2op8mxnet_op8tuned_opINS0_10mshadow_op6rminusEdE6UseOMPEmm
libmxnet.so:_ZN5mxnet2op8mxnet_op8tuned_opINS0_10mshadow_op6rminusEfE6UseOMPEmm
libmxnet.so:_ZN5mxnet2op8mxnet_op8tuned_opINS0_10mshadow_op6rminusEhE6UseOMPEmm
libmxnet.so:_ZN5mxnet2op8mxnet_op8tuned_opINS0_10mshadow_op6rminusEiE6UseOMPEmm
libmxnet.so:_ZN5mxnet2op8mxnet_op8tuned_opINS0_10mshadow_op6rminusElE6UseOMPEmm
libmxnet.so:_ZN5mxnet2op8mxnet_op8tuned_opINS0_10mshadow_op6rpowerEN7mshadow4half6half_tEE6UseOMPEmm
libmxnet.so:_ZN5mxnet2op8mxnet_op8tuned_opINS0_10mshadow_op6rpowerEaE6UseOMPEmm
libmxnet.so:_ZN5mxnet2op8mxnet_op8tuned_opINS0_10mshadow_op6rpowerEdE6UseOMPEmm
libmxnet.so:_ZN5mxnet2op8mxnet_op8tuned_opINS0_10mshadow_op6rpowerEfE6UseOMPEmm
libmxnet.so:_ZN5mxnet2op8mxnet_op8tuned_opINS0_10mshadow_op6rpowerEhE6UseOMPEmm
libmxnet.so:_ZN5mxnet2op8mxnet_op8tuned_opINS0_10mshadow_op6rpowerEiE6UseOMPEmm
libmxnet.so:_ZN5mxnet2op8mxnet_op8tuned_opINS0_10mshadow_op6rpowerElE6UseOMPEmm
libmxnet.so:_ZN5mxnet2op8mxnet_op8tuned_opINS0_10mshadow_op6squareEN7mshadow4half6half_tEE6UseOMPEmm
libmxnet.so:_ZN5mxnet2op8mxnet_op8tuned_opINS0_10mshadow_op6squareEaE6UseOMPEmm
libmxnet.so:_ZN5mxnet2op8mxnet_op8tuned_opINS0_10mshadow_op6squareEdE6UseOMPEmm
libmxnet.so:_ZN5mxnet2op8mxnet_op8tuned_opINS0_10mshadow_op6squareEfE6UseOMPEmm
libmxnet.so:_ZN5mxnet2op8mxnet_op8tuned_opINS0_10mshadow_op6squareEhE6UseOMPEmm
libmxnet.so:_ZN5mxnet2op8mxnet_op8tuned_opINS0_10mshadow_op6squareEiE6UseOMPEmm
libmxnet.so:_ZN5mxnet2op8mxnet_op8tuned_opINS0_10mshadow_op6squareElE6UseOMPEmm
libmxnet.so:_ZN5mxnet2op8mxnet_op8tuned_opINS0_10mshadow_op7arccoshEN7mshadow4half6half_tEE6UseOMPEmm
libmxnet.so:_ZN5mxnet2op8mxnet_op8tuned_opINS0_10mshadow_op7arccoshEaE6UseOMPEmm
libmxnet.so:_ZN5mxnet2op8mxnet_op8tuned_opINS0_10mshadow_op7arccoshEdE6UseOMPEmm
libmxnet.so:_ZN5mxnet2op8mxnet_op8tuned_opINS0_10mshadow_op7arccoshEfE6UseOMPEmm
libmxnet.so:_ZN5mxnet2op8mxnet_op8tuned_opINS0_10mshadow_op7arccoshEhE6UseOMPEmm
libmxnet.so:_ZN5mxnet2op8mxnet_op8tuned_opINS0_10mshadow_op7arccoshEiE6UseOMPEmm
libmxnet.so:_ZN5mxnet2op8mxnet_op8tuned_opINS0_10mshadow_op7arccoshElE6UseOMPEmm
libmxnet.so:_ZN5mxnet2op8mxnet_op8tuned_opINS0_10mshadow_op7arcsinhEN7mshadow4half6half_tEE6UseOMPEmm
libmxnet.so:_ZN5mxnet2op8mxnet_op8tuned_opINS0_10mshadow_op7arcsinhEaE6UseOMPEmm
libmxnet.so:_ZN5mxnet2op8mxnet_op8tuned_opINS0_10mshadow_op7arcsinhEdE6UseOMPEmm
libmxnet.so:_ZN5mxnet2op8mxnet_op8tuned_opINS0_10mshadow_op7arcsinhEfE6UseOMPEmm
libmxnet.so:_ZN5mxnet2op8mxnet_op8tuned_opINS0_10mshadow_op7arcsinhEhE6UseOMPEmm
libmxnet.so:_ZN5mxnet2op8mxnet_op8tuned_opINS0_10mshadow_op7arcsinhEiE6UseOMPEmm
libmxnet.so:_ZN5mxnet2op8mxnet_op8tuned_opINS0_10mshadow_op7arcsinhElE6UseOMPEmm
libmxnet.so:_ZN5mxnet2op8mxnet_op8tuned_opINS0_10mshadow_op7arctanhEN7mshadow4half6half_tEE6UseOMPEmm
libmxnet.so:_ZN5mxnet2op8mxnet_op8tuned_opINS0_10mshadow_op7arctanhEaE6UseOMPEmm
libmxnet.so:_ZN5mxnet2op8mxnet_op8tuned_opINS0_10mshadow_op7arctanhEdE6UseOMPEmm
libmxnet.so:_ZN5mxnet2op8mxnet_op8tuned_opINS0_10mshadow_op7arctanhEfE6UseOMPEmm
libmxnet.so:_ZN5mxnet2op8mxnet_op8tuned_opINS0_10mshadow_op7arctanhEhE6UseOMPEmm
libmxnet.so:_ZN5mxnet2op8mxnet_op8tuned_opINS0_10mshadow_op7arctanhEiE6UseOMPEmm
libmxnet.so:_ZN5mxnet2op8mxnet_op8tuned_opINS0_10mshadow_op7arctanhElE6UseOMPEmm
libmxnet.so:_ZN5mxnet2op8mxnet_op8tuned_opINS0_10mshadow_op7degreesEN7mshadow4half6half_tEE6UseOMPEmm
libmxnet.so:_ZN5mxnet2op8mxnet_op8tuned_opINS0_10mshadow_op7degreesEaE6UseOMPEmm
libmxnet.so:_ZN5mxnet2op8mxnet_op8tuned_opINS0_10mshadow_op7degreesEdE6UseOMPEmm
libmxnet.so:_ZN5mxnet2op8mxnet_op8tuned_opINS0_10mshadow_op7degreesEfE6UseOMPEmm
libmxnet.so:_ZN5mxnet2op8mxnet_op8tuned_opINS0_10mshadow_op7degreesEhE6UseOMPEmm
libmxnet.so:_ZN5mxnet2op8mxnet_op8tuned_opINS0_10mshadow_op7degreesEiE6UseOMPEmm
libmxnet.so:_ZN5mxnet2op8mxnet_op8tuned_opINS0_10mshadow_op7degreesElE6UseOMPEmm
libmxnet.so:_ZN5mxnet2op8mxnet_op8tuned_opINS0_10mshadow_op7gammalnEN7mshadow4half6half_tEE6UseOMPEmm
libmxnet.so:_ZN5mxnet2op8mxnet_op8tuned_opINS0_10mshadow_op7gammalnEaE6UseOMPEmm
libmxnet.so:_ZN5mxnet2op8mxnet_op8tuned_opINS0_10mshadow_op7gammalnEdE6UseOMPEmm
libmxnet.so:_ZN5mxnet2op8mxnet_op8tuned_opINS0_10mshadow_op7gammalnEfE6UseOMPEmm
libmxnet.so:_ZN5mxnet2op8mxnet_op8tuned_opINS0_10mshadow_op7gammalnEhE6UseOMPEmm
libmxnet.so:_ZN5mxnet2op8mxnet_op8tuned_opINS0_10mshadow_op7gammalnEiE6UseOMPEmm
libmxnet.so:_ZN5mxnet2op8mxnet_op8tuned_opINS0_10mshadow_op7gammalnElE6UseOMPEmm
libmxnet.so:_ZN5mxnet2op8mxnet_op8tuned_opINS0_10mshadow_op7maximumEN7mshadow4half6half_tEE6UseOMPEmm
libmxnet.so:_ZN5mxnet2op8mxnet_op8tuned_opINS0_10mshadow_op7maximumEaE6UseOMPEmm
libmxnet.so:_ZN5mxnet2op8mxnet_op8tuned_opINS0_10mshadow_op7maximumEdE6UseOMPEmm
libmxnet.so:_ZN5mxnet2op8mxnet_op8tuned_opINS0_10mshadow_op7maximumEfE6UseOMPEmm
libmxnet.so:_ZN5mxnet2op8mxnet_op8tuned_opINS0_10mshadow_op7maximumEhE6UseOMPEmm
libmxnet.so:_ZN5mxnet2op8mxnet_op8tuned_opINS0_10mshadow_op7maximumEiE6UseOMPEmm
libmxnet.so:_ZN5mxnet2op8mxnet_op8tuned_opINS0_10mshadow_op7maximumElE6UseOMPEmm
libmxnet.so:_ZN5mxnet2op8mxnet_op8tuned_opINS0_10mshadow_op7minimumEN7mshadow4half6half_tEE6UseOMPEmm
libmxnet.so:_ZN5mxnet2op8mxnet_op8tuned_opINS0_10mshadow_op7minimumEaE6UseOMPEmm
libmxnet.so:_ZN5mxnet2op8mxnet_op8tuned_opINS0_10mshadow_op7minimumEdE6UseOMPEmm
libmxnet.so:_ZN5mxnet2op8mxnet_op8tuned_opINS0_10mshadow_op7minimumEfE6UseOMPEmm
libmxnet.so:_ZN5mxnet2op8mxnet_op8tuned_opINS0_10mshadow_op7minimumEhE6UseOMPEmm
libmxnet.so:_ZN5mxnet2op8mxnet_op8tuned_opINS0_10mshadow_op7minimumEiE6UseOMPEmm
libmxnet.so:_ZN5mxnet2op8mxnet_op8tuned_opINS0_10mshadow_op7minimumElE6UseOMPEmm
libmxnet.so:_ZN5mxnet2op8mxnet_op8tuned_opINS0_10mshadow_op7radiansEN7mshadow4half6half_tEE6UseOMPEmm
libmxnet.so:_ZN5mxnet2op8mxnet_op8tuned_opINS0_10mshadow_op7radiansEaE6UseOMPEmm
libmxnet.so:_ZN5mxnet2op8mxnet_op8tuned_opINS0_10mshadow_op7radiansEdE6UseOMPEmm
libmxnet.so:_ZN5mxnet2op8mxnet_op8tuned_opINS0_10mshadow_op7radiansEfE6UseOMPEmm
libmxnet.so:_ZN5mxnet2op8mxnet_op8tuned_opINS0_10mshadow_op7radiansEhE6UseOMPEmm
libmxnet.so:_ZN5mxnet2op8mxnet_op8tuned_opINS0_10mshadow_op7radiansEiE6UseOMPEmm
libmxnet.so:_ZN5mxnet2op8mxnet_op8tuned_opINS0_10mshadow_op7radiansElE6UseOMPEmm
libmxnet.so:_ZN5mxnet2op8mxnet_op8tuned_opINS0_10mshadow_op7sigmoidEN7mshadow4half6half_tEE6UseOMPEmm
libmxnet.so:_ZN5mxnet2op8mxnet_op8tuned_opINS0_10mshadow_op7sigmoidEaE6UseOMPEmm
libmxnet.so:_ZN5mxnet2op8mxnet_op8tuned_opINS0_10mshadow_op7sigmoidEdE6UseOMPEmm
libmxnet.so:_ZN5mxnet2op8mxnet_op8tuned_opINS0_10mshadow_op7sigmoidEfE6UseOMPEmm
libmxnet.so:_ZN5mxnet2op8mxnet_op8tuned_opINS0_10mshadow_op7sigmoidEhE6UseOMPEmm
libmxnet.so:_ZN5mxnet2op8mxnet_op8tuned_opINS0_10mshadow_op7sigmoidEiE6UseOMPEmm
libmxnet.so:_ZN5mxnet2op8mxnet_op8tuned_opINS0_10mshadow_op7sigmoidElE6UseOMPEmm
libmxnet.so:_ZN5mxnet2op8mxnet_op8tuned_opINS0_10mshadow_op8div_gradEN7mshadow4half6half_tEE6UseOMPEmm
libmxnet.so:_ZN5mxnet2op8mxnet_op8tuned_opINS0_10mshadow_op8div_gradEaE6UseOMPEmm
libmxnet.so:_ZN5mxnet2op8mxnet_op8tuned_opINS0_10mshadow_op8div_gradEdE6UseOMPEmm
libmxnet.so:_ZN5mxnet2op8mxnet_op8tuned_opINS0_10mshadow_op8div_gradEfE6UseOMPEmm
libmxnet.so:_ZN5mxnet2op8mxnet_op8tuned_opINS0_10mshadow_op8div_gradEhE6UseOMPEmm
libmxnet.so:_ZN5mxnet2op8mxnet_op8tuned_opINS0_10mshadow_op8div_gradEiE6UseOMPEmm
libmxnet.so:_ZN5mxnet2op8mxnet_op8tuned_opINS0_10mshadow_op8div_gradElE6UseOMPEmm
libmxnet.so:_ZN5mxnet2op8mxnet_op8tuned_opINS0_10mshadow_op8identityEN7mshadow4half6half_tEE6UseOMPEmm
libmxnet.so:_ZN5mxnet2op8mxnet_op8tuned_opINS0_10mshadow_op8identityEaE6UseOMPEmm
libmxnet.so:_ZN5mxnet2op8mxnet_op8tuned_opINS0_10mshadow_op8identityEdE6UseOMPEmm
libmxnet.so:_ZN5mxnet2op8mxnet_op8tuned_opINS0_10mshadow_op8identityEfE6UseOMPEmm
libmxnet.so:_ZN5mxnet2op8mxnet_op8tuned_opINS0_10mshadow_op8identityEhE6UseOMPEmm
libmxnet.so:_ZN5mxnet2op8mxnet_op8tuned_opINS0_10mshadow_op8identityEiE6UseOMPEmm
libmxnet.so:_ZN5mxnet2op8mxnet_op8tuned_opINS0_10mshadow_op8identityElE6UseOMPEmm
libmxnet.so:_ZN5mxnet2op8mxnet_op8tuned_opINS0_10mshadow_op8negationEN7mshadow4half6half_tEE6UseOMPEmm
libmxnet.so:_ZN5mxnet2op8mxnet_op8tuned_opINS0_10mshadow_op8negationEaE6UseOMPEmm
libmxnet.so:_ZN5mxnet2op8mxnet_op8tuned_opINS0_10mshadow_op8negationEdE6UseOMPEmm
libmxnet.so:_ZN5mxnet2op8mxnet_op8tuned_opINS0_10mshadow_op8negationEfE6UseOMPEmm
libmxnet.so:_ZN5mxnet2op8mxnet_op8tuned_opINS0_10mshadow_op8negationEhE6UseOMPEmm
libmxnet.so:_ZN5mxnet2op8mxnet_op8tuned_opINS0_10mshadow_op8negationEiE6UseOMPEmm
libmxnet.so:_ZN5mxnet2op8mxnet_op8tuned_opINS0_10mshadow_op8negationElE6UseOMPEmm
libmxnet.so:_ZN5mxnet2op8mxnet_op8tuned_opINS0_10mshadow_op8softreluEN7mshadow4half6half_tEE6UseOMPEmm
libmxnet.so:_ZN5mxnet2op8mxnet_op8tuned_opINS0_10mshadow_op8softreluEaE6UseOMPEmm
libmxnet.so:_ZN5mxnet2op8mxnet_op8tuned_opINS0_10mshadow_op8softreluEdE6UseOMPEmm
libmxnet.so:_ZN5mxnet2op8mxnet_op8tuned_opINS0_10mshadow_op8softreluEfE6UseOMPEmm
libmxnet.so:_ZN5mxnet2op8mxnet_op8tuned_opINS0_10mshadow_op8softreluEhE6UseOMPEmm
libmxnet.so:_ZN5mxnet2op8mxnet_op8tuned_opINS0_10mshadow_op8softreluEiE6UseOMPEmm
libmxnet.so:_ZN5mxnet2op8mxnet_op8tuned_opINS0_10mshadow_op8softreluElE6UseOMPEmm
libmxnet.so:_ZN5mxnet2op8mxnet_op8tuned_opINS0_10mshadow_op8softsignEN7mshadow4half6half_tEE6UseOMPEmm
libmxnet.so:_ZN5mxnet2op8mxnet_op8tuned_opINS0_10mshadow_op8softsignEaE6UseOMPEmm
libmxnet.so:_ZN5mxnet2op8mxnet_op8tuned_opINS0_10mshadow_op8softsignEdE6UseOMPEmm
libmxnet.so:_ZN5mxnet2op8mxnet_op8tuned_opINS0_10mshadow_op8softsignEfE6UseOMPEmm
libmxnet.so:_ZN5mxnet2op8mxnet_op8tuned_opINS0_10mshadow_op8softsignEhE6UseOMPEmm
libmxnet.so:_ZN5mxnet2op8mxnet_op8tuned_opINS0_10mshadow_op8softsignEiE6UseOMPEmm
libmxnet.so:_ZN5mxnet2op8mxnet_op8tuned_opINS0_10mshadow_op8softsignElE6UseOMPEmm
libmxnet.so:_ZN5mxnet2op8mxnet_op8tuned_opINS0_10mshadow_op9cube_rootEN7mshadow4half6half_tEE6UseOMPEmm
libmxnet.so:_ZN5mxnet2op8mxnet_op8tuned_opINS0_10mshadow_op9cube_rootEaE6UseOMPEmm
libmxnet.so:_ZN5mxnet2op8mxnet_op8tuned_opINS0_10mshadow_op9cube_rootEdE6UseOMPEmm
libmxnet.so:_ZN5mxnet2op8mxnet_op8tuned_opINS0_10mshadow_op9cube_rootEfE6UseOMPEmm
libmxnet.so:_ZN5mxnet2op8mxnet_op8tuned_opINS0_10mshadow_op9cube_rootEhE6UseOMPEmm
libmxnet.so:_ZN5mxnet2op8mxnet_op8tuned_opINS0_10mshadow_op9cube_rootEiE6UseOMPEmm
libmxnet.so:_ZN5mxnet2op8mxnet_op8tuned_opINS0_10mshadow_op9cube_rootElE6UseOMPEmm
libmxnet.so:_ZN5mxnet2op8mxnet_op8tuned_opINS0_10mshadow_op9div_rgradEN7mshadow4half6half_tEE6UseOMPEmm
libmxnet.so:_ZN5mxnet2op8mxnet_op8tuned_opINS0_10mshadow_op9div_rgradEaE6UseOMPEmm
libmxnet.so:_ZN5mxnet2op8mxnet_op8tuned_opINS0_10mshadow_op9div_rgradEdE6UseOMPEmm
libmxnet.so:_ZN5mxnet2op8mxnet_op8tuned_opINS0_10mshadow_op9div_rgradEfE6UseOMPEmm
libmxnet.so:_ZN5mxnet2op8mxnet_op8tuned_opINS0_10mshadow_op9div_rgradEhE6UseOMPEmm
libmxnet.so:_ZN5mxnet2op8mxnet_op8tuned_opINS0_10mshadow_op9div_rgradEiE6UseOMPEmm
libmxnet.so:_ZN5mxnet2op8mxnet_op8tuned_opINS0_10mshadow_op9div_rgradElE6UseOMPEmm
libmxnet.so:_ZN5mxnet2op8mxnet_op8tuned_opINS0_24PopulateFullIdxRspKernelEN7mshadow4half6half_tEE6UseOMPEmm
libmxnet.so:_ZN5mxnet2op8mxnet_op8tuned_opINS0_24PopulateFullIdxRspKernelEaE6UseOMPEmm
libmxnet.so:_ZN5mxnet2op8mxnet_op8tuned_opINS0_24PopulateFullIdxRspKernelEdE6UseOMPEmm
libmxnet.so:_ZN5mxnet2op8mxnet_op8tuned_opINS0_24PopulateFullIdxRspKernelEfE6UseOMPEmm
libmxnet.so:_ZN5mxnet2op8mxnet_op8tuned_opINS0_24PopulateFullIdxRspKernelEhE6UseOMPEmm
libmxnet.so:_ZN5mxnet2op8mxnet_op8tuned_opINS0_24PopulateFullIdxRspKernelEiE6UseOMPEmm
libmxnet.so:_ZN5mxnet2op8mxnet_op8tuned_opINS0_24PopulateFullIdxRspKernelElE6UseOMPEmm
libmxnet.so:_ZN5mxnet2op8mxnet_op8tuned_opINS1_10set_to_intILi0EEEN7mshadow4half6half_tEE6UseOMPEmm
libmxnet.so:_ZN5mxnet2op8mxnet_op8tuned_opINS1_10set_to_intILi0EEEaE6UseOMPEmm
libmxnet.so:_ZN5mxnet2op8mxnet_op8tuned_opINS1_10set_to_intILi0EEEdE6UseOMPEmm
libmxnet.so:_ZN5mxnet2op8mxnet_op8tuned_opINS1_10set_to_intILi0EEEfE6UseOMPEmm
libmxnet.so:_ZN5mxnet2op8mxnet_op8tuned_opINS1_10set_to_intILi0EEEhE6UseOMPEmm
libmxnet.so:_ZN5mxnet2op8mxnet_op8tuned_opINS1_10set_to_intILi0EEEiE6UseOMPEmm
libmxnet.so:_ZN5mxnet2op8mxnet_op8tuned_opINS1_10set_to_intILi0EEElE6UseOMPEmm
libmxnet.so:_ZN5mxnet2op8mxnet_op8tuned_opINS1_10set_to_intILi1EEEN7mshadow4half6half_tEE6UseOMPEmm
libmxnet.so:_ZN5mxnet2op8mxnet_op8tuned_opINS1_10set_to_intILi1EEEaE6UseOMPEmm
libmxnet.so:_ZN5mxnet2op8mxnet_op8tuned_opINS1_10set_to_intILi1EEEdE6UseOMPEmm
libmxnet.so:_ZN5mxnet2op8mxnet_op8tuned_opINS1_10set_to_intILi1EEEfE6UseOMPEmm
libmxnet.so:_ZN5mxnet2op8mxnet_op8tuned_opINS1_10set_to_intILi1EEEhE6UseOMPEmm
libmxnet.so:_ZN5mxnet2op8mxnet_op8tuned_opINS1_10set_to_intILi1EEEiE6UseOMPEmm
libmxnet.so:_ZN5mxnet2op8mxnet_op8tuned_opINS1_10set_to_intILi1EEElE6UseOMPEmm
libmxnet.so:_ZN5mxnet2op8mxnet_op8tuned_opINS1_19backward_grad_tunedINS0_10mshadow_op10gamma_gradEEEN7mshadow4half6half_tEE6UseOMPEmm
libmxnet.so:_ZN5mxnet2op8mxnet_op8tuned_opINS1_19backward_grad_tunedINS0_10mshadow_op10gamma_gradEEEaE6UseOMPEmm
libmxnet.so:_ZN5mxnet2op8mxnet_op8tuned_opINS1_19backward_grad_tunedINS0_10mshadow_op10gamma_gradEEEdE6UseOMPEmm
libmxnet.so:_ZN5mxnet2op8mxnet_op8tuned_opINS1_19backward_grad_tunedINS0_10mshadow_op10gamma_gradEEEfE6UseOMPEmm
libmxnet.so:_ZN5mxnet2op8mxnet_op8tuned_opINS1_19backward_grad_tunedINS0_10mshadow_op10gamma_gradEEEhE6UseOMPEmm
libmxnet.so:_ZN5mxnet2op8mxnet_op8tuned_opINS1_19backward_grad_tunedINS0_10mshadow_op10gamma_gradEEEiE6UseOMPEmm
libmxnet.so:_ZN5mxnet2op8mxnet_op8tuned_opINS1_19backward_grad_tunedINS0_10mshadow_op10gamma_gradEEElE6UseOMPEmm
libmxnet.so:_ZN5mxnet2op8mxnet_op8tuned_opINS1_19backward_grad_tunedINS0_10mshadow_op10log10_gradEEEN7mshadow4half6half_tEE6UseOMPEmm
libmxnet.so:_ZN5mxnet2op8mxnet_op8tuned_opINS1_19backward_grad_tunedINS0_10mshadow_op10log10_gradEEEaE6UseOMPEmm
libmxnet.so:_ZN5mxnet2op8mxnet_op8tuned_opINS1_19backward_grad_tunedINS0_10mshadow_op10log10_gradEEEdE6UseOMPEmm
libmxnet.so:_ZN5mxnet2op8mxnet_op8tuned_opINS1_19backward_grad_tunedINS0_10mshadow_op10log10_gradEEEfE6UseOMPEmm
libmxnet.so:_ZN5mxnet2op8mxnet_op8tuned_opINS1_19backward_grad_tunedINS0_10mshadow_op10log10_gradEEEhE6UseOMPEmm
libmxnet.so:_ZN5mxnet2op8mxnet_op8tuned_opINS1_19backward_grad_tunedINS0_10mshadow_op10log10_gradEEEiE6UseOMPEmm
libmxnet.so:_ZN5mxnet2op8mxnet_op8tuned_opINS1_19backward_grad_tunedINS0_10mshadow_op10log10_gradEEElE6UseOMPEmm
libmxnet.so:_ZN5mxnet2op8mxnet_op8tuned_opINS1_19backward_grad_tunedINS0_10mshadow_op10log1p_gradEEEN7mshadow4half6half_tEE6UseOMPEmm
libmxnet.so:_ZN5mxnet2op8mxnet_op8tuned_opINS1_19backward_grad_tunedINS0_10mshadow_op10log1p_gradEEEaE6UseOMPEmm
libmxnet.so:_ZN5mxnet2op8mxnet_op8tuned_opINS1_19backward_grad_tunedINS0_10mshadow_op10log1p_gradEEEdE6UseOMPEmm
libmxnet.so:_ZN5mxnet2op8mxnet_op8tuned_opINS1_19backward_grad_tunedINS0_10mshadow_op10log1p_gradEEEfE6UseOMPEmm
libmxnet.so:_ZN5mxnet2op8mxnet_op8tuned_opINS1_19backward_grad_tunedINS0_10mshadow_op10log1p_gradEEEhE6UseOMPEmm
libmxnet.so:_ZN5mxnet2op8mxnet_op8tuned_opINS1_19backward_grad_tunedINS0_10mshadow_op10log1p_gradEEEiE6UseOMPEmm
libmxnet.so:_ZN5mxnet2op8mxnet_op8tuned_opINS1_19backward_grad_tunedINS0_10mshadow_op10log1p_gradEEElE6UseOMPEmm
libmxnet.so:_ZN5mxnet2op8mxnet_op8tuned_opINS1_19backward_grad_tunedINS0_10mshadow_op10logical_orEEEN7mshadow4half6half_tEE6UseOMPEmm
libmxnet.so:_ZN5mxnet2op8mxnet_op8tuned_opINS1_19backward_grad_tunedINS0_10mshadow_op10logical_orEEEaE6UseOMPEmm
libmxnet.so:_ZN5mxnet2op8mxnet_op8tuned_opINS1_19backward_grad_tunedINS0_10mshadow_op10logical_orEEEdE6UseOMPEmm
libmxnet.so:_ZN5mxnet2op8mxnet_op8tuned_opINS1_19backward_grad_tunedINS0_10mshadow_op10logical_orEEEfE6UseOMPEmm
libmxnet.so:_ZN5mxnet2op8mxnet_op8tuned_opINS1_19backward_grad_tunedINS0_10mshadow_op10logical_orEEEhE6UseOMPEmm
libmxnet.so:_ZN5mxnet2op8mxnet_op8tuned_opINS1_19backward_grad_tunedINS0_10mshadow_op10logical_orEEEiE6UseOMPEmm
libmxnet.so:_ZN5mxnet2op8mxnet_op8tuned_opINS1_19backward_grad_tunedINS0_10mshadow_op10logical_orEEElE6UseOMPEmm
libmxnet.so:_ZN5mxnet2op8mxnet_op8tuned_opINS1_19backward_grad_tunedINS0_10mshadow_op10minus_signEEEN7mshadow4half6half_tEE6UseOMPEmm
libmxnet.so:_ZN5mxnet2op8mxnet_op8tuned_opINS1_19backward_grad_tunedINS0_10mshadow_op10minus_signEEEaE6UseOMPEmm
libmxnet.so:_ZN5mxnet2op8mxnet_op8tuned_opINS1_19backward_grad_tunedINS0_10mshadow_op10minus_signEEEdE6UseOMPEmm
libmxnet.so:_ZN5mxnet2op8mxnet_op8tuned_opINS1_19backward_grad_tunedINS0_10mshadow_op10minus_signEEEfE6UseOMPEmm
libmxnet.so:_ZN5mxnet2op8mxnet_op8tuned_opINS1_19backward_grad_tunedINS0_10mshadow_op10minus_signEEEhE6UseOMPEmm
libmxnet.so:_ZN5mxnet2op8mxnet_op8tuned_opINS1_19backward_grad_tunedINS0_10mshadow_op10minus_signEEEiE6UseOMPEmm
libmxnet.so:_ZN5mxnet2op8mxnet_op8tuned_opINS1_19backward_grad_tunedINS0_10mshadow_op10minus_signEEElE6UseOMPEmm
libmxnet.so:_ZN5mxnet2op8mxnet_op8tuned_opINS1_19backward_grad_tunedINS0_10mshadow_op10power_gradEEEN7mshadow4half6half_tEE6UseOMPEmm
libmxnet.so:_ZN5mxnet2op8mxnet_op8tuned_opINS1_19backward_grad_tunedINS0_10mshadow_op10power_gradEEEaE6UseOMPEmm
libmxnet.so:_ZN5mxnet2op8mxnet_op8tuned_opINS1_19backward_grad_tunedINS0_10mshadow_op10power_gradEEEdE6UseOMPEmm
libmxnet.so:_ZN5mxnet2op8mxnet_op8tuned_opINS1_19backward_grad_tunedINS0_10mshadow_op10power_gradEEEfE6UseOMPEmm
libmxnet.so:_ZN5mxnet2op8mxnet_op8tuned_opINS1_19backward_grad_tunedINS0_10mshadow_op10power_gradEEEhE6UseOMPEmm
libmxnet.so:_ZN5mxnet2op8mxnet_op8tuned_opINS1_19backward_grad_tunedINS0_10mshadow_op10power_gradEEEiE6UseOMPEmm
libmxnet.so:_ZN5mxnet2op8mxnet_op8tuned_opINS1_19backward_grad_tunedINS0_10mshadow_op10power_gradEEElE6UseOMPEmm
libmxnet.so:_ZN5mxnet2op8mxnet_op8tuned_opINS1_19backward_grad_tunedINS0_10mshadow_op10prelu_gradEEEN7mshadow4half6half_tEE6UseOMPEmm
libmxnet.so:_ZN5mxnet2op8mxnet_op8tuned_opINS1_19backward_grad_tunedINS0_10mshadow_op10prelu_gradEEEaE6UseOMPEmm
libmxnet.so:_ZN5mxnet2op8mxnet_op8tuned_opINS1_19backward_grad_tunedINS0_10mshadow_op10prelu_gradEEEdE6UseOMPEmm
libmxnet.so:_ZN5mxnet2op8mxnet_op8tuned_opINS1_19backward_grad_tunedINS0_10mshadow_op10prelu_gradEEEfE6UseOMPEmm
libmxnet.so:_ZN5mxnet2op8mxnet_op8tuned_opINS1_19backward_grad_tunedINS0_10mshadow_op10prelu_gradEEEhE6UseOMPEmm
libmxnet.so:_ZN5mxnet2op8mxnet_op8tuned_opINS1_19backward_grad_tunedINS0_10mshadow_op10prelu_gradEEEiE6UseOMPEmm
libmxnet.so:_ZN5mxnet2op8mxnet_op8tuned_opINS1_19backward_grad_tunedINS0_10mshadow_op10prelu_gradEEElE6UseOMPEmm
libmxnet.so:_ZN5mxnet2op8mxnet_op8tuned_opINS1_19backward_grad_tunedINS0_10mshadow_op11arccos_gradEEEN7mshadow4half6half_tEE6UseOMPEmm
libmxnet.so:_ZN5mxnet2op8mxnet_op8tuned_opINS1_19backward_grad_tunedINS0_10mshadow_op11arccos_gradEEEaE6UseOMPEmm
libmxnet.so:_ZN5mxnet2op8mxnet_op8tuned_opINS1_19backward_grad_tunedINS0_10mshadow_op11arccos_gradEEEdE6UseOMPEmm
libmxnet.so:_ZN5mxnet2op8mxnet_op8tuned_opINS1_19backward_grad_tunedINS0_10mshadow_op11arccos_gradEEEfE6UseOMPEmm
libmxnet.so:_ZN5mxnet2op8mxnet_op8tuned_opINS1_19backward_grad_tunedINS0_10mshadow_op11arccos_gradEEEhE6UseOMPEmm
libmxnet.so:_ZN5mxnet2op8mxnet_op8tuned_opINS1_19backward_grad_tunedINS0_10mshadow_op11arccos_gradEEEiE6UseOMPEmm
libmxnet.so:_ZN5mxnet2op8mxnet_op8tuned_opINS1_19backward_grad_tunedINS0_10mshadow_op11arccos_gradEEElE6UseOMPEmm
libmxnet.so:_ZN5mxnet2op8mxnet_op8tuned_opINS1_19backward_grad_tunedINS0_10mshadow_op11arcsin_gradEEEN7mshadow4half6half_tEE6UseOMPEmm
libmxnet.so:_ZN5mxnet2op8mxnet_op8tuned_opINS1_19backward_grad_tunedINS0_10mshadow_op11arcsin_gradEEEaE6UseOMPEmm
libmxnet.so:_ZN5mxnet2op8mxnet_op8tuned_opINS1_19backward_grad_tunedINS0_10mshadow_op11arcsin_gradEEEdE6UseOMPEmm
libmxnet.so:_ZN5mxnet2op8mxnet_op8tuned_opINS1_19backward_grad_tunedINS0_10mshadow_op11arcsin_gradEEEfE6UseOMPEmm
libmxnet.so:_ZN5mxnet2op8mxnet_op8tuned_opINS1_19backward_grad_tunedINS0_10mshadow_op11arcsin_gradEEEhE6UseOMPEmm
libmxnet.so:_ZN5mxnet2op8mxnet_op8tuned_opINS1_19backward_grad_tunedINS0_10mshadow_op11arcsin_gradEEEiE6UseOMPEmm
libmxnet.so:_ZN5mxnet2op8mxnet_op8tuned_opINS1_19backward_grad_tunedINS0_10mshadow_op11arcsin_gradEEElE6UseOMPEmm
libmxnet.so:_ZN5mxnet2op8mxnet_op8tuned_opINS1_19backward_grad_tunedINS0_10mshadow_op11arctan_gradEEEN7mshadow4half6half_tEE6UseOMPEmm
libmxnet.so:_ZN5mxnet2op8mxnet_op8tuned_opINS1_19backward_grad_tunedINS0_10mshadow_op11arctan_gradEEEaE6UseOMPEmm
libmxnet.so:_ZN5mxnet2op8mxnet_op8tuned_opINS1_19backward_grad_tunedINS0_10mshadow_op11arctan_gradEEEdE6UseOMPEmm
libmxnet.so:_ZN5mxnet2op8mxnet_op8tuned_opINS1_19backward_grad_tunedINS0_10mshadow_op11arctan_gradEEEfE6UseOMPEmm
libmxnet.so:_ZN5mxnet2op8mxnet_op8tuned_opINS1_19backward_grad_tunedINS0_10mshadow_op11arctan_gradEEEhE6UseOMPEmm
libmxnet.so:_ZN5mxnet2op8mxnet_op8tuned_opINS1_19backward_grad_tunedINS0_10mshadow_op11arctan_gradEEEiE6UseOMPEmm
libmxnet.so:_ZN5mxnet2op8mxnet_op8tuned_opINS1_19backward_grad_tunedINS0_10mshadow_op11arctan_gradEEElE6UseOMPEmm
libmxnet.so:_ZN5mxnet2op8mxnet_op8tuned_opINS1_19backward_grad_tunedINS0_10mshadow_op11erfinv_gradEEEN7mshadow4half6half_tEE6UseOMPEmm
libmxnet.so:_ZN5mxnet2op8mxnet_op8tuned_opINS1_19backward_grad_tunedINS0_10mshadow_op11erfinv_gradEEEaE6UseOMPEmm
libmxnet.so:_ZN5mxnet2op8mxnet_op8tuned_opINS1_19backward_grad_tunedINS0_10mshadow_op11erfinv_gradEEEdE6UseOMPEmm
libmxnet.so:_ZN5mxnet2op8mxnet_op8tuned_opINS1_19backward_grad_tunedINS0_10mshadow_op11erfinv_gradEEEfE6UseOMPEmm
libmxnet.so:_ZN5mxnet2op8mxnet_op8tuned_opINS1_19backward_grad_tunedINS0_10mshadow_op11erfinv_gradEEEhE6UseOMPEmm
libmxnet.so:_ZN5mxnet2op8mxnet_op8tuned_opINS1_19backward_grad_tunedINS0_10mshadow_op11erfinv_gradEEEiE6UseOMPEmm
libmxnet.so:_ZN5mxnet2op8mxnet_op8tuned_opINS1_19backward_grad_tunedINS0_10mshadow_op11erfinv_gradEEElE6UseOMPEmm
libmxnet.so:_ZN5mxnet2op8mxnet_op8tuned_opINS1_19backward_grad_tunedINS0_10mshadow_op11logical_andEEEN7mshadow4half6half_tEE6UseOMPEmm
libmxnet.so:_ZN5mxnet2op8mxnet_op8tuned_opINS1_19backward_grad_tunedINS0_10mshadow_op11logical_andEEEaE6UseOMPEmm
libmxnet.so:_ZN5mxnet2op8mxnet_op8tuned_opINS1_19backward_grad_tunedINS0_10mshadow_op11logical_andEEEdE6UseOMPEmm
libmxnet.so:_ZN5mxnet2op8mxnet_op8tuned_opINS1_19backward_grad_tunedINS0_10mshadow_op11logical_andEEEfE6UseOMPEmm
libmxnet.so:_ZN5mxnet2op8mxnet_op8tuned_opINS1_19backward_grad_tunedINS0_10mshadow_op11logical_andEEEhE6UseOMPEmm
libmxnet.so:_ZN5mxnet2op8mxnet_op8tuned_opINS1_19backward_grad_tunedINS0_10mshadow_op11logical_andEEEiE6UseOMPEmm
libmxnet.so:_ZN5mxnet2op8mxnet_op8tuned_opINS1_19backward_grad_tunedINS0_10mshadow_op11logical_andEEElE6UseOMPEmm
libmxnet.so:_ZN5mxnet2op8mxnet_op8tuned_opINS1_19backward_grad_tunedINS0_10mshadow_op11logical_xorEEEN7mshadow4half6half_tEE6UseOMPEmm
libmxnet.so:_ZN5mxnet2op8mxnet_op8tuned_opINS1_19backward_grad_tunedINS0_10mshadow_op11logical_xorEEEaE6UseOMPEmm
libmxnet.so:_ZN5mxnet2op8mxnet_op8tuned_opINS1_19backward_grad_tunedINS0_10mshadow_op11logical_xorEEEdE6UseOMPEmm
libmxnet.so:_ZN5mxnet2op8mxnet_op8tuned_opINS1_19backward_grad_tunedINS0_10mshadow_op11logical_xorEEEfE6UseOMPEmm
libmxnet.so:_ZN5mxnet2op8mxnet_op8tuned_opINS1_19backward_grad_tunedINS0_10mshadow_op11logical_xorEEEhE6UseOMPEmm
libmxnet.so:_ZN5mxnet2op8mxnet_op8tuned_opINS1_19backward_grad_tunedINS0_10mshadow_op11logical_xorEEEiE6UseOMPEmm
libmxnet.so:_ZN5mxnet2op8mxnet_op8tuned_opINS1_19backward_grad_tunedINS0_10mshadow_op11logical_xorEEElE6UseOMPEmm
libmxnet.so:_ZN5mxnet2op8mxnet_op8tuned_opINS1_19backward_grad_tunedINS0_10mshadow_op11power_rgradEEEN7mshadow4half6half_tEE6UseOMPEmm
libmxnet.so:_ZN5mxnet2op8mxnet_op8tuned_opINS1_19backward_grad_tunedINS0_10mshadow_op11power_rgradEEEaE6UseOMPEmm
libmxnet.so:_ZN5mxnet2op8mxnet_op8tuned_opINS1_19backward_grad_tunedINS0_10mshadow_op11power_rgradEEEdE6UseOMPEmm
libmxnet.so:_ZN5mxnet2op8mxnet_op8tuned_opINS1_19backward_grad_tunedINS0_10mshadow_op11power_rgradEEEfE6UseOMPEmm
libmxnet.so:_ZN5mxnet2op8mxnet_op8tuned_opINS1_19backward_grad_tunedINS0_10mshadow_op11power_rgradEEEhE6UseOMPEmm
libmxnet.so:_ZN5mxnet2op8mxnet_op8tuned_opINS1_19backward_grad_tunedINS0_10mshadow_op11power_rgradEEEiE6UseOMPEmm
libmxnet.so:_ZN5mxnet2op8mxnet_op8tuned_opINS1_19backward_grad_tunedINS0_10mshadow_op11power_rgradEEElE6UseOMPEmm
libmxnet.so:_ZN5mxnet2op8mxnet_op8tuned_opINS1_19backward_grad_tunedINS0_10mshadow_op11rpower_gradEEEN7mshadow4half6half_tEE6UseOMPEmm
libmxnet.so:_ZN5mxnet2op8mxnet_op8tuned_opINS1_19backward_grad_tunedINS0_10mshadow_op11rpower_gradEEEaE6UseOMPEmm
libmxnet.so:_ZN5mxnet2op8mxnet_op8tuned_opINS1_19backward_grad_tunedINS0_10mshadow_op11rpower_gradEEEdE6UseOMPEmm
libmxnet.so:_ZN5mxnet2op8mxnet_op8tuned_opINS1_19backward_grad_tunedINS0_10mshadow_op11rpower_gradEEEfE6UseOMPEmm
libmxnet.so:_ZN5mxnet2op8mxnet_op8tuned_opINS1_19backward_grad_tunedINS0_10mshadow_op11rpower_gradEEEhE6UseOMPEmm
libmxnet.so:_ZN5mxnet2op8mxnet_op8tuned_opINS1_19backward_grad_tunedINS0_10mshadow_op11rpower_gradEEEiE6UseOMPEmm
libmxnet.so:_ZN5mxnet2op8mxnet_op8tuned_opINS1_19backward_grad_tunedINS0_10mshadow_op11rpower_gradEEElE6UseOMPEmm
libmxnet.so:_ZN5mxnet2op8mxnet_op8tuned_opINS1_19backward_grad_tunedINS0_10mshadow_op11square_gradEEEN7mshadow4half6half_tEE6UseOMPEmm
libmxnet.so:_ZN5mxnet2op8mxnet_op8tuned_opINS1_19backward_grad_tunedINS0_10mshadow_op11square_gradEEEaE6UseOMPEmm
libmxnet.so:_ZN5mxnet2op8mxnet_op8tuned_opINS1_19backward_grad_tunedINS0_10mshadow_op11square_gradEEEdE6UseOMPEmm
libmxnet.so:_ZN5mxnet2op8mxnet_op8tuned_opINS1_19backward_grad_tunedINS0_10mshadow_op11square_gradEEEfE6UseOMPEmm
libmxnet.so:_ZN5mxnet2op8mxnet_op8tuned_opINS1_19backward_grad_tunedINS0_10mshadow_op11square_gradEEEhE6UseOMPEmm
libmxnet.so:_ZN5mxnet2op8mxnet_op8tuned_opINS1_19backward_grad_tunedINS0_10mshadow_op11square_gradEEEiE6UseOMPEmm
libmxnet.so:_ZN5mxnet2op8mxnet_op8tuned_opINS1_19backward_grad_tunedINS0_10mshadow_op11square_gradEEElE6UseOMPEmm
libmxnet.so:_ZN5mxnet2op8mxnet_op8tuned_opINS1_19backward_grad_tunedINS0_10mshadow_op12arccosh_gradEEEN7mshadow4half6half_tEE6UseOMPEmm
libmxnet.so:_ZN5mxnet2op8mxnet_op8tuned_opINS1_19backward_grad_tunedINS0_10mshadow_op12arccosh_gradEEEaE6UseOMPEmm
libmxnet.so:_ZN5mxnet2op8mxnet_op8tuned_opINS1_19backward_grad_tunedINS0_10mshadow_op12arccosh_gradEEEdE6UseOMPEmm
libmxnet.so:_ZN5mxnet2op8mxnet_op8tuned_opINS1_19backward_grad_tunedINS0_10mshadow_op12arccosh_gradEEEfE6UseOMPEmm
libmxnet.so:_ZN5mxnet2op8mxnet_op8tuned_opINS1_19backward_grad_tunedINS0_10mshadow_op12arccosh_gradEEEhE6UseOMPEmm
libmxnet.so:_ZN5mxnet2op8mxnet_op8tuned_opINS1_19backward_grad_tunedINS0_10mshadow_op12arccosh_gradEEEiE6UseOMPEmm
libmxnet.so:_ZN5mxnet2op8mxnet_op8tuned_opINS1_19backward_grad_tunedINS0_10mshadow_op12arccosh_gradEEElE6UseOMPEmm
libmxnet.so:_ZN5mxnet2op8mxnet_op8tuned_opINS1_19backward_grad_tunedINS0_10mshadow_op12arcsinh_gradEEEN7mshadow4half6half_tEE6UseOMPEmm
libmxnet.so:_ZN5mxnet2op8mxnet_op8tuned_opINS1_19backward_grad_tunedINS0_10mshadow_op12arcsinh_gradEEEaE6UseOMPEmm
libmxnet.so:_ZN5mxnet2op8mxnet_op8tuned_opINS1_19backward_grad_tunedINS0_10mshadow_op12arcsinh_gradEEEdE6UseOMPEmm
libmxnet.so:_ZN5mxnet2op8mxnet_op8tuned_opINS1_19backward_grad_tunedINS0_10mshadow_op12arcsinh_gradEEEfE6UseOMPEmm
libmxnet.so:_ZN5mxnet2op8mxnet_op8tuned_opINS1_19backward_grad_tunedINS0_10mshadow_op12arcsinh_gradEEEhE6UseOMPEmm
libmxnet.so:_ZN5mxnet2op8mxnet_op8tuned_opINS1_19backward_grad_tunedINS0_10mshadow_op12arcsinh_gradEEEiE6UseOMPEmm
libmxnet.so:_ZN5mxnet2op8mxnet_op8tuned_opINS1_19backward_grad_tunedINS0_10mshadow_op12arcsinh_gradEEElE6UseOMPEmm
libmxnet.so:_ZN5mxnet2op8mxnet_op8tuned_opINS1_19backward_grad_tunedINS0_10mshadow_op12arctanh_gradEEEN7mshadow4half6half_tEE6UseOMPEmm
libmxnet.so:_ZN5mxnet2op8mxnet_op8tuned_opINS1_19backward_grad_tunedINS0_10mshadow_op12arctanh_gradEEEaE6UseOMPEmm
libmxnet.so:_ZN5mxnet2op8mxnet_op8tuned_opINS1_19backward_grad_tunedINS0_10mshadow_op12arctanh_gradEEEdE6UseOMPEmm
libmxnet.so:_ZN5mxnet2op8mxnet_op8tuned_opINS1_19backward_grad_tunedINS0_10mshadow_op12arctanh_gradEEEfE6UseOMPEmm
libmxnet.so:_ZN5mxnet2op8mxnet_op8tuned_opINS1_19backward_grad_tunedINS0_10mshadow_op12arctanh_gradEEEhE6UseOMPEmm
libmxnet.so:_ZN5mxnet2op8mxnet_op8tuned_opINS1_19backward_grad_tunedINS0_10mshadow_op12arctanh_gradEEEiE6UseOMPEmm
libmxnet.so:_ZN5mxnet2op8mxnet_op8tuned_opINS1_19backward_grad_tunedINS0_10mshadow_op12arctanh_gradEEElE6UseOMPEmm
libmxnet.so:_ZN5mxnet2op8mxnet_op8tuned_opINS1_19backward_grad_tunedINS0_10mshadow_op12degrees_gradEEEN7mshadow4half6half_tEE6UseOMPEmm
libmxnet.so:_ZN5mxnet2op8mxnet_op8tuned_opINS1_19backward_grad_tunedINS0_10mshadow_op12degrees_gradEEEaE6UseOMPEmm
libmxnet.so:_ZN5mxnet2op8mxnet_op8tuned_opINS1_19backward_grad_tunedINS0_10mshadow_op12degrees_gradEEEdE6UseOMPEmm
libmxnet.so:_ZN5mxnet2op8mxnet_op8tuned_opINS1_19backward_grad_tunedINS0_10mshadow_op12degrees_gradEEEfE6UseOMPEmm
libmxnet.so:_ZN5mxnet2op8mxnet_op8tuned_opINS1_19backward_grad_tunedINS0_10mshadow_op12degrees_gradEEEhE6UseOMPEmm
libmxnet.so:_ZN5mxnet2op8mxnet_op8tuned_opINS1_19backward_grad_tunedINS0_10mshadow_op12degrees_gradEEEiE6UseOMPEmm
libmxnet.so:_ZN5mxnet2op8mxnet_op8tuned_opINS1_19backward_grad_tunedINS0_10mshadow_op12degrees_gradEEElE6UseOMPEmm
libmxnet.so:_ZN5mxnet2op8mxnet_op8tuned_opINS1_19backward_grad_tunedINS0_10mshadow_op12gammaln_gradEEEN7mshadow4half6half_tEE6UseOMPEmm
libmxnet.so:_ZN5mxnet2op8mxnet_op8tuned_opINS1_19backward_grad_tunedINS0_10mshadow_op12gammaln_gradEEEaE6UseOMPEmm
libmxnet.so:_ZN5mxnet2op8mxnet_op8tuned_opINS1_19backward_grad_tunedINS0_10mshadow_op12gammaln_gradEEEdE6UseOMPEmm
libmxnet.so:_ZN5mxnet2op8mxnet_op8tuned_opINS1_19backward_grad_tunedINS0_10mshadow_op12gammaln_gradEEEfE6UseOMPEmm
libmxnet.so:_ZN5mxnet2op8mxnet_op8tuned_opINS1_19backward_grad_tunedINS0_10mshadow_op12gammaln_gradEEEhE6UseOMPEmm
libmxnet.so:_ZN5mxnet2op8mxnet_op8tuned_opINS1_19backward_grad_tunedINS0_10mshadow_op12gammaln_gradEEEiE6UseOMPEmm
libmxnet.so:_ZN5mxnet2op8mxnet_op8tuned_opINS1_19backward_grad_tunedINS0_10mshadow_op12gammaln_gradEEElE6UseOMPEmm
libmxnet.so:_ZN5mxnet2op8mxnet_op8tuned_opINS1_19backward_grad_tunedINS0_10mshadow_op12radians_gradEEEN7mshadow4half6half_tEE6UseOMPEmm
libmxnet.so:_ZN5mxnet2op8mxnet_op8tuned_opINS1_19backward_grad_tunedINS0_10mshadow_op12radians_gradEEEaE6UseOMPEmm
libmxnet.so:_ZN5mxnet2op8mxnet_op8tuned_opINS1_19backward_grad_tunedINS0_10mshadow_op12radians_gradEEEdE6UseOMPEmm
libmxnet.so:_ZN5mxnet2op8mxnet_op8tuned_opINS1_19backward_grad_tunedINS0_10mshadow_op12radians_gradEEEfE6UseOMPEmm
libmxnet.so:_ZN5mxnet2op8mxnet_op8tuned_opINS1_19backward_grad_tunedINS0_10mshadow_op12radians_gradEEEhE6UseOMPEmm
libmxnet.so:_ZN5mxnet2op8mxnet_op8tuned_opINS1_19backward_grad_tunedINS0_10mshadow_op12radians_gradEEEiE6UseOMPEmm
libmxnet.so:_ZN5mxnet2op8mxnet_op8tuned_opINS1_19backward_grad_tunedINS0_10mshadow_op12radians_gradEEElE6UseOMPEmm
libmxnet.so:_ZN5mxnet2op8mxnet_op8tuned_opINS1_19backward_grad_tunedINS0_10mshadow_op12sigmoid_gradEEEN7mshadow4half6half_tEE6UseOMPEmm
libmxnet.so:_ZN5mxnet2op8mxnet_op8tuned_opINS1_19backward_grad_tunedINS0_10mshadow_op12sigmoid_gradEEEaE6UseOMPEmm
libmxnet.so:_ZN5mxnet2op8mxnet_op8tuned_opINS1_19backward_grad_tunedINS0_10mshadow_op12sigmoid_gradEEEdE6UseOMPEmm
libmxnet.so:_ZN5mxnet2op8mxnet_op8tuned_opINS1_19backward_grad_tunedINS0_10mshadow_op12sigmoid_gradEEEfE6UseOMPEmm
libmxnet.so:_ZN5mxnet2op8mxnet_op8tuned_opINS1_19backward_grad_tunedINS0_10mshadow_op12sigmoid_gradEEEhE6UseOMPEmm
libmxnet.so:_ZN5mxnet2op8mxnet_op8tuned_opINS1_19backward_grad_tunedINS0_10mshadow_op12sigmoid_gradEEEiE6UseOMPEmm
libmxnet.so:_ZN5mxnet2op8mxnet_op8tuned_opINS1_19backward_grad_tunedINS0_10mshadow_op12sigmoid_gradEEElE6UseOMPEmm
libmxnet.so:_ZN5mxnet2op8mxnet_op8tuned_opINS1_19backward_grad_tunedINS0_10mshadow_op13identity_gradEEEN7mshadow4half6half_tEE6UseOMPEmm
libmxnet.so:_ZN5mxnet2op8mxnet_op8tuned_opINS1_19backward_grad_tunedINS0_10mshadow_op13identity_gradEEEaE6UseOMPEmm
libmxnet.so:_ZN5mxnet2op8mxnet_op8tuned_opINS1_19backward_grad_tunedINS0_10mshadow_op13identity_gradEEEdE6UseOMPEmm
libmxnet.so:_ZN5mxnet2op8mxnet_op8tuned_opINS1_19backward_grad_tunedINS0_10mshadow_op13identity_gradEEEfE6UseOMPEmm
libmxnet.so:_ZN5mxnet2op8mxnet_op8tuned_opINS1_19backward_grad_tunedINS0_10mshadow_op13identity_gradEEEhE6UseOMPEmm
libmxnet.so:_ZN5mxnet2op8mxnet_op8tuned_opINS1_19backward_grad_tunedINS0_10mshadow_op13identity_gradEEEiE6UseOMPEmm
libmxnet.so:_ZN5mxnet2op8mxnet_op8tuned_opINS1_19backward_grad_tunedINS0_10mshadow_op13identity_gradEEElE6UseOMPEmm
libmxnet.so:_ZN5mxnet2op8mxnet_op8tuned_opINS1_19backward_grad_tunedINS0_10mshadow_op13softrelu_gradEEEN7mshadow4half6half_tEE6UseOMPEmm
libmxnet.so:_ZN5mxnet2op8mxnet_op8tuned_opINS1_19backward_grad_tunedINS0_10mshadow_op13softrelu_gradEEEaE6UseOMPEmm
libmxnet.so:_ZN5mxnet2op8mxnet_op8tuned_opINS1_19backward_grad_tunedINS0_10mshadow_op13softrelu_gradEEEdE6UseOMPEmm
libmxnet.so:_ZN5mxnet2op8mxnet_op8tuned_opINS1_19backward_grad_tunedINS0_10mshadow_op13softrelu_gradEEEfE6UseOMPEmm
libmxnet.so:_ZN5mxnet2op8mxnet_op8tuned_opINS1_19backward_grad_tunedINS0_10mshadow_op13softrelu_gradEEEhE6UseOMPEmm
libmxnet.so:_ZN5mxnet2op8mxnet_op8tuned_opINS1_19backward_grad_tunedINS0_10mshadow_op13softrelu_gradEEEiE6UseOMPEmm
libmxnet.so:_ZN5mxnet2op8mxnet_op8tuned_opINS1_19backward_grad_tunedINS0_10mshadow_op13softrelu_gradEEElE6UseOMPEmm
libmxnet.so:_ZN5mxnet2op8mxnet_op8tuned_opINS1_19backward_grad_tunedINS0_10mshadow_op13softsign_gradEEEN7mshadow4half6half_tEE6UseOMPEmm
libmxnet.so:_ZN5mxnet2op8mxnet_op8tuned_opINS1_19backward_grad_tunedINS0_10mshadow_op13softsign_gradEEEaE6UseOMPEmm
libmxnet.so:_ZN5mxnet2op8mxnet_op8tuned_opINS1_19backward_grad_tunedINS0_10mshadow_op13softsign_gradEEEdE6UseOMPEmm
libmxnet.so:_ZN5mxnet2op8mxnet_op8tuned_opINS1_19backward_grad_tunedINS0_10mshadow_op13softsign_gradEEEfE6UseOMPEmm
libmxnet.so:_ZN5mxnet2op8mxnet_op8tuned_opINS1_19backward_grad_tunedINS0_10mshadow_op13softsign_gradEEEhE6UseOMPEmm
libmxnet.so:_ZN5mxnet2op8mxnet_op8tuned_opINS1_19backward_grad_tunedINS0_10mshadow_op13softsign_gradEEEiE6UseOMPEmm
libmxnet.so:_ZN5mxnet2op8mxnet_op8tuned_opINS1_19backward_grad_tunedINS0_10mshadow_op13softsign_gradEEElE6UseOMPEmm
libmxnet.so:_ZN5mxnet2op8mxnet_op8tuned_opINS1_19backward_grad_tunedINS0_10mshadow_op14cube_root_gradEEEN7mshadow4half6half_tEE6UseOMPEmm
libmxnet.so:_ZN5mxnet2op8mxnet_op8tuned_opINS1_19backward_grad_tunedINS0_10mshadow_op14cube_root_gradEEEaE6UseOMPEmm
libmxnet.so:_ZN5mxnet2op8mxnet_op8tuned_opINS1_19backward_grad_tunedINS0_10mshadow_op14cube_root_gradEEEdE6UseOMPEmm
libmxnet.so:_ZN5mxnet2op8mxnet_op8tuned_opINS1_19backward_grad_tunedINS0_10mshadow_op14cube_root_gradEEEfE6UseOMPEmm
libmxnet.so:_ZN5mxnet2op8mxnet_op8tuned_opINS1_19backward_grad_tunedINS0_10mshadow_op14cube_root_gradEEEhE6UseOMPEmm
libmxnet.so:_ZN5mxnet2op8mxnet_op8tuned_opINS1_19backward_grad_tunedINS0_10mshadow_op14cube_root_gradEEEiE6UseOMPEmm
libmxnet.so:_ZN5mxnet2op8mxnet_op8tuned_opINS1_19backward_grad_tunedINS0_10mshadow_op14cube_root_gradEEElE6UseOMPEmm
libmxnet.so:_ZN5mxnet2op8mxnet_op8tuned_opINS1_19backward_grad_tunedINS0_10mshadow_op15hypot_grad_leftEEEN7mshadow4half6half_tEE6UseOMPEmm
libmxnet.so:_ZN5mxnet2op8mxnet_op8tuned_opINS1_19backward_grad_tunedINS0_10mshadow_op15hypot_grad_leftEEEaE6UseOMPEmm
libmxnet.so:_ZN5mxnet2op8mxnet_op8tuned_opINS1_19backward_grad_tunedINS0_10mshadow_op15hypot_grad_leftEEEdE6UseOMPEmm
libmxnet.so:_ZN5mxnet2op8mxnet_op8tuned_opINS1_19backward_grad_tunedINS0_10mshadow_op15hypot_grad_leftEEEfE6UseOMPEmm
libmxnet.so:_ZN5mxnet2op8mxnet_op8tuned_opINS1_19backward_grad_tunedINS0_10mshadow_op15hypot_grad_leftEEEhE6UseOMPEmm
libmxnet.so:_ZN5mxnet2op8mxnet_op8tuned_opINS1_19backward_grad_tunedINS0_10mshadow_op15hypot_grad_leftEEEiE6UseOMPEmm
libmxnet.so:_ZN5mxnet2op8mxnet_op8tuned_opINS1_19backward_grad_tunedINS0_10mshadow_op15hypot_grad_leftEEElE6UseOMPEmm
libmxnet.so:_ZN5mxnet2op8mxnet_op8tuned_opINS1_19backward_grad_tunedINS0_10mshadow_op15reciprocal_gradEEEN7mshadow4half6half_tEE6UseOMPEmm
libmxnet.so:_ZN5mxnet2op8mxnet_op8tuned_opINS1_19backward_grad_tunedINS0_10mshadow_op15reciprocal_gradEEEaE6UseOMPEmm
libmxnet.so:_ZN5mxnet2op8mxnet_op8tuned_opINS1_19backward_grad_tunedINS0_10mshadow_op15reciprocal_gradEEEdE6UseOMPEmm
libmxnet.so:_ZN5mxnet2op8mxnet_op8tuned_opINS1_19backward_grad_tunedINS0_10mshadow_op15reciprocal_gradEEEfE6UseOMPEmm
libmxnet.so:_ZN5mxnet2op8mxnet_op8tuned_opINS1_19backward_grad_tunedINS0_10mshadow_op15reciprocal_gradEEEhE6UseOMPEmm
libmxnet.so:_ZN5mxnet2op8mxnet_op8tuned_opINS1_19backward_grad_tunedINS0_10mshadow_op15reciprocal_gradEEEiE6UseOMPEmm
libmxnet.so:_ZN5mxnet2op8mxnet_op8tuned_opINS1_19backward_grad_tunedINS0_10mshadow_op15reciprocal_gradEEElE6UseOMPEmm
libmxnet.so:_ZN5mxnet2op8mxnet_op8tuned_opINS1_19backward_grad_tunedINS0_10mshadow_op16hypot_grad_rightEEEN7mshadow4half6half_tEE6UseOMPEmm
libmxnet.so:_ZN5mxnet2op8mxnet_op8tuned_opINS1_19backward_grad_tunedINS0_10mshadow_op16hypot_grad_rightEEEaE6UseOMPEmm
libmxnet.so:_ZN5mxnet2op8mxnet_op8tuned_opINS1_19backward_grad_tunedINS0_10mshadow_op16hypot_grad_rightEEEdE6UseOMPEmm
libmxnet.so:_ZN5mxnet2op8mxnet_op8tuned_opINS1_19backward_grad_tunedINS0_10mshadow_op16hypot_grad_rightEEEfE6UseOMPEmm
libmxnet.so:_ZN5mxnet2op8mxnet_op8tuned_opINS1_19backward_grad_tunedINS0_10mshadow_op16hypot_grad_rightEEEhE6UseOMPEmm
libmxnet.so:_ZN5mxnet2op8mxnet_op8tuned_opINS1_19backward_grad_tunedINS0_10mshadow_op16hypot_grad_rightEEEiE6UseOMPEmm
libmxnet.so:_ZN5mxnet2op8mxnet_op8tuned_opINS1_19backward_grad_tunedINS0_10mshadow_op16hypot_grad_rightEEElE6UseOMPEmm
libmxnet.so:_ZN5mxnet2op8mxnet_op8tuned_opINS1_19backward_grad_tunedINS0_10mshadow_op16square_root_gradEEEN7mshadow4half6half_tEE6UseOMPEmm
libmxnet.so:_ZN5mxnet2op8mxnet_op8tuned_opINS1_19backward_grad_tunedINS0_10mshadow_op16square_root_gradEEEaE6UseOMPEmm
libmxnet.so:_ZN5mxnet2op8mxnet_op8tuned_opINS1_19backward_grad_tunedINS0_10mshadow_op16square_root_gradEEEdE6UseOMPEmm
libmxnet.so:_ZN5mxnet2op8mxnet_op8tuned_opINS1_19backward_grad_tunedINS0_10mshadow_op16square_root_gradEEEfE6UseOMPEmm
libmxnet.so:_ZN5mxnet2op8mxnet_op8tuned_opINS1_19backward_grad_tunedINS0_10mshadow_op16square_root_gradEEEhE6UseOMPEmm
libmxnet.so:_ZN5mxnet2op8mxnet_op8tuned_opINS1_19backward_grad_tunedINS0_10mshadow_op16square_root_gradEEEiE6UseOMPEmm
libmxnet.so:_ZN5mxnet2op8mxnet_op8tuned_opINS1_19backward_grad_tunedINS0_10mshadow_op16square_root_gradEEElE6UseOMPEmm
libmxnet.so:_ZN5mxnet2op8mxnet_op8tuned_opINS1_19backward_grad_tunedINS0_10mshadow_op18smooth_l1_gradientEEEN7mshadow4half6half_tEE6UseOMPEmm
libmxnet.so:_ZN5mxnet2op8mxnet_op8tuned_opINS1_19backward_grad_tunedINS0_10mshadow_op18smooth_l1_gradientEEEaE6UseOMPEmm
libmxnet.so:_ZN5mxnet2op8mxnet_op8tuned_opINS1_19backward_grad_tunedINS0_10mshadow_op18smooth_l1_gradientEEEdE6UseOMPEmm
libmxnet.so:_ZN5mxnet2op8mxnet_op8tuned_opINS1_19backward_grad_tunedINS0_10mshadow_op18smooth_l1_gradientEEEfE6UseOMPEmm
libmxnet.so:_ZN5mxnet2op8mxnet_op8tuned_opINS1_19backward_grad_tunedINS0_10mshadow_op18smooth_l1_gradientEEEhE6UseOMPEmm
libmxnet.so:_ZN5mxnet2op8mxnet_op8tuned_opINS1_19backward_grad_tunedINS0_10mshadow_op18smooth_l1_gradientEEEiE6UseOMPEmm
libmxnet.so:_ZN5mxnet2op8mxnet_op8tuned_opINS1_19backward_grad_tunedINS0_10mshadow_op18smooth_l1_gradientEEElE6UseOMPEmm
libmxnet.so:_ZN5mxnet2op8mxnet_op8tuned_opINS1_19backward_grad_tunedINS0_10mshadow_op25reciprocal_cube_root_gradEEEN7mshadow4half6half_tEE6UseOMPEmm
libmxnet.so:_ZN5mxnet2op8mxnet_op8tuned_opINS1_19backward_grad_tunedINS0_10mshadow_op25reciprocal_cube_root_gradEEEaE6UseOMPEmm
libmxnet.so:_ZN5mxnet2op8mxnet_op8tuned_opINS1_19backward_grad_tunedINS0_10mshadow_op25reciprocal_cube_root_gradEEEdE6UseOMPEmm
libmxnet.so:_ZN5mxnet2op8mxnet_op8tuned_opINS1_19backward_grad_tunedINS0_10mshadow_op25reciprocal_cube_root_gradEEEfE6UseOMPEmm
libmxnet.so:_ZN5mxnet2op8mxnet_op8tuned_opINS1_19backward_grad_tunedINS0_10mshadow_op25reciprocal_cube_root_gradEEEhE6UseOMPEmm
libmxnet.so:_ZN5mxnet2op8mxnet_op8tuned_opINS1_19backward_grad_tunedINS0_10mshadow_op25reciprocal_cube_root_gradEEEiE6UseOMPEmm
libmxnet.so:_ZN5mxnet2op8mxnet_op8tuned_opINS1_19backward_grad_tunedINS0_10mshadow_op25reciprocal_cube_root_gradEEElE6UseOMPEmm
libmxnet.so:_ZN5mxnet2op8mxnet_op8tuned_opINS1_19backward_grad_tunedINS0_10mshadow_op27reciprocal_square_root_gradEEEN7mshadow4half6half_tEE6UseOMPEmm
libmxnet.so:_ZN5mxnet2op8mxnet_op8tuned_opINS1_19backward_grad_tunedINS0_10mshadow_op27reciprocal_square_root_gradEEEaE6UseOMPEmm
libmxnet.so:_ZN5mxnet2op8mxnet_op8tuned_opINS1_19backward_grad_tunedINS0_10mshadow_op27reciprocal_square_root_gradEEEdE6UseOMPEmm
libmxnet.so:_ZN5mxnet2op8mxnet_op8tuned_opINS1_19backward_grad_tunedINS0_10mshadow_op27reciprocal_square_root_gradEEEfE6UseOMPEmm
libmxnet.so:_ZN5mxnet2op8mxnet_op8tuned_opINS1_19backward_grad_tunedINS0_10mshadow_op27reciprocal_square_root_gradEEEhE6UseOMPEmm
libmxnet.so:_ZN5mxnet2op8mxnet_op8tuned_opINS1_19backward_grad_tunedINS0_10mshadow_op27reciprocal_square_root_gradEEEiE6UseOMPEmm
libmxnet.so:_ZN5mxnet2op8mxnet_op8tuned_opINS1_19backward_grad_tunedINS0_10mshadow_op27reciprocal_square_root_gradEEElE6UseOMPEmm
libmxnet.so:_ZN5mxnet2op8mxnet_op8tuned_opINS1_19backward_grad_tunedINS0_10mshadow_op2eqEEEN7mshadow4half6half_tEE6UseOMPEmm
libmxnet.so:_ZN5mxnet2op8mxnet_op8tuned_opINS1_19backward_grad_tunedINS0_10mshadow_op2eqEEEaE6UseOMPEmm
libmxnet.so:_ZN5mxnet2op8mxnet_op8tuned_opINS1_19backward_grad_tunedINS0_10mshadow_op2eqEEEdE6UseOMPEmm
libmxnet.so:_ZN5mxnet2op8mxnet_op8tuned_opINS1_19backward_grad_tunedINS0_10mshadow_op2eqEEEfE6UseOMPEmm
libmxnet.so:_ZN5mxnet2op8mxnet_op8tuned_opINS1_19backward_grad_tunedINS0_10mshadow_op2eqEEEhE6UseOMPEmm
libmxnet.so:_ZN5mxnet2op8mxnet_op8tuned_opINS1_19backward_grad_tunedINS0_10mshadow_op2eqEEEiE6UseOMPEmm
libmxnet.so:_ZN5mxnet2op8mxnet_op8tuned_opINS1_19backward_grad_tunedINS0_10mshadow_op2eqEEElE6UseOMPEmm
libmxnet.so:_ZN5mxnet2op8mxnet_op8tuned_opINS1_19backward_grad_tunedINS0_10mshadow_op2geEEEN7mshadow4half6half_tEE6UseOMPEmm
libmxnet.so:_ZN5mxnet2op8mxnet_op8tuned_opINS1_19backward_grad_tunedINS0_10mshadow_op2geEEEaE6UseOMPEmm
libmxnet.so:_ZN5mxnet2op8mxnet_op8tuned_opINS1_19backward_grad_tunedINS0_10mshadow_op2geEEEdE6UseOMPEmm
libmxnet.so:_ZN5mxnet2op8mxnet_op8tuned_opINS1_19backward_grad_tunedINS0_10mshadow_op2geEEEfE6UseOMPEmm
libmxnet.so:_ZN5mxnet2op8mxnet_op8tuned_opINS1_19backward_grad_tunedINS0_10mshadow_op2geEEEhE6UseOMPEmm
libmxnet.so:_ZN5mxnet2op8mxnet_op8tuned_opINS1_19backward_grad_tunedINS0_10mshadow_op2geEEEiE6UseOMPEmm
libmxnet.so:_ZN5mxnet2op8mxnet_op8tuned_opINS1_19backward_grad_tunedINS0_10mshadow_op2geEEElE6UseOMPEmm
libmxnet.so:_ZN5mxnet2op8mxnet_op8tuned_opINS1_19backward_grad_tunedINS0_10mshadow_op2gtEEEN7mshadow4half6half_tEE6UseOMPEmm
libmxnet.so:_ZN5mxnet2op8mxnet_op8tuned_opINS1_19backward_grad_tunedINS0_10mshadow_op2gtEEEaE6UseOMPEmm
libmxnet.so:_ZN5mxnet2op8mxnet_op8tuned_opINS1_19backward_grad_tunedINS0_10mshadow_op2gtEEEdE6UseOMPEmm
libmxnet.so:_ZN5mxnet2op8mxnet_op8tuned_opINS1_19backward_grad_tunedINS0_10mshadow_op2gtEEEfE6UseOMPEmm
libmxnet.so:_ZN5mxnet2op8mxnet_op8tuned_opINS1_19backward_grad_tunedINS0_10mshadow_op2gtEEEhE6UseOMPEmm
libmxnet.so:_ZN5mxnet2op8mxnet_op8tuned_opINS1_19backward_grad_tunedINS0_10mshadow_op2gtEEEiE6UseOMPEmm
libmxnet.so:_ZN5mxnet2op8mxnet_op8tuned_opINS1_19backward_grad_tunedINS0_10mshadow_op2gtEEElE6UseOMPEmm
libmxnet.so:_ZN5mxnet2op8mxnet_op8tuned_opINS1_19backward_grad_tunedINS0_10mshadow_op2leEEEN7mshadow4half6half_tEE6UseOMPEmm
libmxnet.so:_ZN5mxnet2op8mxnet_op8tuned_opINS1_19backward_grad_tunedINS0_10mshadow_op2leEEEaE6UseOMPEmm
libmxnet.so:_ZN5mxnet2op8mxnet_op8tuned_opINS1_19backward_grad_tunedINS0_10mshadow_op2leEEEdE6UseOMPEmm
libmxnet.so:_ZN5mxnet2op8mxnet_op8tuned_opINS1_19backward_grad_tunedINS0_10mshadow_op2leEEEfE6UseOMPEmm
libmxnet.so:_ZN5mxnet2op8mxnet_op8tuned_opINS1_19backward_grad_tunedINS0_10mshadow_op2leEEEhE6UseOMPEmm
libmxnet.so:_ZN5mxnet2op8mxnet_op8tuned_opINS1_19backward_grad_tunedINS0_10mshadow_op2leEEEiE6UseOMPEmm
libmxnet.so:_ZN5mxnet2op8mxnet_op8tuned_opINS1_19backward_grad_tunedINS0_10mshadow_op2leEEElE6UseOMPEmm
libmxnet.so:_ZN5mxnet2op8mxnet_op8tuned_opINS1_19backward_grad_tunedINS0_10mshadow_op2ltEEEN7mshadow4half6half_tEE6UseOMPEmm
libmxnet.so:_ZN5mxnet2op8mxnet_op8tuned_opINS1_19backward_grad_tunedINS0_10mshadow_op2ltEEEaE6UseOMPEmm
libmxnet.so:_ZN5mxnet2op8mxnet_op8tuned_opINS1_19backward_grad_tunedINS0_10mshadow_op2ltEEEdE6UseOMPEmm
libmxnet.so:_ZN5mxnet2op8mxnet_op8tuned_opINS1_19backward_grad_tunedINS0_10mshadow_op2ltEEEfE6UseOMPEmm
libmxnet.so:_ZN5mxnet2op8mxnet_op8tuned_opINS1_19backward_grad_tunedINS0_10mshadow_op2ltEEEhE6UseOMPEmm
libmxnet.so:_ZN5mxnet2op8mxnet_op8tuned_opINS1_19backward_grad_tunedINS0_10mshadow_op2ltEEEiE6UseOMPEmm
libmxnet.so:_ZN5mxnet2op8mxnet_op8tuned_opINS1_19backward_grad_tunedINS0_10mshadow_op2ltEEElE6UseOMPEmm
libmxnet.so:_ZN5mxnet2op8mxnet_op8tuned_opINS1_19backward_grad_tunedINS0_10mshadow_op2neEEEN7mshadow4half6half_tEE6UseOMPEmm
libmxnet.so:_ZN5mxnet2op8mxnet_op8tuned_opINS1_19backward_grad_tunedINS0_10mshadow_op2neEEEaE6UseOMPEmm
libmxnet.so:_ZN5mxnet2op8mxnet_op8tuned_opINS1_19backward_grad_tunedINS0_10mshadow_op2neEEEdE6UseOMPEmm
libmxnet.so:_ZN5mxnet2op8mxnet_op8tuned_opINS1_19backward_grad_tunedINS0_10mshadow_op2neEEEfE6UseOMPEmm
libmxnet.so:_ZN5mxnet2op8mxnet_op8tuned_opINS1_19backward_grad_tunedINS0_10mshadow_op2neEEEhE6UseOMPEmm
libmxnet.so:_ZN5mxnet2op8mxnet_op8tuned_opINS1_19backward_grad_tunedINS0_10mshadow_op2neEEEiE6UseOMPEmm
libmxnet.so:_ZN5mxnet2op8mxnet_op8tuned_opINS1_19backward_grad_tunedINS0_10mshadow_op2neEEElE6UseOMPEmm
libmxnet.so:_ZN5mxnet2op8mxnet_op8tuned_opINS1_19backward_grad_tunedINS0_10mshadow_op2ntEEEN7mshadow4half6half_tEE6UseOMPEmm
libmxnet.so:_ZN5mxnet2op8mxnet_op8tuned_opINS1_19backward_grad_tunedINS0_10mshadow_op2ntEEEaE6UseOMPEmm
libmxnet.so:_ZN5mxnet2op8mxnet_op8tuned_opINS1_19backward_grad_tunedINS0_10mshadow_op2ntEEEdE6UseOMPEmm
libmxnet.so:_ZN5mxnet2op8mxnet_op8tuned_opINS1_19backward_grad_tunedINS0_10mshadow_op2ntEEEfE6UseOMPEmm
libmxnet.so:_ZN5mxnet2op8mxnet_op8tuned_opINS1_19backward_grad_tunedINS0_10mshadow_op2ntEEEhE6UseOMPEmm
libmxnet.so:_ZN5mxnet2op8mxnet_op8tuned_opINS1_19backward_grad_tunedINS0_10mshadow_op2ntEEEiE6UseOMPEmm
libmxnet.so:_ZN5mxnet2op8mxnet_op8tuned_opINS1_19backward_grad_tunedINS0_10mshadow_op2ntEEElE6UseOMPEmm
libmxnet.so:_ZN5mxnet2op8mxnet_op8tuned_opINS1_19backward_grad_tunedINS0_10mshadow_op3divEEEN7mshadow4half6half_tEE6UseOMPEmm
libmxnet.so:_ZN5mxnet2op8mxnet_op8tuned_opINS1_19backward_grad_tunedINS0_10mshadow_op3divEEEaE6UseOMPEmm
libmxnet.so:_ZN5mxnet2op8mxnet_op8tuned_opINS1_19backward_grad_tunedINS0_10mshadow_op3divEEEdE6UseOMPEmm
libmxnet.so:_ZN5mxnet2op8mxnet_op8tuned_opINS1_19backward_grad_tunedINS0_10mshadow_op3divEEEfE6UseOMPEmm
libmxnet.so:_ZN5mxnet2op8mxnet_op8tuned_opINS1_19backward_grad_tunedINS0_10mshadow_op3divEEEhE6UseOMPEmm
libmxnet.so:_ZN5mxnet2op8mxnet_op8tuned_opINS1_19backward_grad_tunedINS0_10mshadow_op3divEEEiE6UseOMPEmm
libmxnet.so:_ZN5mxnet2op8mxnet_op8tuned_opINS1_19backward_grad_tunedINS0_10mshadow_op3divEEElE6UseOMPEmm
libmxnet.so:_ZN5mxnet2op8mxnet_op8tuned_opINS1_19backward_grad_tunedINS0_10mshadow_op3expEEEN7mshadow4half6half_tEE6UseOMPEmm
libmxnet.so:_ZN5mxnet2op8mxnet_op8tuned_opINS1_19backward_grad_tunedINS0_10mshadow_op3expEEEaE6UseOMPEmm
libmxnet.so:_ZN5mxnet2op8mxnet_op8tuned_opINS1_19backward_grad_tunedINS0_10mshadow_op3expEEEdE6UseOMPEmm
libmxnet.so:_ZN5mxnet2op8mxnet_op8tuned_opINS1_19backward_grad_tunedINS0_10mshadow_op3expEEEfE6UseOMPEmm
libmxnet.so:_ZN5mxnet2op8mxnet_op8tuned_opINS1_19backward_grad_tunedINS0_10mshadow_op3expEEEhE6UseOMPEmm
libmxnet.so:_ZN5mxnet2op8mxnet_op8tuned_opINS1_19backward_grad_tunedINS0_10mshadow_op3expEEEiE6UseOMPEmm
libmxnet.so:_ZN5mxnet2op8mxnet_op8tuned_opINS1_19backward_grad_tunedINS0_10mshadow_op3expEEElE6UseOMPEmm
libmxnet.so:_ZN5mxnet2op8mxnet_op8tuned_opINS1_19backward_grad_tunedINS0_10mshadow_op3mulEEEN7mshadow4half6half_tEE6UseOMPEmm
libmxnet.so:_ZN5mxnet2op8mxnet_op8tuned_opINS1_19backward_grad_tunedINS0_10mshadow_op3mulEEEaE6UseOMPEmm
libmxnet.so:_ZN5mxnet2op8mxnet_op8tuned_opINS1_19backward_grad_tunedINS0_10mshadow_op3mulEEEdE6UseOMPEmm
libmxnet.so:_ZN5mxnet2op8mxnet_op8tuned_opINS1_19backward_grad_tunedINS0_10mshadow_op3mulEEEfE6UseOMPEmm
libmxnet.so:_ZN5mxnet2op8mxnet_op8tuned_opINS1_19backward_grad_tunedINS0_10mshadow_op3mulEEEhE6UseOMPEmm
libmxnet.so:_ZN5mxnet2op8mxnet_op8tuned_opINS1_19backward_grad_tunedINS0_10mshadow_op3mulEEEiE6UseOMPEmm
libmxnet.so:_ZN5mxnet2op8mxnet_op8tuned_opINS1_19backward_grad_tunedINS0_10mshadow_op3mulEEElE6UseOMPEmm
libmxnet.so:_ZN5mxnet2op8mxnet_op8tuned_opINS1_19backward_grad_tunedINS0_10mshadow_op4clipEEEN7mshadow4half6half_tEE6UseOMPEmm
libmxnet.so:_ZN5mxnet2op8mxnet_op8tuned_opINS1_19backward_grad_tunedINS0_10mshadow_op4clipEEEaE6UseOMPEmm
libmxnet.so:_ZN5mxnet2op8mxnet_op8tuned_opINS1_19backward_grad_tunedINS0_10mshadow_op4clipEEEdE6UseOMPEmm
libmxnet.so:_ZN5mxnet2op8mxnet_op8tuned_opINS1_19backward_grad_tunedINS0_10mshadow_op4clipEEEfE6UseOMPEmm
libmxnet.so:_ZN5mxnet2op8mxnet_op8tuned_opINS1_19backward_grad_tunedINS0_10mshadow_op4clipEEEhE6UseOMPEmm
libmxnet.so:_ZN5mxnet2op8mxnet_op8tuned_opINS1_19backward_grad_tunedINS0_10mshadow_op4clipEEEiE6UseOMPEmm
libmxnet.so:_ZN5mxnet2op8mxnet_op8tuned_opINS1_19backward_grad_tunedINS0_10mshadow_op4clipEEElE6UseOMPEmm
libmxnet.so:_ZN5mxnet2op8mxnet_op8tuned_opINS1_19backward_grad_tunedINS0_10mshadow_op4leftEEEN7mshadow4half6half_tEE6UseOMPEmm
libmxnet.so:_ZN5mxnet2op8mxnet_op8tuned_opINS1_19backward_grad_tunedINS0_10mshadow_op4leftEEEaE6UseOMPEmm
libmxnet.so:_ZN5mxnet2op8mxnet_op8tuned_opINS1_19backward_grad_tunedINS0_10mshadow_op4leftEEEdE6UseOMPEmm
libmxnet.so:_ZN5mxnet2op8mxnet_op8tuned_opINS1_19backward_grad_tunedINS0_10mshadow_op4leftEEEfE6UseOMPEmm
libmxnet.so:_ZN5mxnet2op8mxnet_op8tuned_opINS1_19backward_grad_tunedINS0_10mshadow_op4leftEEEhE6UseOMPEmm
libmxnet.so:_ZN5mxnet2op8mxnet_op8tuned_opINS1_19backward_grad_tunedINS0_10mshadow_op4leftEEEiE6UseOMPEmm
libmxnet.so:_ZN5mxnet2op8mxnet_op8tuned_opINS1_19backward_grad_tunedINS0_10mshadow_op4leftEEElE6UseOMPEmm
libmxnet.so:_ZN5mxnet2op8mxnet_op8tuned_opINS1_19backward_grad_tunedINS0_10mshadow_op4plusEEEN7mshadow4half6half_tEE6UseOMPEmm
libmxnet.so:_ZN5mxnet2op8mxnet_op8tuned_opINS1_19backward_grad_tunedINS0_10mshadow_op4plusEEEaE6UseOMPEmm
libmxnet.so:_ZN5mxnet2op8mxnet_op8tuned_opINS1_19backward_grad_tunedINS0_10mshadow_op4plusEEEdE6UseOMPEmm
libmxnet.so:_ZN5mxnet2op8mxnet_op8tuned_opINS1_19backward_grad_tunedINS0_10mshadow_op4plusEEEfE6UseOMPEmm
libmxnet.so:_ZN5mxnet2op8mxnet_op8tuned_opINS1_19backward_grad_tunedINS0_10mshadow_op4plusEEEhE6UseOMPEmm
libmxnet.so:_ZN5mxnet2op8mxnet_op8tuned_opINS1_19backward_grad_tunedINS0_10mshadow_op4plusEEEiE6UseOMPEmm
libmxnet.so:_ZN5mxnet2op8mxnet_op8tuned_opINS1_19backward_grad_tunedINS0_10mshadow_op4plusEEElE6UseOMPEmm
libmxnet.so:_ZN5mxnet2op8mxnet_op8tuned_opINS1_19backward_grad_tunedINS0_10mshadow_op4rdivEEEN7mshadow4half6half_tEE6UseOMPEmm
libmxnet.so:_ZN5mxnet2op8mxnet_op8tuned_opINS1_19backward_grad_tunedINS0_10mshadow_op4rdivEEEaE6UseOMPEmm
libmxnet.so:_ZN5mxnet2op8mxnet_op8tuned_opINS1_19backward_grad_tunedINS0_10mshadow_op4rdivEEEdE6UseOMPEmm
libmxnet.so:_ZN5mxnet2op8mxnet_op8tuned_opINS1_19backward_grad_tunedINS0_10mshadow_op4rdivEEEfE6UseOMPEmm
libmxnet.so:_ZN5mxnet2op8mxnet_op8tuned_opINS1_19backward_grad_tunedINS0_10mshadow_op4rdivEEEhE6UseOMPEmm
libmxnet.so:_ZN5mxnet2op8mxnet_op8tuned_opINS1_19backward_grad_tunedINS0_10mshadow_op4rdivEEEiE6UseOMPEmm
libmxnet.so:_ZN5mxnet2op8mxnet_op8tuned_opINS1_19backward_grad_tunedINS0_10mshadow_op4rdivEEElE6UseOMPEmm
libmxnet.so:_ZN5mxnet2op8mxnet_op8tuned_opINS1_19backward_grad_tunedINS0_10mshadow_op4signEEEN7mshadow4half6half_tEE6UseOMPEmm
libmxnet.so:_ZN5mxnet2op8mxnet_op8tuned_opINS1_19backward_grad_tunedINS0_10mshadow_op4signEEEaE6UseOMPEmm
libmxnet.so:_ZN5mxnet2op8mxnet_op8tuned_opINS1_19backward_grad_tunedINS0_10mshadow_op4signEEEdE6UseOMPEmm
libmxnet.so:_ZN5mxnet2op8mxnet_op8tuned_opINS1_19backward_grad_tunedINS0_10mshadow_op4signEEEfE6UseOMPEmm
libmxnet.so:_ZN5mxnet2op8mxnet_op8tuned_opINS1_19backward_grad_tunedINS0_10mshadow_op4signEEEhE6UseOMPEmm
libmxnet.so:_ZN5mxnet2op8mxnet_op8tuned_opINS1_19backward_grad_tunedINS0_10mshadow_op4signEEEiE6UseOMPEmm
libmxnet.so:_ZN5mxnet2op8mxnet_op8tuned_opINS1_19backward_grad_tunedINS0_10mshadow_op4signEEElE6UseOMPEmm
libmxnet.so:_ZN5mxnet2op8mxnet_op8tuned_opINS1_19backward_grad_tunedINS0_10mshadow_op5minusEEEN7mshadow4half6half_tEE6UseOMPEmm
libmxnet.so:_ZN5mxnet2op8mxnet_op8tuned_opINS1_19backward_grad_tunedINS0_10mshadow_op5minusEEEaE6UseOMPEmm
libmxnet.so:_ZN5mxnet2op8mxnet_op8tuned_opINS1_19backward_grad_tunedINS0_10mshadow_op5minusEEEdE6UseOMPEmm
libmxnet.so:_ZN5mxnet2op8mxnet_op8tuned_opINS1_19backward_grad_tunedINS0_10mshadow_op5minusEEEfE6UseOMPEmm
libmxnet.so:_ZN5mxnet2op8mxnet_op8tuned_opINS1_19backward_grad_tunedINS0_10mshadow_op5minusEEEhE6UseOMPEmm
libmxnet.so:_ZN5mxnet2op8mxnet_op8tuned_opINS1_19backward_grad_tunedINS0_10mshadow_op5minusEEEiE6UseOMPEmm
libmxnet.so:_ZN5mxnet2op8mxnet_op8tuned_opINS1_19backward_grad_tunedINS0_10mshadow_op5minusEEElE6UseOMPEmm
libmxnet.so:_ZN5mxnet2op8mxnet_op8tuned_opINS1_19backward_grad_tunedINS0_10mshadow_op5rightEEEN7mshadow4half6half_tEE6UseOMPEmm
libmxnet.so:_ZN5mxnet2op8mxnet_op8tuned_opINS1_19backward_grad_tunedINS0_10mshadow_op5rightEEEaE6UseOMPEmm
libmxnet.so:_ZN5mxnet2op8mxnet_op8tuned_opINS1_19backward_grad_tunedINS0_10mshadow_op5rightEEEdE6UseOMPEmm
libmxnet.so:_ZN5mxnet2op8mxnet_op8tuned_opINS1_19backward_grad_tunedINS0_10mshadow_op5rightEEEfE6UseOMPEmm
libmxnet.so:_ZN5mxnet2op8mxnet_op8tuned_opINS1_19backward_grad_tunedINS0_10mshadow_op5rightEEEhE6UseOMPEmm
libmxnet.so:_ZN5mxnet2op8mxnet_op8tuned_opINS1_19backward_grad_tunedINS0_10mshadow_op5rightEEEiE6UseOMPEmm
libmxnet.so:_ZN5mxnet2op8mxnet_op8tuned_opINS1_19backward_grad_tunedINS0_10mshadow_op5rightEEElE6UseOMPEmm
libmxnet.so:_ZN5mxnet2op8mxnet_op8tuned_opINS1_19backward_grad_tunedINS0_10mshadow_op6rminusEEEN7mshadow4half6half_tEE6UseOMPEmm
libmxnet.so:_ZN5mxnet2op8mxnet_op8tuned_opINS1_19backward_grad_tunedINS0_10mshadow_op6rminusEEEaE6UseOMPEmm
libmxnet.so:_ZN5mxnet2op8mxnet_op8tuned_opINS1_19backward_grad_tunedINS0_10mshadow_op6rminusEEEdE6UseOMPEmm
libmxnet.so:_ZN5mxnet2op8mxnet_op8tuned_opINS1_19backward_grad_tunedINS0_10mshadow_op6rminusEEEfE6UseOMPEmm
libmxnet.so:_ZN5mxnet2op8mxnet_op8tuned_opINS1_19backward_grad_tunedINS0_10mshadow_op6rminusEEEhE6UseOMPEmm
libmxnet.so:_ZN5mxnet2op8mxnet_op8tuned_opINS1_19backward_grad_tunedINS0_10mshadow_op6rminusEEEiE6UseOMPEmm
libmxnet.so:_ZN5mxnet2op8mxnet_op8tuned_opINS1_19backward_grad_tunedINS0_10mshadow_op6rminusEEElE6UseOMPEmm
libmxnet.so:_ZN5mxnet2op8mxnet_op8tuned_opINS1_19backward_grad_tunedINS0_10mshadow_op8cos_gradEEEN7mshadow4half6half_tEE6UseOMPEmm
libmxnet.so:_ZN5mxnet2op8mxnet_op8tuned_opINS1_19backward_grad_tunedINS0_10mshadow_op8cos_gradEEEaE6UseOMPEmm
libmxnet.so:_ZN5mxnet2op8mxnet_op8tuned_opINS1_19backward_grad_tunedINS0_10mshadow_op8cos_gradEEEdE6UseOMPEmm
libmxnet.so:_ZN5mxnet2op8mxnet_op8tuned_opINS1_19backward_grad_tunedINS0_10mshadow_op8cos_gradEEEfE6UseOMPEmm
libmxnet.so:_ZN5mxnet2op8mxnet_op8tuned_opINS1_19backward_grad_tunedINS0_10mshadow_op8cos_gradEEEhE6UseOMPEmm
libmxnet.so:_ZN5mxnet2op8mxnet_op8tuned_opINS1_19backward_grad_tunedINS0_10mshadow_op8cos_gradEEEiE6UseOMPEmm
libmxnet.so:_ZN5mxnet2op8mxnet_op8tuned_opINS1_19backward_grad_tunedINS0_10mshadow_op8cos_gradEEElE6UseOMPEmm
libmxnet.so:_ZN5mxnet2op8mxnet_op8tuned_opINS1_19backward_grad_tunedINS0_10mshadow_op8div_gradEEEN7mshadow4half6half_tEE6UseOMPEmm
libmxnet.so:_ZN5mxnet2op8mxnet_op8tuned_opINS1_19backward_grad_tunedINS0_10mshadow_op8div_gradEEEaE6UseOMPEmm
libmxnet.so:_ZN5mxnet2op8mxnet_op8tuned_opINS1_19backward_grad_tunedINS0_10mshadow_op8div_gradEEEdE6UseOMPEmm
libmxnet.so:_ZN5mxnet2op8mxnet_op8tuned_opINS1_19backward_grad_tunedINS0_10mshadow_op8div_gradEEEfE6UseOMPEmm
libmxnet.so:_ZN5mxnet2op8mxnet_op8tuned_opINS1_19backward_grad_tunedINS0_10mshadow_op8div_gradEEEhE6UseOMPEmm
libmxnet.so:_ZN5mxnet2op8mxnet_op8tuned_opINS1_19backward_grad_tunedINS0_10mshadow_op8div_gradEEEiE6UseOMPEmm
libmxnet.so:_ZN5mxnet2op8mxnet_op8tuned_opINS1_19backward_grad_tunedINS0_10mshadow_op8div_gradEEElE6UseOMPEmm
libmxnet.so:_ZN5mxnet2op8mxnet_op8tuned_opINS1_19backward_grad_tunedINS0_10mshadow_op8elu_gradEEEN7mshadow4half6half_tEE6UseOMPEmm
libmxnet.so:_ZN5mxnet2op8mxnet_op8tuned_opINS1_19backward_grad_tunedINS0_10mshadow_op8elu_gradEEEaE6UseOMPEmm
libmxnet.so:_ZN5mxnet2op8mxnet_op8tuned_opINS1_19backward_grad_tunedINS0_10mshadow_op8elu_gradEEEdE6UseOMPEmm
libmxnet.so:_ZN5mxnet2op8mxnet_op8tuned_opINS1_19backward_grad_tunedINS0_10mshadow_op8elu_gradEEEfE6UseOMPEmm
libmxnet.so:_ZN5mxnet2op8mxnet_op8tuned_opINS1_19backward_grad_tunedINS0_10mshadow_op8elu_gradEEEhE6UseOMPEmm
libmxnet.so:_ZN5mxnet2op8mxnet_op8tuned_opINS1_19backward_grad_tunedINS0_10mshadow_op8elu_gradEEEiE6UseOMPEmm
libmxnet.so:_ZN5mxnet2op8mxnet_op8tuned_opINS1_19backward_grad_tunedINS0_10mshadow_op8elu_gradEEElE6UseOMPEmm
libmxnet.so:_ZN5mxnet2op8mxnet_op8tuned_opINS1_19backward_grad_tunedINS0_10mshadow_op8erf_gradEEEN7mshadow4half6half_tEE6UseOMPEmm
libmxnet.so:_ZN5mxnet2op8mxnet_op8tuned_opINS1_19backward_grad_tunedINS0_10mshadow_op8erf_gradEEEaE6UseOMPEmm
libmxnet.so:_ZN5mxnet2op8mxnet_op8tuned_opINS1_19backward_grad_tunedINS0_10mshadow_op8erf_gradEEEdE6UseOMPEmm
libmxnet.so:_ZN5mxnet2op8mxnet_op8tuned_opINS1_19backward_grad_tunedINS0_10mshadow_op8erf_gradEEEfE6UseOMPEmm
libmxnet.so:_ZN5mxnet2op8mxnet_op8tuned_opINS1_19backward_grad_tunedINS0_10mshadow_op8erf_gradEEEhE6UseOMPEmm
libmxnet.so:_ZN5mxnet2op8mxnet_op8tuned_opINS1_19backward_grad_tunedINS0_10mshadow_op8erf_gradEEEiE6UseOMPEmm
libmxnet.so:_ZN5mxnet2op8mxnet_op8tuned_opINS1_19backward_grad_tunedINS0_10mshadow_op8erf_gradEEElE6UseOMPEmm
libmxnet.so:_ZN5mxnet2op8mxnet_op8tuned_opINS1_19backward_grad_tunedINS0_10mshadow_op8log_gradEEEN7mshadow4half6half_tEE6UseOMPEmm
libmxnet.so:_ZN5mxnet2op8mxnet_op8tuned_opINS1_19backward_grad_tunedINS0_10mshadow_op8log_gradEEEaE6UseOMPEmm
libmxnet.so:_ZN5mxnet2op8mxnet_op8tuned_opINS1_19backward_grad_tunedINS0_10mshadow_op8log_gradEEEdE6UseOMPEmm
libmxnet.so:_ZN5mxnet2op8mxnet_op8tuned_opINS1_19backward_grad_tunedINS0_10mshadow_op8log_gradEEEfE6UseOMPEmm
libmxnet.so:_ZN5mxnet2op8mxnet_op8tuned_opINS1_19backward_grad_tunedINS0_10mshadow_op8log_gradEEEhE6UseOMPEmm
libmxnet.so:_ZN5mxnet2op8mxnet_op8tuned_opINS1_19backward_grad_tunedINS0_10mshadow_op8log_gradEEEiE6UseOMPEmm
libmxnet.so:_ZN5mxnet2op8mxnet_op8tuned_opINS1_19backward_grad_tunedINS0_10mshadow_op8log_gradEEElE6UseOMPEmm
libmxnet.so:_ZN5mxnet2op8mxnet_op8tuned_opINS1_19backward_grad_tunedINS0_10mshadow_op8mod_gradEEEN7mshadow4half6half_tEE6UseOMPEmm
libmxnet.so:_ZN5mxnet2op8mxnet_op8tuned_opINS1_19backward_grad_tunedINS0_10mshadow_op8mod_gradEEEaE6UseOMPEmm
libmxnet.so:_ZN5mxnet2op8mxnet_op8tuned_opINS1_19backward_grad_tunedINS0_10mshadow_op8mod_gradEEEdE6UseOMPEmm
libmxnet.so:_ZN5mxnet2op8mxnet_op8tuned_opINS1_19backward_grad_tunedINS0_10mshadow_op8mod_gradEEEfE6UseOMPEmm
libmxnet.so:_ZN5mxnet2op8mxnet_op8tuned_opINS1_19backward_grad_tunedINS0_10mshadow_op8mod_gradEEEhE6UseOMPEmm
libmxnet.so:_ZN5mxnet2op8mxnet_op8tuned_opINS1_19backward_grad_tunedINS0_10mshadow_op8mod_gradEEEiE6UseOMPEmm
libmxnet.so:_ZN5mxnet2op8mxnet_op8tuned_opINS1_19backward_grad_tunedINS0_10mshadow_op8mod_gradEEElE6UseOMPEmm
libmxnet.so:_ZN5mxnet2op8mxnet_op8tuned_opINS1_19backward_grad_tunedINS0_10mshadow_op8sin_gradEEEN7mshadow4half6half_tEE6UseOMPEmm
libmxnet.so:_ZN5mxnet2op8mxnet_op8tuned_opINS1_19backward_grad_tunedINS0_10mshadow_op8sin_gradEEEaE6UseOMPEmm
libmxnet.so:_ZN5mxnet2op8mxnet_op8tuned_opINS1_19backward_grad_tunedINS0_10mshadow_op8sin_gradEEEdE6UseOMPEmm
libmxnet.so:_ZN5mxnet2op8mxnet_op8tuned_opINS1_19backward_grad_tunedINS0_10mshadow_op8sin_gradEEEfE6UseOMPEmm
libmxnet.so:_ZN5mxnet2op8mxnet_op8tuned_opINS1_19backward_grad_tunedINS0_10mshadow_op8sin_gradEEEhE6UseOMPEmm
libmxnet.so:_ZN5mxnet2op8mxnet_op8tuned_opINS1_19backward_grad_tunedINS0_10mshadow_op8sin_gradEEEiE6UseOMPEmm
libmxnet.so:_ZN5mxnet2op8mxnet_op8tuned_opINS1_19backward_grad_tunedINS0_10mshadow_op8sin_gradEEElE6UseOMPEmm
libmxnet.so:_ZN5mxnet2op8mxnet_op8tuned_opINS1_19backward_grad_tunedINS0_10mshadow_op8tan_gradEEEN7mshadow4half6half_tEE6UseOMPEmm
libmxnet.so:_ZN5mxnet2op8mxnet_op8tuned_opINS1_19backward_grad_tunedINS0_10mshadow_op8tan_gradEEEaE6UseOMPEmm
libmxnet.so:_ZN5mxnet2op8mxnet_op8tuned_opINS1_19backward_grad_tunedINS0_10mshadow_op8tan_gradEEEdE6UseOMPEmm
libmxnet.so:_ZN5mxnet2op8mxnet_op8tuned_opINS1_19backward_grad_tunedINS0_10mshadow_op8tan_gradEEEfE6UseOMPEmm
libmxnet.so:_ZN5mxnet2op8mxnet_op8tuned_opINS1_19backward_grad_tunedINS0_10mshadow_op8tan_gradEEEhE6UseOMPEmm
libmxnet.so:_ZN5mxnet2op8mxnet_op8tuned_opINS1_19backward_grad_tunedINS0_10mshadow_op8tan_gradEEEiE6UseOMPEmm
libmxnet.so:_ZN5mxnet2op8mxnet_op8tuned_opINS1_19backward_grad_tunedINS0_10mshadow_op8tan_gradEEElE6UseOMPEmm
libmxnet.so:_ZN5mxnet2op8mxnet_op8tuned_opINS1_19backward_grad_tunedINS0_10mshadow_op9cosh_gradEEEN7mshadow4half6half_tEE6UseOMPEmm
libmxnet.so:_ZN5mxnet2op8mxnet_op8tuned_opINS1_19backward_grad_tunedINS0_10mshadow_op9cosh_gradEEEaE6UseOMPEmm
libmxnet.so:_ZN5mxnet2op8mxnet_op8tuned_opINS1_19backward_grad_tunedINS0_10mshadow_op9cosh_gradEEEdE6UseOMPEmm
libmxnet.so:_ZN5mxnet2op8mxnet_op8tuned_opINS1_19backward_grad_tunedINS0_10mshadow_op9cosh_gradEEEfE6UseOMPEmm
libmxnet.so:_ZN5mxnet2op8mxnet_op8tuned_opINS1_19backward_grad_tunedINS0_10mshadow_op9cosh_gradEEEhE6UseOMPEmm
libmxnet.so:_ZN5mxnet2op8mxnet_op8tuned_opINS1_19backward_grad_tunedINS0_10mshadow_op9cosh_gradEEEiE6UseOMPEmm
libmxnet.so:_ZN5mxnet2op8mxnet_op8tuned_opINS1_19backward_grad_tunedINS0_10mshadow_op9cosh_gradEEElE6UseOMPEmm
libmxnet.so:_ZN5mxnet2op8mxnet_op8tuned_opINS1_19backward_grad_tunedINS0_10mshadow_op9div_rgradEEEN7mshadow4half6half_tEE6UseOMPEmm
libmxnet.so:_ZN5mxnet2op8mxnet_op8tuned_opINS1_19backward_grad_tunedINS0_10mshadow_op9div_rgradEEEaE6UseOMPEmm
libmxnet.so:_ZN5mxnet2op8mxnet_op8tuned_opINS1_19backward_grad_tunedINS0_10mshadow_op9div_rgradEEEdE6UseOMPEmm
libmxnet.so:_ZN5mxnet2op8mxnet_op8tuned_opINS1_19backward_grad_tunedINS0_10mshadow_op9div_rgradEEEfE6UseOMPEmm
libmxnet.so:_ZN5mxnet2op8mxnet_op8tuned_opINS1_19backward_grad_tunedINS0_10mshadow_op9div_rgradEEEhE6UseOMPEmm
libmxnet.so:_ZN5mxnet2op8mxnet_op8tuned_opINS1_19backward_grad_tunedINS0_10mshadow_op9div_rgradEEEiE6UseOMPEmm
libmxnet.so:_ZN5mxnet2op8mxnet_op8tuned_opINS1_19backward_grad_tunedINS0_10mshadow_op9div_rgradEEElE6UseOMPEmm
libmxnet.so:_ZN5mxnet2op8mxnet_op8tuned_opINS1_19backward_grad_tunedINS0_10mshadow_op9gelu_gradEEEN7mshadow4half6half_tEE6UseOMPEmm
libmxnet.so:_ZN5mxnet2op8mxnet_op8tuned_opINS1_19backward_grad_tunedINS0_10mshadow_op9gelu_gradEEEaE6UseOMPEmm
libmxnet.so:_ZN5mxnet2op8mxnet_op8tuned_opINS1_19backward_grad_tunedINS0_10mshadow_op9gelu_gradEEEdE6UseOMPEmm
libmxnet.so:_ZN5mxnet2op8mxnet_op8tuned_opINS1_19backward_grad_tunedINS0_10mshadow_op9gelu_gradEEEfE6UseOMPEmm
libmxnet.so:_ZN5mxnet2op8mxnet_op8tuned_opINS1_19backward_grad_tunedINS0_10mshadow_op9gelu_gradEEEhE6UseOMPEmm
libmxnet.so:_ZN5mxnet2op8mxnet_op8tuned_opINS1_19backward_grad_tunedINS0_10mshadow_op9gelu_gradEEEiE6UseOMPEmm
libmxnet.so:_ZN5mxnet2op8mxnet_op8tuned_opINS1_19backward_grad_tunedINS0_10mshadow_op9gelu_gradEEElE6UseOMPEmm
libmxnet.so:_ZN5mxnet2op8mxnet_op8tuned_opINS1_19backward_grad_tunedINS0_10mshadow_op9log2_gradEEEN7mshadow4half6half_tEE6UseOMPEmm
libmxnet.so:_ZN5mxnet2op8mxnet_op8tuned_opINS1_19backward_grad_tunedINS0_10mshadow_op9log2_gradEEEaE6UseOMPEmm
libmxnet.so:_ZN5mxnet2op8mxnet_op8tuned_opINS1_19backward_grad_tunedINS0_10mshadow_op9log2_gradEEEdE6UseOMPEmm
libmxnet.so:_ZN5mxnet2op8mxnet_op8tuned_opINS1_19backward_grad_tunedINS0_10mshadow_op9log2_gradEEEfE6UseOMPEmm
libmxnet.so:_ZN5mxnet2op8mxnet_op8tuned_opINS1_19backward_grad_tunedINS0_10mshadow_op9log2_gradEEEhE6UseOMPEmm
libmxnet.so:_ZN5mxnet2op8mxnet_op8tuned_opINS1_19backward_grad_tunedINS0_10mshadow_op9log2_gradEEEiE6UseOMPEmm
libmxnet.so:_ZN5mxnet2op8mxnet_op8tuned_opINS1_19backward_grad_tunedINS0_10mshadow_op9log2_gradEEElE6UseOMPEmm
libmxnet.so:_ZN5mxnet2op8mxnet_op8tuned_opINS1_19backward_grad_tunedINS0_10mshadow_op9mod_rgradEEEN7mshadow4half6half_tEE6UseOMPEmm
libmxnet.so:_ZN5mxnet2op8mxnet_op8tuned_opINS1_19backward_grad_tunedINS0_10mshadow_op9mod_rgradEEEaE6UseOMPEmm
libmxnet.so:_ZN5mxnet2op8mxnet_op8tuned_opINS1_19backward_grad_tunedINS0_10mshadow_op9mod_rgradEEEdE6UseOMPEmm
libmxnet.so:_ZN5mxnet2op8mxnet_op8tuned_opINS1_19backward_grad_tunedINS0_10mshadow_op9mod_rgradEEEfE6UseOMPEmm
libmxnet.so:_ZN5mxnet2op8mxnet_op8tuned_opINS1_19backward_grad_tunedINS0_10mshadow_op9mod_rgradEEEhE6UseOMPEmm
libmxnet.so:_ZN5mxnet2op8mxnet_op8tuned_opINS1_19backward_grad_tunedINS0_10mshadow_op9mod_rgradEEEiE6UseOMPEmm
libmxnet.so:_ZN5mxnet2op8mxnet_op8tuned_opINS1_19backward_grad_tunedINS0_10mshadow_op9mod_rgradEEElE6UseOMPEmm
libmxnet.so:_ZN5mxnet2op8mxnet_op8tuned_opINS1_19backward_grad_tunedINS0_10mshadow_op9rdiv_gradEEEN7mshadow4half6half_tEE6UseOMPEmm
libmxnet.so:_ZN5mxnet2op8mxnet_op8tuned_opINS1_19backward_grad_tunedINS0_10mshadow_op9rdiv_gradEEEaE6UseOMPEmm
libmxnet.so:_ZN5mxnet2op8mxnet_op8tuned_opINS1_19backward_grad_tunedINS0_10mshadow_op9rdiv_gradEEEdE6UseOMPEmm
libmxnet.so:_ZN5mxnet2op8mxnet_op8tuned_opINS1_19backward_grad_tunedINS0_10mshadow_op9rdiv_gradEEEfE6UseOMPEmm
libmxnet.so:_ZN5mxnet2op8mxnet_op8tuned_opINS1_19backward_grad_tunedINS0_10mshadow_op9rdiv_gradEEEhE6UseOMPEmm
libmxnet.so:_ZN5mxnet2op8mxnet_op8tuned_opINS1_19backward_grad_tunedINS0_10mshadow_op9rdiv_gradEEEiE6UseOMPEmm
libmxnet.so:_ZN5mxnet2op8mxnet_op8tuned_opINS1_19backward_grad_tunedINS0_10mshadow_op9rdiv_gradEEElE6UseOMPEmm
libmxnet.so:_ZN5mxnet2op8mxnet_op8tuned_opINS1_19backward_grad_tunedINS0_10mshadow_op9relu_gradEEEN7mshadow4half6half_tEE6UseOMPEmm
libmxnet.so:_ZN5mxnet2op8mxnet_op8tuned_opINS1_19backward_grad_tunedINS0_10mshadow_op9relu_gradEEEaE6UseOMPEmm
libmxnet.so:_ZN5mxnet2op8mxnet_op8tuned_opINS1_19backward_grad_tunedINS0_10mshadow_op9relu_gradEEEdE6UseOMPEmm
libmxnet.so:_ZN5mxnet2op8mxnet_op8tuned_opINS1_19backward_grad_tunedINS0_10mshadow_op9relu_gradEEEfE6UseOMPEmm
libmxnet.so:_ZN5mxnet2op8mxnet_op8tuned_opINS1_19backward_grad_tunedINS0_10mshadow_op9relu_gradEEEhE6UseOMPEmm
libmxnet.so:_ZN5mxnet2op8mxnet_op8tuned_opINS1_19backward_grad_tunedINS0_10mshadow_op9relu_gradEEEiE6UseOMPEmm
libmxnet.so:_ZN5mxnet2op8mxnet_op8tuned_opINS1_19backward_grad_tunedINS0_10mshadow_op9relu_gradEEElE6UseOMPEmm
libmxnet.so:_ZN5mxnet2op8mxnet_op8tuned_opINS1_19backward_grad_tunedINS0_10mshadow_op9rmod_gradEEEN7mshadow4half6half_tEE6UseOMPEmm
libmxnet.so:_ZN5mxnet2op8mxnet_op8tuned_opINS1_19backward_grad_tunedINS0_10mshadow_op9rmod_gradEEEaE6UseOMPEmm
libmxnet.so:_ZN5mxnet2op8mxnet_op8tuned_opINS1_19backward_grad_tunedINS0_10mshadow_op9rmod_gradEEEdE6UseOMPEmm
libmxnet.so:_ZN5mxnet2op8mxnet_op8tuned_opINS1_19backward_grad_tunedINS0_10mshadow_op9rmod_gradEEEfE6UseOMPEmm
libmxnet.so:_ZN5mxnet2op8mxnet_op8tuned_opINS1_19backward_grad_tunedINS0_10mshadow_op9rmod_gradEEEhE6UseOMPEmm
libmxnet.so:_ZN5mxnet2op8mxnet_op8tuned_opINS1_19backward_grad_tunedINS0_10mshadow_op9rmod_gradEEEiE6UseOMPEmm
libmxnet.so:_ZN5mxnet2op8mxnet_op8tuned_opINS1_19backward_grad_tunedINS0_10mshadow_op9rmod_gradEEElE6UseOMPEmm
libmxnet.so:_ZN5mxnet2op8mxnet_op8tuned_opINS1_19backward_grad_tunedINS0_10mshadow_op9selu_gradEEEN7mshadow4half6half_tEE6UseOMPEmm
libmxnet.so:_ZN5mxnet2op8mxnet_op8tuned_opINS1_19backward_grad_tunedINS0_10mshadow_op9selu_gradEEEaE6UseOMPEmm
libmxnet.so:_ZN5mxnet2op8mxnet_op8tuned_opINS1_19backward_grad_tunedINS0_10mshadow_op9selu_gradEEEdE6UseOMPEmm
libmxnet.so:_ZN5mxnet2op8mxnet_op8tuned_opINS1_19backward_grad_tunedINS0_10mshadow_op9selu_gradEEEfE6UseOMPEmm
libmxnet.so:_ZN5mxnet2op8mxnet_op8tuned_opINS1_19backward_grad_tunedINS0_10mshadow_op9selu_gradEEEhE6UseOMPEmm
libmxnet.so:_ZN5mxnet2op8mxnet_op8tuned_opINS1_19backward_grad_tunedINS0_10mshadow_op9selu_gradEEEiE6UseOMPEmm
libmxnet.so:_ZN5mxnet2op8mxnet_op8tuned_opINS1_19backward_grad_tunedINS0_10mshadow_op9selu_gradEEElE6UseOMPEmm
libmxnet.so:_ZN5mxnet2op8mxnet_op8tuned_opINS1_19backward_grad_tunedINS0_10mshadow_op9sign_gradEEEN7mshadow4half6half_tEE6UseOMPEmm
libmxnet.so:_ZN5mxnet2op8mxnet_op8tuned_opINS1_19backward_grad_tunedINS0_10mshadow_op9sign_gradEEEaE6UseOMPEmm
libmxnet.so:_ZN5mxnet2op8mxnet_op8tuned_opINS1_19backward_grad_tunedINS0_10mshadow_op9sign_gradEEEdE6UseOMPEmm
libmxnet.so:_ZN5mxnet2op8mxnet_op8tuned_opINS1_19backward_grad_tunedINS0_10mshadow_op9sign_gradEEEfE6UseOMPEmm
libmxnet.so:_ZN5mxnet2op8mxnet_op8tuned_opINS1_19backward_grad_tunedINS0_10mshadow_op9sign_gradEEEhE6UseOMPEmm
libmxnet.so:_ZN5mxnet2op8mxnet_op8tuned_opINS1_19backward_grad_tunedINS0_10mshadow_op9sign_gradEEEiE6UseOMPEmm
libmxnet.so:_ZN5mxnet2op8mxnet_op8tuned_opINS1_19backward_grad_tunedINS0_10mshadow_op9sign_gradEEElE6UseOMPEmm
libmxnet.so:_ZN5mxnet2op8mxnet_op8tuned_opINS1_19backward_grad_tunedINS0_10mshadow_op9sinh_gradEEEN7mshadow4half6half_tEE6UseOMPEmm
libmxnet.so:_ZN5mxnet2op8mxnet_op8tuned_opINS1_19backward_grad_tunedINS0_10mshadow_op9sinh_gradEEEaE6UseOMPEmm
libmxnet.so:_ZN5mxnet2op8mxnet_op8tuned_opINS1_19backward_grad_tunedINS0_10mshadow_op9sinh_gradEEEdE6UseOMPEmm
libmxnet.so:_ZN5mxnet2op8mxnet_op8tuned_opINS1_19backward_grad_tunedINS0_10mshadow_op9sinh_gradEEEfE6UseOMPEmm
libmxnet.so:_ZN5mxnet2op8mxnet_op8tuned_opINS1_19backward_grad_tunedINS0_10mshadow_op9sinh_gradEEEhE6UseOMPEmm
libmxnet.so:_ZN5mxnet2op8mxnet_op8tuned_opINS1_19backward_grad_tunedINS0_10mshadow_op9sinh_gradEEEiE6UseOMPEmm
libmxnet.so:_ZN5mxnet2op8mxnet_op8tuned_opINS1_19backward_grad_tunedINS0_10mshadow_op9sinh_gradEEElE6UseOMPEmm
libmxnet.so:_ZN5mxnet2op8mxnet_op8tuned_opINS1_19backward_grad_tunedINS0_10mshadow_op9tanh_gradEEEN7mshadow4half6half_tEE6UseOMPEmm
libmxnet.so:_ZN5mxnet2op8mxnet_op8tuned_opINS1_19backward_grad_tunedINS0_10mshadow_op9tanh_gradEEEaE6UseOMPEmm
libmxnet.so:_ZN5mxnet2op8mxnet_op8tuned_opINS1_19backward_grad_tunedINS0_10mshadow_op9tanh_gradEEEdE6UseOMPEmm
libmxnet.so:_ZN5mxnet2op8mxnet_op8tuned_opINS1_19backward_grad_tunedINS0_10mshadow_op9tanh_gradEEEfE6UseOMPEmm
libmxnet.so:_ZN5mxnet2op8mxnet_op8tuned_opINS1_19backward_grad_tunedINS0_10mshadow_op9tanh_gradEEEhE6UseOMPEmm
libmxnet.so:_ZN5mxnet2op8mxnet_op8tuned_opINS1_19backward_grad_tunedINS0_10mshadow_op9tanh_gradEEEiE6UseOMPEmm
libmxnet.so:_ZN5mxnet2op8mxnet_op8tuned_opINS1_19backward_grad_tunedINS0_10mshadow_op9tanh_gradEEElE6UseOMPEmm
libmxnet.so:_ZN5mxnet2op8mxnet_op8tuned_opINS1_19backward_grad_tunedINS0_10mshadow_op9xelu_gradEEEN7mshadow4half6half_tEE6UseOMPEmm
libmxnet.so:_ZN5mxnet2op8mxnet_op8tuned_opINS1_19backward_grad_tunedINS0_10mshadow_op9xelu_gradEEEaE6UseOMPEmm
libmxnet.so:_ZN5mxnet2op8mxnet_op8tuned_opINS1_19backward_grad_tunedINS0_10mshadow_op9xelu_gradEEEdE6UseOMPEmm
libmxnet.so:_ZN5mxnet2op8mxnet_op8tuned_opINS1_19backward_grad_tunedINS0_10mshadow_op9xelu_gradEEEfE6UseOMPEmm
libmxnet.so:_ZN5mxnet2op8mxnet_op8tuned_opINS1_19backward_grad_tunedINS0_10mshadow_op9xelu_gradEEEhE6UseOMPEmm
libmxnet.so:_ZN5mxnet2op8mxnet_op8tuned_opINS1_19backward_grad_tunedINS0_10mshadow_op9xelu_gradEEEiE6UseOMPEmm
libmxnet.so:_ZN5mxnet2op8mxnet_op8tuned_opINS1_19backward_grad_tunedINS0_10mshadow_op9xelu_gradEEElE6UseOMPEmm
libmxnet.so:_ZN5mxnet2op9AdamParam11__MANAGER__Ev
libmxnet.so:_ZN5mxnet2op9CastParam11__MANAGER__Ev
libmxnet.so:_ZN5mxnet2op9ClipGrad_IN7mshadow3cpuEEEvRKN4nnvm9NodeAttrsERKNS_9OpContextERKSt6vectorINS_5TBlobESaISC_EERKSB_INS_9OpReqTypeESaISH_EESG_
libmxnet.so:_ZN5mxnet2op9ClipParam11__MANAGER__Ev
libmxnet.so:_ZN5mxnet2op9CondParam11__MANAGER__Ev
libmxnet.so:_ZN5mxnet2op9CropParam11__MANAGER__Ev
libmxnet.so:_ZN5mxnet2op9DiagParam11__MANAGER__Ev
libmxnet.so:_ZN5mxnet2op9FTMLParam11__MANAGER__Ev
libmxnet.so:_ZN5mxnet2op9FtrlParam11__MANAGER__Ev
libmxnet.so:_ZN5mxnet2op9IFFTParam11__MANAGER__Ev
libmxnet.so:_ZN5mxnet2op9InitShapeINS0_11InitOpParamEEEbRKN4nnvm9NodeAttrsEPSt6vectorINS_6TShapeESaIS8_EESB_
libmxnet.so:_ZN5mxnet2op9InitShapeINS0_16SampleGammaParamEEEbRKN4nnvm9NodeAttrsEPSt6vectorINS_6TShapeESaIS8_EESB_
libmxnet.so:_ZN5mxnet2op9InitShapeINS0_17SampleNormalParamEEEbRKN4nnvm9NodeAttrsEPSt6vectorINS_6TShapeESaIS8_EESB_
libmxnet.so:_ZN5mxnet2op9InitShapeINS0_18SamplePoissonParamEEEbRKN4nnvm9NodeAttrsEPSt6vectorINS_6TShapeESaIS8_EESB_
libmxnet.so:_ZN5mxnet2op9InitShapeINS0_18SampleRandIntParamEEEbRKN4nnvm9NodeAttrsEPSt6vectorINS_6TShapeESaIS8_EESB_
libmxnet.so:_ZN5mxnet2op9InitShapeINS0_18SampleUniformParamEEEbRKN4nnvm9NodeAttrsEPSt6vectorINS_6TShapeESaIS8_EESB_
libmxnet.so:_ZN5mxnet2op9InitShapeINS0_21InitOpWithScalarParamEEEbRKN4nnvm9NodeAttrsEPSt6vectorINS_6TShapeESaIS8_EESB_
libmxnet.so:_ZN5mxnet2op9InitShapeINS0_22SampleExponentialParamEEEbRKN4nnvm9NodeAttrsEPSt6vectorINS_6TShapeESaIS8_EESB_
libmxnet.so:_ZN5mxnet2op9InitShapeINS0_22SampleNegBinomialParamEEEbRKN4nnvm9NodeAttrsEPSt6vectorINS_6TShapeESaIS8_EESB_
libmxnet.so:_ZN5mxnet2op9InitShapeINS0_23InitOpWithoutDTypeParamEEEbRKN4nnvm9NodeAttrsEPSt6vectorINS_6TShapeESaIS8_EESB_
libmxnet.so:_ZN5mxnet2op9InitShapeINS0_25SampleGenNegBinomialParamEEEbRKN4nnvm9NodeAttrsEPSt6vectorINS_6TShapeESaIS8_EESB_
libmxnet.so:_ZN5mxnet2op9LoopState7ForwardEiRKSt6vectorINS_7NDArrayESaIS3_EERKS2_INS_9OpReqTypeESaIS8_EES7_b
libmxnet.so:_ZN5mxnet2op9LoopState8BackwardEiRKSt6vectorINS_7NDArrayESaIS3_EERKS2_INS_9OpReqTypeESaIS8_EES7_
libmxnet.so:_ZN5mxnet2op9LoopStateC1ERKN4nnvm6SymbolE
libmxnet.so:_ZN5mxnet2op9LoopStateC2ERKN4nnvm6SymbolE
libmxnet.so:_ZN5mxnet2op9NDArrayOpIN7mshadow3cpuEE7get_ctxEv
libmxnet.so:_ZN5mxnet2op9NormParam11__MANAGER__Ev
libmxnet.so:_ZN5mxnet2op9NormShapeERKN4nnvm9NodeAttrsEPSt6vectorINS_6TShapeESaIS6_EES9_
libmxnet.so:_ZN5mxnet2op9PickParam11__MANAGER__Ev
libmxnet.so:_ZN5mxnet2op9SGDUpdateIN7mshadow3cpuEEEvRKN4nnvm9NodeAttrsERKNS_9OpContextERKSt6vectorINS_5TBlobESaISC_EERKSB_INS_9OpReqTypeESaISH_EESG_
libmxnet.so:_ZN5mxnet2op9SampleEx_IN7mshadow3cpuENS0_16SampleGammaParamEEEvRKN4nnvm9NodeAttrsERKNS_9OpContextERKSt6vectorINS_7NDArrayESaISD_EERKSC_INS_9OpReqTypeESaISI_EESH_
libmxnet.so:_ZN5mxnet2op9SampleEx_IN7mshadow3cpuENS0_17SampleNormalParamEEEvRKN4nnvm9NodeAttrsERKNS_9OpContextERKSt6vectorINS_7NDArrayESaISD_EERKSC_INS_9OpReqTypeESaISI_EESH_
libmxnet.so:_ZN5mxnet2op9SampleEx_IN7mshadow3cpuENS0_18SamplePoissonParamEEEvRKN4nnvm9NodeAttrsERKNS_9OpContextERKSt6vectorINS_7NDArrayESaISD_EERKSC_INS_9OpReqTypeESaISI_EESH_
libmxnet.so:_ZN5mxnet2op9SampleEx_IN7mshadow3cpuENS0_18SampleRandIntParamEEEvRKN4nnvm9NodeAttrsERKNS_9OpContextERKSt6vectorINS_7NDArrayESaISD_EERKSC_INS_9OpReqTypeESaISI_EESH_
libmxnet.so:_ZN5mxnet2op9SampleEx_IN7mshadow3cpuENS0_18SampleUniformParamEEEvRKN4nnvm9NodeAttrsERKNS_9OpContextERKSt6vectorINS_7NDArrayESaISD_EERKSC_INS_9OpReqTypeESaISI_EESH_
libmxnet.so:_ZN5mxnet2op9SampleEx_IN7mshadow3cpuENS0_20SampleGammaLikeParamEEEvRKN4nnvm9NodeAttrsERKNS_9OpContextERKSt6vectorINS_7NDArrayESaISD_EERKSC_INS_9OpReqTypeESaISI_EESH_
libmxnet.so:_ZN5mxnet2op9SampleEx_IN7mshadow3cpuENS0_21SampleNormalLikeParamEEEvRKN4nnvm9NodeAttrsERKNS_9OpContextERKSt6vectorINS_7NDArrayESaISD_EERKSC_INS_9OpReqTypeESaISI_EESH_
libmxnet.so:_ZN5mxnet2op9SampleEx_IN7mshadow3cpuENS0_22SampleExponentialParamEEEvRKN4nnvm9NodeAttrsERKNS_9OpContextERKSt6vectorINS_7NDArrayESaISD_EERKSC_INS_9OpReqTypeESaISI_EESH_
libmxnet.so:_ZN5mxnet2op9SampleEx_IN7mshadow3cpuENS0_22SampleNegBinomialParamEEEvRKN4nnvm9NodeAttrsERKNS_9OpContextERKSt6vectorINS_7NDArrayESaISD_EERKSC_INS_9OpReqTypeESaISI_EESH_
libmxnet.so:_ZN5mxnet2op9SampleEx_IN7mshadow3cpuENS0_22SamplePoissonLikeParamEEEvRKN4nnvm9NodeAttrsERKNS_9OpContextERKSt6vectorINS_7NDArrayESaISD_EERKSC_INS_9OpReqTypeESaISI_EESH_
libmxnet.so:_ZN5mxnet2op9SampleEx_IN7mshadow3cpuENS0_22SampleUniformLikeParamEEEvRKN4nnvm9NodeAttrsERKNS_9OpContextERKSt6vectorINS_7NDArrayESaISD_EERKSC_INS_9OpReqTypeESaISI_EESH_
libmxnet.so:_ZN5mxnet2op9SampleEx_IN7mshadow3cpuENS0_25SampleGenNegBinomialParamEEEvRKN4nnvm9NodeAttrsERKNS_9OpContextERKSt6vectorINS_7NDArrayESaISD_EERKSC_INS_9OpReqTypeESaISI_EESH_
libmxnet.so:_ZN5mxnet2op9SampleEx_IN7mshadow3cpuENS0_26SampleExponentialLikeParamEEEvRKN4nnvm9NodeAttrsERKNS_9OpContextERKSt6vectorINS_7NDArrayESaISD_EERKSC_INS_9OpReqTypeESaISI_EESH_
libmxnet.so:_ZN5mxnet2op9SampleEx_IN7mshadow3cpuENS0_26SampleNegBinomialLikeParamEEEvRKN4nnvm9NodeAttrsERKNS_9OpContextERKSt6vectorINS_7NDArrayESaISD_EERKSC_INS_9OpReqTypeESaISI_EESH_
libmxnet.so:_ZN5mxnet2op9SampleEx_IN7mshadow3cpuENS0_29SampleGenNegBinomialLikeParamEEEvRKN4nnvm9NodeAttrsERKNS_9OpContextERKSt6vectorINS_7NDArrayESaISD_EERKSC_INS_9OpReqTypeESaISI_EESH_
libmxnet.so:_ZN5mxnet2op9SliceAxisIN7mshadow3cpuEEEvRKN4nnvm9NodeAttrsERKNS_9OpContextERKSt6vectorINS_5TBlobESaISC_EERKSB_INS_9OpReqTypeESaISH_EESG_
libmxnet.so:_ZN5mxnet2op9SortParam11__MANAGER__Ev
libmxnet.so:_ZN5mxnet2op9SortShapeERKN4nnvm9NodeAttrsEPSt6vectorINS_6TShapeESaIS6_EES9_
libmxnet.so:_ZN5mxnet2op9TakeParam11__MANAGER__Ev
libmxnet.so:_ZN5mxnet2op9TileParam11__MANAGER__Ev
libmxnet.so:_ZN5mxnet2op9TopKParam11__MANAGER__Ev
libmxnet.so:_ZN5mxnet2op9TopKShapeERKN4nnvm9NodeAttrsEPSt6vectorINS_6TShapeESaIS6_EES9_
libmxnet.so:_ZN5mxnet2op9TransposeIN7mshadow3cpuEEEvRKN4nnvm9NodeAttrsERKNS_9OpContextERKSt6vectorINS_5TBlobESaISC_EERKSB_INS_9OpReqTypeESaISH_EESG_
libmxnet.so:_ZN5mxnet4exec10InferShapeEON4nnvm5GraphEOSt6vectorINS_6TShapeESaIS5_EERKNSt7__cxx1112basic_stringIcSt11char_traitsIcESaIcEEE
libmxnet.so:_ZN5mxnet4exec13AttachOpExecsEN4nnvm5GraphE
libmxnet.so:_ZN5mxnet4exec13CreateOpExecsERKN4nnvm5GraphEPSt6vectorISt10shared_ptrINS0_10OpExecutorEESaIS8_EEPS5_INS_10OpStatePtrESaISC_EEm
libmxnet.so:_ZN5mxnet4exec13GraphExecutor10BulkOpSegsEmmm
libmxnet.so:_ZN5mxnet4exec13GraphExecutor10InitOpSegsEv
libmxnet.so:_ZN5mxnet4exec13GraphExecutor13InitArgumentsERKN4nnvm12IndexedGraphERKSt6vectorINS_6TShapeESaIS7_EERKS6_IiSaIiEESF_RKS6_INS_7ContextESaISG_EESK_SK_RKS6_INS_9OpReqTypeESaISL_EEPS6_INS_7NDArrayESaISQ_EEST_ST_
libmxnet.so:_ZN5mxnet4exec13GraphExecutor13InitArgumentsERKN4nnvm12IndexedGraphERKSt6vectorINS_6TShapeESaIS7_EERKS6_IiSaIiEESF_RKS6_INS_7ContextESaISG_EESK_SK_RKS6_INS_9OpReqTypeESaISL_EERKSt13unordered_setINSt7__cxx1112basic_stringIcSt11char_traitsIcESaIcEEESt4hashISW_ESt8equal_toISW_ESaISW_EEPKNS_8ExecutorEPSt13unordered_mapISW_NS_7NDArrayESY_S10_SaISt4pairIKSW_S19_EEEPS6_IS19_SaIS19_EES1I_S1I_
libmxnet.so:_ZN5mxnet4exec13GraphExecutor13InitCachedOpsEv
libmxnet.so:_ZN5mxnet4exec13GraphExecutor13InitFullGraphEN4nnvm6SymbolERKSt6vectorINS_9OpReqTypeESaIS5_EE
libmxnet.so:_ZN5mxnet4exec13GraphExecutor14PartialForwardEbiPi
libmxnet.so:_ZN5mxnet4exec13GraphExecutor15FinishInitGraphEN4nnvm6SymbolENS2_5GraphEPNS_8ExecutorERKSt13unordered_mapINS2_9NodeEntryENS_7NDArrayENS2_13NodeEntryHashENS2_14NodeEntryEqualESaISt4pairIKS8_S9_EEE
libmxnet.so:_ZN5mxnet4exec13GraphExecutor18CreateCachedSegOprEmm
libmxnet.so:_ZN5mxnet4exec13GraphExecutor18GetOptimizedSymbolEv
libmxnet.so:_ZN5mxnet4exec13GraphExecutor18SetMonitorCallbackERKSt8functionIFvPKcPvEEb
libmxnet.so:_ZN5mxnet4exec13GraphExecutor19InitDataEntryMemoryEPSt6vectorINS_7NDArrayESaIS3_EE
libmxnet.so:_ZN5mxnet4exec13GraphExecutor23ExecuteMonInputCallbackEm
libmxnet.so:_ZN5mxnet4exec13GraphExecutor24ExecuteMonOutputCallbackEm
libmxnet.so:_ZN5mxnet4exec13GraphExecutor4InitEN4nnvm6SymbolERKNS_7ContextERKSt3mapINSt7__cxx1112basic_stringIcSt11char_traitsIcESaIcEEES4_St4lessISD_ESaISt4pairIKSD_S4_EEERKSt6vectorINS_7NDArrayESaISO_EESS_RKSN_INS_9OpReqTypeESaIST_EESS_PNS_8ExecutorERKSt13unordered_mapINS2_9NodeEntryESO_NS2_13NodeEntryHashENS2_14NodeEntryEqualESaISG_IKS11_SO_EEE
libmxnet.so:_ZN5mxnet4exec13GraphExecutor4InitEN4nnvm6SymbolERKNS_7ContextERKSt3mapINSt7__cxx1112basic_stringIcSt11char_traitsIcESaIcEEES4_St4lessISD_ESaISt4pairIKSD_S4_EEERKSt6vectorIS4_SaIS4_EESR_SR_RKSt13unordered_mapISD_NS_6TShapeESt4hashISD_ESt8equal_toISD_ESaISG_ISH_ST_EEERKSS_ISD_iSV_SX_SaISG_ISH_iEEES17_RKSN_INS_9OpReqTypeESaIS18_EERKSt13unordered_setISD_SV_SX_SaISD_EEPSN_INS_7NDArrayESaIS1I_EES1L_S1L_PSS_ISD_S1I_SV_SX_SaISG_ISH_S1I_EEEPNS_8ExecutorERKSS_INS2_9NodeEntryES1I_NS2_13NodeEntryHashENS2_14NodeEntryEqualESaISG_IKS1S_S1I_EEE
libmxnet.so:_ZN5mxnet4exec13GraphExecutor6RunOpsEbmm
libmxnet.so:_ZN5mxnet4exec13GraphExecutor7ForwardEb
libmxnet.so:_ZN5mxnet4exec13GraphExecutor7ReshapeEbbRKNS_7ContextERKSt3mapINSt7__cxx1112basic_stringIcSt11char_traitsIcESaIcEEES2_St4lessISB_ESaISt4pairIKSB_S2_EEERKSt13unordered_mapISB_NS_6TShapeESt4hashISB_ESt8equal_toISB_ESaISE_ISF_SM_EEEPSt6vectorINS_7NDArrayESaISX_EES10_S10_
libmxnet.so:_ZN5mxnet4exec13GraphExecutor8BackwardERKSt6vectorINS_7NDArrayESaIS3_EEb
libmxnet.so:_ZN5mxnet4exec13GraphExecutor9InitGraphEN4nnvm6SymbolERKNS_7ContextERKSt3mapINSt7__cxx1112basic_stringIcSt11char_traitsIcESaIcEEES4_St4lessISD_ESaISt4pairIKSD_S4_EEERKSt6vectorIS4_SaIS4_EESR_SR_RKSN_INS_9OpReqTypeESaISS_EE
libmxnet.so:_ZN5mxnet4exec13GraphExecutorC1Ev
libmxnet.so:_ZN5mxnet4exec13GraphExecutorC2Ev
libmxnet.so:_ZN5mxnet4exec13GraphExecutorD0Ev
libmxnet.so:_ZN5mxnet4exec13GraphExecutorD1Ev
libmxnet.so:_ZN5mxnet4exec13GraphExecutorD2Ev
libmxnet.so:_ZN5mxnet4exec16ApplyOpInferAttrIiSt8functionIFbRKN4nnvm9NodeAttrsEiPNS_12DispatchModeEPSt6vectorIiSaIiEESC_EEEEbRKNS3_5GraphERKT0_S6_jPS9_IT_SaISL_EESO_S8_
libmxnet.so:_ZN5mxnet4exec16InferStorageTypeEON4nnvm5GraphEOSt6vectorIiSaIiEERKNSt7__cxx1112basic_stringIcSt11char_traitsIcESaIcEEE
libmxnet.so:_ZN5mxnet4exec17AggregateGradientEOSt6vectorIN4nnvm9NodeEntryESaIS3_EE
libmxnet.so:_ZN5mxnet4exec17AttachOpResourcesERKN4nnvm5GraphE
libmxnet.so:_ZN5mxnet4exec17AttachOpResourcesERKN4nnvm5GraphERKSt6vectorISt10shared_ptrINS0_10OpExecutorEESaIS8_EEmm
libmxnet.so:_ZN5mxnet4exec18DetectInplaceAddToEN4nnvm5GraphE
libmxnet.so:_ZN5mxnet4exec9InferTypeEON4nnvm5GraphEOSt6vectorIiSaIiEERKNSt7__cxx1112basic_stringIcSt11char_traitsIcESaIcEEE
libmxnet.so:_ZN5mxnet6ClipOpERKNS_7NDArrayERKfS4_PS0_
libmxnet.so:_ZN5mxnet6Engine13_GetSharedRefEv
libmxnet.so:_ZN5mxnet6Engine3GetEv
libmxnet.so:_ZN5mxnet6common18CheckFormatWrapperIN7mshadow3cpuEEEvRKNS_10RunContextERKNS_7NDArrayERKNS_5TBlobEb
libmxnet.so:_ZN5mxnet6common18DefaultStorageTypeERKN4nnvm9NodeAttrsEiPNS_12DispatchModeEPSt6vectorIiSaIiEESA_
libmxnet.so:_ZN5mxnet6common18ParallelSortHelperIN9__gnu_cxx17__normal_iteratorIPlSt6vectorIlSaIlEEEESt4lessIlEEEvT_mmRKT0_
libmxnet.so:_ZN5mxnet6common18ParallelSortHelperIPlSt4lessIlEEEvT_mmRKT0_
libmxnet.so:_ZN5mxnet6common19CastStorageDispatchIN7mshadow3cpuEEEvRKNS_9OpContextERKNS_7NDArrayES9_
libmxnet.so:_ZN5mxnet6common31SparseRetainOpForwardRspWrapperIN7mshadow3cpuEEEvPNS2_6StreamIT_EERKNS_7NDArrayERKNS_5TBlobENS_9OpReqTypeEPS8_
libmxnet.so:_ZN5mxnet6common8SameTypeERKN4nnvm9NodeAttrsEPSt6vectorIiSaIiEES8_
libmxnet.so:_ZN5mxnet6engine11NaiveEngine10OnCompleteEPNS_6EngineEPvPKN4dmlc5ErrorE
libmxnet.so:_ZN5mxnet6engine11ThreadedVarC1EPNS0_17VersionedVarBlockE
libmxnet.so:_ZN5mxnet6engine11ThreadedVarC2EPNS0_17VersionedVarBlockE
libmxnet.so:_ZN5mxnet6engine14ThreadedEngine10WaitForAllEv
libmxnet.so:_ZN5mxnet6engine14ThreadedEngine10WaitForVarEPNS0_3VarE
libmxnet.so:_ZN5mxnet6engine14ThreadedEngine11NewOperatorESt8functionIFvNS_10RunContextENS0_18CallbackOnCompleteEEERKSt6vectorIPNS0_3VarESaIS9_EESD_NS_10FnPropertyEPKcb
libmxnet.so:_ZN5mxnet6engine14ThreadedEngine11NewVariableEv
libmxnet.so:_ZN5mxnet6engine14ThreadedEngine14CheckDuplicateERKSt6vectorIPNS0_3VarESaIS4_EES8_
libmxnet.so:_ZN5mxnet6engine14ThreadedEngine14DeleteOperatorEPNS0_3OprE
libmxnet.so:_ZN5mxnet6engine14ThreadedEngine14DeleteVariableESt8functionIFvNS_10RunContextEEENS_7ContextEPNS0_3VarE
libmxnet.so:_ZN5mxnet6engine14ThreadedEngine16OnCompleteStaticEPNS_6EngineEPvPKN4dmlc5ErrorE
libmxnet.so:_ZN5mxnet6engine14ThreadedEngine4PushEPNS0_3OprENS_7ContextEib
libmxnet.so:_ZN5mxnet6engine14ThreadedEngine5ThrowEPNS0_3VarE
libmxnet.so:_ZN5mxnet6engine14ThreadedEngine8PushSyncESt8functionIFvNS_10RunContextEEENS_7ContextERKSt6vectorIPNS0_3VarESaIS9_EESD_NS_10FnPropertyEiPKc
libmxnet.so:_ZN5mxnet6engine14ThreadedEngine9PushAsyncESt8functionIFvNS_10RunContextENS0_18CallbackOnCompleteEEENS_7ContextERKSt6vectorIPNS0_3VarESaISA_EESE_NS_10FnPropertyEiPKcb
libmxnet.so:_ZN5mxnet6engine17CreateNaiveEngineEv
libmxnet.so:_ZN5mxnet6engine26CreateThreadedEnginePooledEv
libmxnet.so:_ZN5mxnet6engine29CreateThreadedEnginePerDeviceEv
libmxnet.so:_ZN5mxnet6engine6OpenMP17set_reserve_coresEi
libmxnet.so:_ZN5mxnet6engine6OpenMP22on_start_worker_threadEb
libmxnet.so:_ZN5mxnet6engine6OpenMP3GetEv
libmxnet.so:_ZN5mxnet6engine6OpenMPC1Ev
libmxnet.so:_ZN5mxnet6engine6OpenMPC2Ev
libmxnet.so:_ZN5mxnet7KVStore6CreateEPKc
libmxnet.so:_ZN5mxnet7NDArray10FromDLPackEPK15DLManagedTensorb
libmxnet.so:_ZN5mxnet7NDArray10LegacyLoadEPN4dmlc6StreamEj
libmxnet.so:_ZN5mxnet7NDArray12AtWithRecordEi
libmxnet.so:_ZN5mxnet7NDArray15SliceWithRecordEii
libmxnet.so:_ZN5mxnet7NDArray17ReshapeWithRecordERKNS_6TShapeE
libmxnet.so:_ZN5mxnet7NDArray19SyncCopyFromNDArrayERKS0_ii
libmxnet.so:_ZN5mxnet7NDArray4LoadEPN4dmlc6StreamE
libmxnet.so:_ZN5mxnet7NDArray4LoadEPN4dmlc6StreamEPSt6vectorIS0_SaIS0_EEPS4_INSt7__cxx1112basic_stringIcSt11char_traitsIcESaIcEEESaISD_EE
libmxnet.so:_ZN5mxnet7NDArray4SaveEPN4dmlc6StreamERKSt6vectorIS0_SaIS0_EERKS4_INSt7__cxx1112basic_stringIcSt11char_traitsIcESaIcEEESaISE_EE
libmxnet.so:_ZN5mxnet7NDArray5Chunk17CheckAndAllocDataERKNS_6TShapeEi
libmxnet.so:_ZN5mxnet7NDArray5ChunkD1Ev
libmxnet.so:_ZN5mxnet7NDArray5ChunkD2Ev
libmxnet.so:_ZN5mxnet7NDArrayC1ENS_18NDArrayStorageTypeERKNS_6TShapeENS_7ContextEbiSt6vectorIiSaIiEES6_IS2_SaIS2_EES2_
libmxnet.so:_ZN5mxnet7NDArrayC2ENS_18NDArrayStorageTypeERKNS_6TShapeENS_7ContextEbiSt6vectorIiSaIiEES6_IS2_SaIS2_EES2_
libmxnet.so:_ZN5mxnet7NDArrayaSEf
libmxnet.so:_ZN5mxnet7NDArraydVERKS0_
libmxnet.so:_ZN5mxnet7NDArraydVERKf
libmxnet.so:_ZN5mxnet7NDArraymIERKS0_
libmxnet.so:_ZN5mxnet7NDArraymIERKf
libmxnet.so:_ZN5mxnet7NDArraymLERKS0_
libmxnet.so:_ZN5mxnet7NDArraymLERKf
libmxnet.so:_ZN5mxnet7NDArraypLERKS0_
libmxnet.so:_ZN5mxnet7NDArraypLERKf
libmxnet.so:_ZN5mxnet7Storage13_GetSharedRefEv
libmxnet.so:_ZN5mxnet7Storage3GetEv
libmxnet.so:_ZN5mxnet7kvstore10UniqueImplIN7mshadow3cpuEEEvPNS_7NDArrayEPNS2_6StreamIT_EERKS4_
libmxnet.so:_ZN5mxnet7kvstore19GradientCompression10DequantizeERKNS_7NDArrayEPS2_i
libmxnet.so:_ZN5mxnet7kvstore19GradientCompression12DecodeParamsERKNSt7__cxx1112basic_stringIcSt11char_traitsIcESaIcEEE
libmxnet.so:_ZN5mxnet7kvstore19GradientCompression12EncodeParamsB5cxx11Ev
libmxnet.so:_ZN5mxnet7kvstore19GradientCompression12get_type_strB5cxx11Ev
libmxnet.so:_ZN5mxnet7kvstore19GradientCompression17GetCompressedSizeEl
libmxnet.so:_ZN5mxnet7kvstore19GradientCompression20GetCompressionFactorEv
libmxnet.so:_ZN5mxnet7kvstore19GradientCompression20SetTwoBitCompressionEf
libmxnet.so:_ZN5mxnet7kvstore19GradientCompression8QuantizeERKNS_7NDArrayEPS2_S5_i
libmxnet.so:_ZN5mxnet7kvstore19GradientCompression8get_typeEv
libmxnet.so:_ZN5mxnet7kvstore19GradientCompression9SetParamsERKSt6vectorISt4pairINSt7__cxx1112basic_stringIcSt11char_traitsIcESaIcEEES9_ESaISA_EE
libmxnet.so:_ZN5mxnet7kvstore19GradientCompressionC1Ev
libmxnet.so:_ZN5mxnet7kvstore19GradientCompressionC2Ev
libmxnet.so:_ZN5mxnet7kvstore24GradientCompressionParam11__MANAGER__Ev
libmxnet.so:_ZN5mxnet7ndarray10EvalRandomIN7mshadow3cpuENS0_17GammaDistributionEEEvRKfS6_RKNS_8ResourceEPNS_5TBlobENS_10RunContextE
libmxnet.so:_ZN5mxnet7ndarray10EvalRandomIN7mshadow3cpuENS0_19PoissonDistributionEEEvRKfS6_RKNS_8ResourceEPNS_5TBlobENS_10RunContextE
libmxnet.so:_ZN5mxnet7ndarray10EvalRandomIN7mshadow3cpuENS0_19UniformDistributionEEEvRKfS6_RKNS_8ResourceEPNS_5TBlobENS_10RunContextE
libmxnet.so:_ZN5mxnet7ndarray10EvalRandomIN7mshadow3cpuENS0_20GaussianDistributionEEEvRKfS6_RKNS_8ResourceEPNS_5TBlobENS_10RunContextE
libmxnet.so:_ZN5mxnet7ndarray10EvalRandomIN7mshadow3cpuENS0_23ExponentialDistributionEEEvRKfS6_RKNS_8ResourceEPNS_5TBlobENS_10RunContextE
libmxnet.so:_ZN5mxnet7ndarray10EvalRandomIN7mshadow3cpuENS0_23NegBinomialDistributionEEEvRKfS6_RKNS_8ResourceEPNS_5TBlobENS_10RunContextE
libmxnet.so:_ZN5mxnet7ndarray10EvalRandomIN7mshadow3cpuENS0_26GenNegBinomialDistributionEEEvRKfS6_RKNS_8ResourceEPNS_5TBlobENS_10RunContextE
libmxnet.so:_ZN5mxnet7ndarray13EvalBroadcastIN7mshadow3cpuEEEvRKNS_5TBlobEPS4_iNS_10RunContextE
libmxnet.so:_ZN5mxnet7ndarray14ElementwiseSumIN7mshadow3cpuEEEvPNS2_6StreamIT_EERKNS_8ResourceERKSt6vectorINS_7NDArrayESaISC_EEPSC_
libmxnet.so:_ZN5mxnet7ndarray14ElementwiseSumIN7mshadow3cpuEEEvSt6vectorINS_5TBlobESaIS5_EEPS5_NS_10RunContextE
libmxnet.so:_ZN5mxnet7ndarray17ElementwiseSumRspEPN7mshadow6StreamINS1_3cpuEEERKNS_8ResourceERKSt6vectorINS_7NDArrayESaISA_EEPSA_
libmxnet.so:_ZN5mxnet7ndarray18BinaryOpKernelImplINS0_3DivEN7mshadow3cpuEEEvPNS3_6StreamIT0_EERKNS_5TBlobESB_PS9_
libmxnet.so:_ZN5mxnet7ndarray18BinaryOpKernelImplINS0_3MulEN7mshadow3cpuEEEvPNS3_6StreamIT0_EERKNS_5TBlobESB_PS9_
libmxnet.so:_ZN5mxnet7ndarray18BinaryOpKernelImplINS0_4PlusEN7mshadow3cpuEEEvPNS3_6StreamIT0_EERKNS_5TBlobESB_PS9_
libmxnet.so:_ZN5mxnet7ndarray18BinaryOpKernelImplINS0_5MinusEN7mshadow3cpuEEEvPNS3_6StreamIT0_EERKNS_5TBlobESB_PS9_
libmxnet.so:_ZN5mxnet7ndarray27ElementwiseSumDnsCsrDnsImplEPN7mshadow6StreamINS1_3cpuEEERKNS_8ResourceERKSt6vectorINS_7NDArrayESaISA_EEPSA_
libmxnet.so:_ZN5mxnet7ndarray29ElementwiseSumContainsDnsImplEPN7mshadow6StreamINS1_3cpuEEERKNS_8ResourceERKSt6vectorINS_7NDArrayESaISA_EEPSA_
libmxnet.so:_ZN5mxnet7ndarray4CopyIN7mshadow3cpuES3_EEvRKNS_5TBlobEPS4_NS_7ContextES8_NS_10RunContextE
libmxnet.so:_ZN5mxnet7ndarray4EvalIN7mshadow3cpuEEEvPNS2_6StreamIT_EEfRKNS_7NDArrayE
libmxnet.so:_ZN5mxnet7ndarray4EvalIN7mshadow3cpuEEEvRKfPNS_5TBlobENS_10RunContextE
libmxnet.so:_ZN5mxnet7ndarray4EvalIN7mshadow3cpuENS0_12OneHotEncodeEEEvRKNS_5TBlobES7_PS5_NS_10RunContextE
libmxnet.so:_ZN5mxnet7ndarray4EvalIN7mshadow3cpuENS0_14MatFillRowElemEEEvRKNS_5TBlobES7_S7_PS5_NS_10RunContextE
libmxnet.so:_ZN5mxnet7ndarray4EvalIN7mshadow3cpuENS0_16MatChooseRowElemEEEvRKNS_5TBlobES7_PS5_NS_10RunContextE
libmxnet.so:_ZN5mxnet7ndarray4EvalIN7mshadow3cpuENS0_3DivELb0EEEvRKNS_5TBlobERKfPS5_NS_10RunContextE
libmxnet.so:_ZN5mxnet7ndarray4EvalIN7mshadow3cpuENS0_3DivELb1EEEvRKNS_5TBlobERKfPS5_NS_10RunContextE
libmxnet.so:_ZN5mxnet7ndarray4EvalIN7mshadow3cpuENS0_3MulELb0EEEvRKNS_5TBlobERKfPS5_NS_10RunContextE
libmxnet.so:_ZN5mxnet7ndarray4EvalIN7mshadow3cpuENS0_3MulELb1EEEvRKNS_5TBlobERKfPS5_NS_10RunContextE
libmxnet.so:_ZN5mxnet7ndarray4EvalIN7mshadow3cpuENS0_4PlusELb0EEEvRKNS_5TBlobERKfPS5_NS_10RunContextE
libmxnet.so:_ZN5mxnet7ndarray4EvalIN7mshadow3cpuENS0_4PlusELb1EEEvRKNS_5TBlobERKfPS5_NS_10RunContextE
libmxnet.so:_ZN5mxnet7ndarray4EvalIN7mshadow3cpuENS0_5MinusELb0EEEvRKNS_5TBlobERKfPS5_NS_10RunContextE
libmxnet.so:_ZN5mxnet7ndarray4EvalIN7mshadow3cpuENS0_5MinusELb1EEEvRKNS_5TBlobERKfPS5_NS_10RunContextE
libmxnet.so:_ZN5mxnet7ndarray8EvalClipIN7mshadow3cpuEEEvRKNS_5TBlobERKfS8_PS4_NS_10RunContextE
libmxnet.so:_ZN5mxnet7storage23CPUSharedStorageManager5AllocEPNS_7Storage6HandleE
libmxnet.so:_ZN5mxnet7storage23CPUSharedStorageManager8FreeImplERKNS_7Storage6HandleE
libmxnet.so:_ZN5mxnet8BinaryOpINS_7ndarray12OneHotEncodeEEEvRKNS_7NDArrayES5_PS3_
libmxnet.so:_ZN5mxnet8CachedOp12StaticRunOpsERKNS_7ContextERKN4nnvm5GraphERKNS_10OpStatePtrERKSt6vectorIPNS_7NDArrayESaISD_EEmm
libmxnet.so:_ZN5mxnet8CachedOp13StaticForwardERKNS_7ContextERKSt6vectorIPNS_7NDArrayESaIS6_EESA_
libmxnet.so:_ZN5mxnet8CachedOp14DynamicForwardERKNS_7ContextERKSt6vectorIPNS_7NDArrayESaIS6_EESA_b
libmxnet.so:_ZN5mxnet8CachedOp14StaticBackwardEbRKNS_10OpStatePtrERKSt6vectorIPNS_7NDArrayESaIS6_EERKS4_INS_9OpReqTypeESaISB_EESA_
libmxnet.so:_ZN5mxnet8CachedOp14StaticInitExecERKNS_10OpStatePtrEbb
libmxnet.so:_ZN5mxnet8CachedOp15DynamicBackwardEbRKNS_10OpStatePtrERKSt6vectorIPNS_7NDArrayESaIS6_EERKS4_INS_9OpReqTypeESaISB_EESA_
libmxnet.so:_ZN5mxnet8CachedOp15SetForwardGraphEPNS0_9GraphInfoEbRKSt6vectorIPNS_7NDArrayESaIS5_EE
libmxnet.so:_ZN5mxnet8CachedOp16GetCachedOpStateERKNS_7ContextE
libmxnet.so:_ZN5mxnet8CachedOp16SetBackwardGraphEPNS0_9GraphInfoERKSt6vectorINS_9OpReqTypeESaIS4_EERKS3_IPNS_7NDArrayESaISA_EEb
libmxnet.so:_ZN5mxnet8CachedOp17StaticAllocMemoryERKNS_10OpStatePtrEbb
libmxnet.so:_ZN5mxnet8CachedOp19BackwardStorageTypeERKN4nnvm9NodeAttrsEiPNS_12DispatchModeEPSt6vectorIiSaIiEESA_
libmxnet.so:_ZN5mxnet8CachedOp23CheckDynamicShapeExistsERKNS_7ContextERKSt6vectorIPNS_7NDArrayESaIS6_EEb
libmxnet.so:_ZN5mxnet8CachedOp7ForwardERKSt10shared_ptrIS0_ERKSt6vectorIPNS_7NDArrayESaIS7_EESB_
libmxnet.so:_ZN5mxnet8CachedOp8BackwardEbRKNS_10OpStatePtrERKSt6vectorIPNS_7NDArrayESaIS6_EERKS4_INS_9OpReqTypeESaISB_EESA_
libmxnet.so:_ZN5mxnet8CachedOpC1ERKN4nnvm6SymbolERKSt6vectorISt4pairINSt7__cxx1112basic_stringIcSt11char_traitsIcESaIcEEESC_ESaISD_EE
libmxnet.so:_ZN5mxnet8CachedOpC2ERKN4nnvm6SymbolERKSt6vectorISt4pairINSt7__cxx1112basic_stringIcSt11char_traitsIcESaIcEEESC_ESaISD_EE
libmxnet.so:_ZN5mxnet8CachedOpD1Ev
libmxnet.so:_ZN5mxnet8CachedOpD2Ev
libmxnet.so:_ZN5mxnet8Executor10SimpleBindEN4nnvm6SymbolERKNS_7ContextERKSt3mapINSt7__cxx1112basic_stringIcSt11char_traitsIcESaIcEEES3_St4lessISC_ESaISt4pairIKSC_S3_EEERKSt6vectorIS3_SaIS3_EESQ_SQ_RKSt13unordered_mapISC_NS_6TShapeESt4hashISC_ESt8equal_toISC_ESaISF_ISG_SS_EEERKSR_ISC_iSU_SW_SaISF_ISG_iEEES16_RKSM_INS_9OpReqTypeESaIS17_EERKSt13unordered_setISC_SU_SW_SaISC_EEPSM_INS_7NDArrayESaIS1H_EES1K_S1K_PSR_ISC_S1H_SU_SW_SaISF_ISG_S1H_EEEPS0_
libmxnet.so:_ZN5mxnet8Executor4BindEN4nnvm6SymbolERKNS_7ContextERKSt3mapINSt7__cxx1112basic_stringIcSt11char_traitsIcESaIcEEES3_St4lessISC_ESaISt4pairIKSC_S3_EEERKSt6vectorINS_7NDArrayESaISN_EESR_RKSM_INS_9OpReqTypeESaISS_EESR_PS0_
libmxnet.so:_ZN5mxnet8ImdecodeEPNS_7NDArrayES0_mmmmmmmPc
libmxnet.so:_ZN5mxnet8features10is_enabledEj
libmxnet.so:_ZN5mxnet8features7LibInfo11getInstanceEv
libmxnet.so:_ZN5mxnet8features7LibInfoC1Ev
libmxnet.so:_ZN5mxnet8features7LibInfoC2Ev
libmxnet.so:_ZN5mxnet8profiler14AggregateStats13OnProfileStatERKNS0_11ProfileStatE
libmxnet.so:_ZN5mxnet8profiler14AggregateStats5clearEv
libmxnet.so:_ZN5mxnet8profiler14AggregateStats8DumpJsonERSoii
libmxnet.so:_ZN5mxnet8profiler14AggregateStats9DumpTableERSoii
libmxnet.so:_ZN5mxnet8profiler8Profiler11DumpProfileEb
libmxnet.so:_ZN5mxnet8profiler8Profiler24SetContinuousProfileDumpEbf
libmxnet.so:_ZN5mxnet8profiler8Profiler3GetEPSt10shared_ptrIS1_E
libmxnet.so:_ZN5mxnet8profiler8Profiler7EmitPidEPSoRKNSt7__cxx1112basic_stringIcSt11char_traitsIcESaIcEEEm
libmxnet.so:_ZN5mxnet8profiler8Profiler8SetStateENS1_13ProfilerStateE
libmxnet.so:_ZN5mxnet8profiler8Profiler9SetConfigEiNSt7__cxx1112basic_stringIcSt11char_traitsIcESaIcEEEbfb
libmxnet.so:_ZN5mxnet8profiler8ProfilerC1Ev
libmxnet.so:_ZN5mxnet8profiler8ProfilerC2Ev
libmxnet.so:_ZN5mxnet8profiler8ProfilerD0Ev
libmxnet.so:_ZN5mxnet8profiler8ProfilerD1Ev
libmxnet.so:_ZN5mxnet8profiler8ProfilerD2Ev
libmxnet.so:_ZN5mxnet9TernaryOpINS_7ndarray14MatFillRowElemEEEvRKNS_7NDArrayES5_S5_PS3_
libmxnet.so:_ZN5mxnetdvERKNS_7NDArrayERKf
libmxnet.so:_ZN5mxnetdvERKNS_7NDArrayES2_
libmxnet.so:_ZN5mxnetmiERKNS_7NDArrayERKf
libmxnet.so:_ZN5mxnetmiERKNS_7NDArrayES2_
libmxnet.so:_ZN5mxnetmlERKNS_7NDArrayERKf
libmxnet.so:_ZN5mxnetmlERKNS_7NDArrayES2_
libmxnet.so:_ZN5mxnetplERKNS_7NDArrayERKf
libmxnet.so:_ZN5mxnetplERKNS_7NDArrayES2_
libmxnet.so:_ZNK4nnvm5Graph13indexed_graphEv
libmxnet.so:_ZNK4nnvm6Symbol10ListInputsENS0_15ListInputOptionE
libmxnet.so:_ZNK4nnvm6Symbol11GetChildrenEv
libmxnet.so:_ZNK4nnvm6Symbol12GetInternalsEv
libmxnet.so:_ZNK4nnvm6Symbol14ListInputNamesB5cxx11ENS0_15ListInputOptionE
libmxnet.so:_ZNK4nnvm6Symbol15ListOutputNamesB5cxx11Ev
libmxnet.so:_ZNK4nnvm6Symbol18ListAttrsRecursiveB5cxx11Ev
libmxnet.so:_ZNK4nnvm6Symbol4CopyEv
libmxnet.so:_ZNK4nnvm6Symbol5PrintERSo
libmxnet.so:_ZNK4nnvm6Symbol7GetAttrERKNSt7__cxx1112basic_stringIcSt11char_traitsIcESaIcEEEPS6_
libmxnet.so:_ZNK4nnvm6Symbol9ListAttrsB5cxx11ENS0_14ListAttrOptionE
libmxnet.so:_ZNK4nnvm6SymbolclERKN4dmlc10array_viewIPKS0_EERKSt13unordered_mapINSt7__cxx1112basic_stringIcSt11char_traitsIcESaIcEEES4_St4hashISE_ESt8equal_toISE_ESaISt4pairIKSE_S4_EEERSK_
libmxnet.so:_ZNK4nnvm6SymbolixEm
libmxnet.so:_ZNK5mxnet2op12MakeLossProp16CreateOperatorExENS_7ContextEPSt6vectorINS_6TShapeESaIS4_EEPS3_IiSaIiEE
libmxnet.so:_ZNK5mxnet2op12NativeOpProp14CreateOperatorENS_7ContextE
libmxnet.so:_ZNK5mxnet2op12ProposalProp14CreateOperatorENS_7ContextE
libmxnet.so:_ZNK5mxnet2op12SwapAxisProp16CreateOperatorExENS_7ContextEPSt6vectorINS_6TShapeESaIS4_EEPS3_IiSaIiEE
libmxnet.so:_ZNK5mxnet2op13LeakyReLUProp16CreateOperatorExENS_7ContextEPSt6vectorINS_6TShapeESaIS4_EEPS3_IiSaIiEE
libmxnet.so:_ZNK5mxnet2op13NDArrayOpProp14CreateOperatorENS_7ContextE
libmxnet.so:_ZNK5mxnet2op13PoolingV1Prop16CreateOperatorExENS_7ContextEPSt6vectorINS_6TShapeESaIS4_EEPS3_IiSaIiEE
libmxnet.so:_ZNK5mxnet2op13SVMOutputProp16CreateOperatorExENS_7ContextEPSt6vectorINS_6TShapeESaIS4_EEPS3_IiSaIiEE
libmxnet.so:_ZNK5mxnet2op14ROIPoolingProp16CreateOperatorExENS_7ContextEPSt6vectorINS_6TShapeESaIS4_EEPS3_IiSaIiEE
libmxnet.so:_ZNK5mxnet2op15BatchNormV1Prop16CreateOperatorExENS_7ContextEPSt6vectorINS_6TShapeESaIS4_EEPS3_IiSaIiEE
libmxnet.so:_ZNK5mxnet2op15CorrelationProp16CreateOperatorExENS_7ContextEPSt6vectorINS_6TShapeESaIS4_EEPS3_IiSaIiEE
libmxnet.so:_ZNK5mxnet2op15CountSketchProp16CreateOperatorExENS_7ContextEPSt6vectorINS_6TShapeESaIS4_EEPS3_IiSaIiEE
libmxnet.so:_ZNK5mxnet2op16InstanceNormProp16CreateOperatorExENS_7ContextEPSt6vectorINS_6TShapeESaIS4_EEPS3_IiSaIiEE
libmxnet.so:_ZNK5mxnet2op16PSROIPoolingProp16CreateOperatorExENS_7ContextEPSt6vectorINS_6TShapeESaIS4_EEPS3_IiSaIiEE
libmxnet.so:_ZNK5mxnet2op16SequenceLastProp16CreateOperatorExENS_7ContextEPSt6vectorINS_6TShapeESaIS4_EEPS3_IiSaIiEE
libmxnet.so:_ZNK5mxnet2op16SequenceMaskProp16CreateOperatorExENS_7ContextEPSt6vectorINS_6TShapeESaIS4_EEPS3_IiSaIiEE
libmxnet.so:_ZNK5mxnet2op16SliceChannelProp16CreateOperatorExENS_7ContextEPSt6vectorINS_6TShapeESaIS4_EEPS3_IiSaIiEE
libmxnet.so:_ZNK5mxnet2op17ConvolutionV1Prop16CreateOperatorExENS_7ContextEPSt6vectorINS_6TShapeESaIS4_EEPS3_IiSaIiEE
libmxnet.so:_ZNK5mxnet2op17GridGeneratorProp16CreateOperatorExENS_7ContextEPSt6vectorINS_6TShapeESaIS4_EEPS3_IiSaIiEE
libmxnet.so:_ZNK5mxnet2op17MultiBoxPriorProp16CreateOperatorExENS_7ContextEPSt6vectorINS_6TShapeESaIS4_EEPS3_IiSaIiEE
libmxnet.so:_ZNK5mxnet2op17MultiProposalProp14CreateOperatorENS_7ContextE
libmxnet.so:_ZNK5mxnet2op17SyncBatchNormProp16CreateOperatorExENS_7ContextEPSt6vectorINS_6TShapeESaIS4_EEPS3_IiSaIiEE
libmxnet.so:_ZNK5mxnet2op18MultiBoxTargetProp16CreateOperatorExENS_7ContextEPSt6vectorINS_6TShapeESaIS4_EEPS3_IiSaIiEE
libmxnet.so:_ZNK5mxnet2op19BilinearSamplerProp16CreateOperatorExENS_7ContextEPSt6vectorINS_6TShapeESaIS4_EEPS3_IiSaIiEE
libmxnet.so:_ZNK5mxnet2op19L2NormalizationProp16CreateOperatorExENS_7ContextEPSt6vectorINS_6TShapeESaIS4_EEPS3_IiSaIiEE
libmxnet.so:_ZNK5mxnet2op19SequenceReverseProp16CreateOperatorExENS_7ContextEPSt6vectorINS_6TShapeESaIS4_EEPS3_IiSaIiEE
libmxnet.so:_ZNK5mxnet2op21MultiBoxDetectionProp16CreateOperatorExENS_7ContextEPSt6vectorINS_6TShapeESaIS4_EEPS3_IiSaIiEE
libmxnet.so:_ZNK5mxnet2op22SpatialTransformerProp16CreateOperatorExENS_7ContextEPSt6vectorINS_6TShapeESaIS4_EEPS3_IiSaIiEE
libmxnet.so:_ZNK5mxnet2op25DeformableConvolutionProp16CreateOperatorExENS_7ContextEPSt6vectorINS_6TShapeESaIS4_EEPS3_IiSaIiEE
libmxnet.so:_ZNK5mxnet2op26DeformablePSROIPoolingProp16CreateOperatorExENS_7ContextEPSt6vectorINS_6TShapeESaIS4_EEPS3_IiSaIiEE
libmxnet.so:_ZNK5mxnet2op29IdentityAttachKLSparseRegProp14CreateOperatorENS_7ContextE
libmxnet.so:_ZNK5mxnet2op7FFTProp16CreateOperatorExENS_7ContextEPSt6vectorINS_6TShapeESaIS4_EEPS3_IiSaIiEE
libmxnet.so:_ZNK5mxnet2op7PadProp16CreateOperatorExENS_7ContextEPSt6vectorINS_6TShapeESaIS4_EEPS3_IiSaIiEE
libmxnet.so:_ZNK5mxnet2op8CropProp14CreateOperatorENS_7ContextE
libmxnet.so:_ZNK5mxnet2op8IFFTProp16CreateOperatorExENS_7ContextEPSt6vectorINS_6TShapeESaIS4_EEPS3_IiSaIiEE
libmxnet.so:_ZNK5mxnet4exec13GraphExecutor10in_arg_mapB5cxx11Ev
libmxnet.so:_ZNK5mxnet4exec13GraphExecutor12arg_grad_mapB5cxx11Ev
libmxnet.so:_ZNK5mxnet4exec13GraphExecutor13aux_state_mapB5cxx11Ev
libmxnet.so:_ZNK5mxnet4exec13GraphExecutor5PrintERSo
libmxnet.so:_ZNK5mxnet4exec13GraphExecutor7outputsEv
libmxnet.so:_ZNK5mxnet6engine6OpenMP28GetRecommendedOMPThreadCountEb
libmxnet.so:_ZNK5mxnet7NDArray11aux_ndarrayEm
libmxnet.so:_ZNK5mxnet7NDArray12data_ndarrayEv
libmxnet.so:_ZNK5mxnet7NDArray13SyncCopyToCPUEPvm
libmxnet.so:_ZNK5mxnet7NDArray14fresh_out_gradEv
libmxnet.so:_ZNK5mxnet7NDArray15SyncCheckFormatEb
libmxnet.so:_ZNK5mxnet7NDArray15SyncCopyFromCPUEPKvm
libmxnet.so:_ZNK5mxnet7NDArray18set_fresh_out_gradEb
libmxnet.so:_ZNK5mxnet7NDArray19get_autograd_symbolEv
libmxnet.so:_ZNK5mxnet7NDArray2AtEi
libmxnet.so:_ZNK5mxnet7NDArray4CopyENS_7ContextE
libmxnet.so:_ZNK5mxnet7NDArray4SaveEPN4dmlc6StreamE
libmxnet.so:_ZNK5mxnet7NDArray4gradEv
libmxnet.so:_ZNK5mxnet7NDArray5SliceEii
libmxnet.so:_ZNK5mxnet7NDArray7ReshapeERKNS_6TShapeE
libmxnet.so:_ZNK5mxnet7NDArray8SetTBlobEv
libmxnet.so:_ZNK5mxnet7NDArray8ToDLPackEv
libmxnet.so:_ZNK5mxnet8CachedOp8GradientERKSt10shared_ptrIN4nnvm4NodeEERKSt6vectorINS2_9NodeEntryESaIS8_EE
libmxnet.so:_ZNK5mxnet8Resource18get_space_internalEm
libmxnet.so:_ZNK5mxnet8Resource23get_host_space_internalEm
libmxnet.so:_ZNSt14_Function_base13_Base_managerIN5mxnet2op10ConcatGradEE10_M_managerERSt9_Any_dataRKS5_St18_Manager_operation
libmxnet.so:_ZNSt14_Function_base13_Base_managerIN5mxnet2op10ReduceGradEE10_M_managerERSt9_Any_dataRKS5_St18_Manager_operation
libmxnet.so:_ZNSt14_Function_base13_Base_managerIN5mxnet2op11DropoutGradEE10_M_managerERSt9_Any_dataRKS5_St18_Manager_operation
libmxnet.so:_ZNSt14_Function_base13_Base_managerIN5mxnet2op13CloneGradientEE10_M_managerERSt9_Any_dataRKS5_St18_Manager_operation
libmxnet.so:_ZNSt14_Function_base13_Base_managerIN5mxnet2op14ActivationGradEE10_M_managerERSt9_Any_dataRKS5_St18_Manager_operation
libmxnet.so:_ZNSt14_Function_base13_Base_managerIN5mxnet2op14UpSamplingGradEE10_M_managerERSt9_Any_dataRKS5_St18_Manager_operation
libmxnet.so:_ZNSt14_Function_base13_Base_managerIN5mxnet2op15ConvolutionGradEE10_M_managerERSt9_Any_dataRKS5_St18_Manager_operation
libmxnet.so:_ZNSt14_Function_base13_Base_managerIN5mxnet2op16RegressionOpGradEE10_M_managerERSt9_Any_dataRKS5_St18_Manager_operation
libmxnet.so:_ZNSt14_Function_base13_Base_managerIN5mxnet2op16SoftmaxFGradientEE10_M_managerERSt9_Any_dataRKS5_St18_Manager_operation
libmxnet.so:_ZNSt14_Function_base13_Base_managerIN5mxnet2op17DeconvolutionGradEE10_M_managerERSt9_Any_dataRKS5_St18_Manager_operation
libmxnet.so:_ZNSt14_Function_base13_Base_managerIN5mxnet2op17ElemwiseGradUseInEE10_M_managerERSt9_Any_dataRKS5_St18_Manager_operation
libmxnet.so:_ZNSt14_Function_base13_Base_managerIN5mxnet2op17SoftmaxOutputGradEE10_M_managerERSt9_Any_dataRKS5_St18_Manager_operation
libmxnet.so:_ZNSt14_Function_base13_Base_managerIN5mxnet2op18ElemwiseGradUseOutEE10_M_managerERSt9_Any_dataRKS5_St18_Manager_operation
libmxnet.so:_ZNSt14_Function_base13_Base_managerIN5mxnet2op18FullyConnectedGradEE10_M_managerERSt9_Any_dataRKS5_St18_Manager_operation
libmxnet.so:_ZNSt14_Function_base13_Base_managerIN5mxnet2op19ElemwiseGradUseNoneEE10_M_managerERSt9_Any_dataRKS5_St18_Manager_operation
libmxnet.so:_ZNSt14_Function_base13_Base_managerIN5mxnet2op20ElemwiseGradUseInOutEE10_M_managerERSt9_Any_dataRKS5_St18_Manager_operation
libmxnet.so:_ZNSt14_Function_base13_Base_managerIN5mxnet2op7LRNGradEE10_M_managerERSt9_Any_dataRKS5_St18_Manager_operation
libmxnet.so:_ZNSt14_Function_base13_Base_managerIN5mxnet2op7RNNGradEE10_M_managerERSt9_Any_dataRKS5_St18_Manager_operation
libmxnet.so:_ZNSt14_Function_base13_Base_managerIPFN4nnvm5GraphEOS2_EE10_M_managerERSt9_Any_dataRKS7_St18_Manager_operation
libmxnet.so:_ZNSt14_Function_base13_Base_managerIPFN4nnvm5GraphERKS2_EE10_M_managerERSt9_Any_dataRKS8_St18_Manager_operation
libmxnet.so:_ZNSt14_Function_base13_Base_managerIPFN4nnvm5GraphES2_EE10_M_managerERSt9_Any_dataRKS6_St18_Manager_operation
libmxnet.so:_ZNSt14_Function_base13_Base_managerIPFN4nnvm9NodeEntryEOSt6vectorIS2_SaIS2_EEEE10_M_managerERSt9_Any_dataRKSA_St18_Manager_operation
libmxnet.so:_ZNSt14_Function_base13_Base_managerIPFN5mxnet10OpStatePtrERKN4nnvm9NodeAttrsENS1_7ContextERKSt6vectorINS1_6TShapeESaIS9_EERKS8_IiSaIiEEEE10_M_managerERSt9_Any_dataRKSL_St18_Manager_operation
libmxnet.so:_ZNSt14_Function_base13_Base_managerIPFN5mxnet8ExecTypeERKN4nnvm9NodeAttrsEEE10_M_managerERSt9_Any_dataRKSA_St18_Manager_operation
libmxnet.so:_ZNSt14_Function_base13_Base_managerIPFSt6vectorIN4nnvm9NodeEntryESaIS3_EERKSt10shared_ptrINS2_4NodeEERKS5_EE10_M_managerERSt9_Any_dataRKSG_St18_Manager_operation
libmxnet.so:_ZNSt14_Function_base13_Base_managerIPFSt6vectorIN5mxnet15ResourceRequestESaIS3_EERKN4nnvm9NodeAttrsEEE10_M_managerERSt9_Any_dataRKSD_St18_Manager_operation
libmxnet.so:_ZNSt14_Function_base13_Base_managerIPFSt6vectorIN5mxnet15ResourceRequestESaIS3_EERKN4nnvm9NodeAttrsEiNS2_12DispatchModeEEE10_M_managerERSt9_Any_dataRKSE_St18_Manager_operation
libmxnet.so:_ZNSt14_Function_base13_Base_managerIPFSt6vectorINSt7__cxx1112basic_stringIcSt11char_traitsIcESaIcEEESaIS7_EERKN4nnvm9NodeAttrsEEE10_M_managerERSt9_Any_dataRKSH_St18_Manager_operation
libmxnet.so:_ZNSt14_Function_base13_Base_managerIPFSt6vectorISt4pairIiiESaIS3_EERKN4nnvm9NodeAttrsEEE10_M_managerERSt9_Any_dataRKSD_St18_Manager_operation
libmxnet.so:_ZNSt14_Function_base13_Base_managerIPFSt6vectorIjSaIjEERKN4nnvm9NodeAttrsEEE10_M_managerERSt9_Any_dataRKSB_St18_Manager_operation
libmxnet.so:_ZNSt14_Function_base13_Base_managerIPFbRKN4nnvm9NodeAttrsEPSt6vectorIN5mxnet6TShapeESaIS7_EESA_EE10_M_managerERSt9_Any_dataRKSE_St18_Manager_operation
libmxnet.so:_ZNSt14_Function_base13_Base_managerIPFbRKN4nnvm9NodeAttrsEPSt6vectorIiSaIiEES8_EE10_M_managerERSt9_Any_dataRKSC_St18_Manager_operation
libmxnet.so:_ZNSt14_Function_base13_Base_managerIPFbRKN4nnvm9NodeAttrsEiPN5mxnet12DispatchModeEPSt6vectorIiSaIiEESB_EE10_M_managerERSt9_Any_dataRKSF_St18_Manager_operation
libmxnet.so:_ZNSt14_Function_base13_Base_managerIPFbRKiEE10_M_managerERSt9_Any_dataRKS6_St18_Manager_operation
libmxnet.so:_ZNSt14_Function_base13_Base_managerIPFjRKN4nnvm9NodeAttrsEEE10_M_managerERSt9_Any_dataRKS8_St18_Manager_operation
libmxnet.so:_ZNSt14_Function_base13_Base_managerIPFtRKN4nnvm9NodeAttrsEEE10_M_managerERSt9_Any_dataRKS8_St18_Manager_operation
libmxnet.so:_ZNSt14_Function_base13_Base_managerIPFvN3tvm7runtime7TVMArgsEPNS2_11TVMRetValueEEE10_M_managerERSt9_Any_dataRKS9_St18_Manager_operation
libmxnet.so:_ZNSt14_Function_base13_Base_managerIPFvPN4nnvm9NodeAttrsEEE10_M_managerERSt9_Any_dataRKS7_St18_Manager_operation
libmxnet.so:_ZNSt14_Function_base13_Base_managerIPFvRKN4nnvm9NodeAttrsERKN5mxnet9OpContextERKSt6vectorINS5_5TBlobESaISA_EERKS9_INS5_9OpReqTypeESaISF_EESE_EE10_M_managerERSt9_Any_dataRKSN_St18_Manager_operation
libmxnet.so:_ZNSt14_Function_base13_Base_managerIPFvRKN4nnvm9NodeAttrsERKN5mxnet9OpContextERKSt6vectorINS5_7NDArrayESaISA_EERKS9_INS5_9OpReqTypeESaISF_EESE_EE10_M_managerERSt9_Any_dataRKSN_St18_Manager_operation
libmxnet.so:_ZNSt14_Function_base13_Base_managerIPFvRKN4nnvm9NodeAttrsERKSt6vectorIN5mxnet7NDArrayESaIS7_EEPS9_EE10_M_managerERSt9_Any_dataRKSG_St18_Manager_operation
libmxnet.so:_ZNSt14_Function_base13_Base_managerIPFvRKN5mxnet10OpStatePtrERKNS1_9OpContextERKSt6vectorINS1_5TBlobESaIS9_EERKS8_INS1_9OpReqTypeESaISE_EESD_EE10_M_managerERSt9_Any_dataRKSM_St18_Manager_operation
libmxnet.so:_ZNSt14_Function_base13_Base_managerIPFvRKN5mxnet10OpStatePtrERKNS1_9OpContextERKSt6vectorINS1_7NDArrayESaIS9_EERKS8_INS1_9OpReqTypeESaISE_EESD_EE10_M_managerERSt9_Any_dataRKSM_St18_Manager_operation
libmxnet.so:_ZNSt14_Function_base13_Base_managerISt5_BindIFPFSt6vectorIN4nnvm9NodeEntryESaIS4_EEPKNS3_2OpERKSt10shared_ptrINS3_4NodeEERKS6_EPS7_St12_PlaceholderILi1EESK_ILi2EEEEE10_M_managerERSt9_Any_dataRKSQ_St18_Manager_operation
libmxnet.so:_ZNSt14_Function_base13_Base_managerIZN4nnvm2Op7GetAttrINSt7__cxx1112basic_stringIcSt11char_traitsIcESaIcEEEEERKNS1_5OpMapIT_EERKS9_EUlPN4dmlc3anyEE_E10_M_managerERSt9_Any_dataRKSM_St18_Manager_operation
libmxnet.so:_ZNSt14_Function_base13_Base_managerIZN4nnvm2Op7GetAttrISt8functionIFN5mxnet10OpStatePtrERKNS1_9NodeAttrsENS5_7ContextERKSt6vectorINS5_6TShapeESaISC_EERKSB_IiSaIiEEEEEERKNS1_5OpMapIT_EERKNSt7__cxx1112basic_stringIcSt11char_traitsIcESaIcEEEEUlPN4dmlc3anyEE_E10_M_managerERSt9_Any_dataRKS15_St18_Manager_operation
libmxnet.so:_ZNSt14_Function_base13_Base_managerIZN4nnvm2Op7GetAttrISt8functionIFN5mxnet8ExecTypeERKNS1_9NodeAttrsEEEEERKNS1_5OpMapIT_EERKNSt7__cxx1112basic_stringIcSt11char_traitsIcESaIcEEEEUlPN4dmlc3anyEE_E10_M_managerERSt9_Any_dataRKSU_St18_Manager_operation
libmxnet.so:_ZNSt14_Function_base13_Base_managerIZN4nnvm2Op7GetAttrISt8functionIFSt10shared_ptrINS1_4NodeEERKNS1_9NodeAttrsEEEEERKNS1_5OpMapIT_EERKNSt7__cxx1112basic_stringIcSt11char_traitsIcESaIcEEEEUlPN4dmlc3anyEE_E10_M_managerERSt9_Any_dataRKSV_St18_Manager_operation
libmxnet.so:_ZNSt14_Function_base13_Base_managerIZN4nnvm2Op7GetAttrISt8functionIFSt6vectorIN5mxnet15ResourceRequestESaIS7_EERKNS1_9NodeAttrsEEEEERKNS1_5OpMapIT_EERKNSt7__cxx1112basic_stringIcSt11char_traitsIcESaIcEEEEUlPN4dmlc3anyEE_E10_M_managerERSt9_Any_dataRKSX_St18_Manager_operation
libmxnet.so:_ZNSt14_Function_base13_Base_managerIZN4nnvm2Op7GetAttrISt8functionIFSt6vectorIN5mxnet15ResourceRequestESaIS7_EERKNS1_9NodeAttrsEiNS6_12DispatchModeEEEEERKNS1_5OpMapIT_EERKNSt7__cxx1112basic_stringIcSt11char_traitsIcESaIcEEEEUlPN4dmlc3anyEE_E10_M_managerERSt9_Any_dataRKSY_St18_Manager_operation
libmxnet.so:_ZNSt14_Function_base13_Base_managerIZN4nnvm2Op7GetAttrISt8functionIFSt6vectorINS1_9NodeEntryESaIS6_EERKSt10shared_ptrINS1_4NodeEERKS8_EEEERKNS1_5OpMapIT_EERKNSt7__cxx1112basic_stringIcSt11char_traitsIcESaIcEEEEUlPN4dmlc3anyEE_E10_M_managerERSt9_Any_dataRKS10_St18_Manager_operation
libmxnet.so:_ZNSt14_Function_base13_Base_managerIZN4nnvm2Op7GetAttrISt8functionIFSt6vectorINSt7__cxx1112basic_stringIcSt11char_traitsIcESaIcEEESaISB_EERKNS1_9NodeAttrsEEEEERKNS1_5OpMapIT_EERKSB_EUlPN4dmlc3anyEE_E10_M_managerERSt9_Any_dataRKSV_St18_Manager_operation
libmxnet.so:_ZNSt14_Function_base13_Base_managerIZN4nnvm2Op7GetAttrISt8functionIFSt6vectorISt4pairIiiESaIS7_EERKNS1_9NodeAttrsEEEEERKNS1_5OpMapIT_EERKNSt7__cxx1112basic_stringIcSt11char_traitsIcESaIcEEEEUlPN4dmlc3anyEE_E10_M_managerERSt9_Any_dataRKSX_St18_Manager_operation
libmxnet.so:_ZNSt14_Function_base13_Base_managerIZN4nnvm2Op7GetAttrISt8functionIFSt6vectorIbSaIbEERKNS1_9NodeAttrsEEEEERKNS1_5OpMapIT_EERKNSt7__cxx1112basic_stringIcSt11char_traitsIcESaIcEEEEUlPN4dmlc3anyEE_E10_M_managerERSt9_Any_dataRKSV_St18_Manager_operation
libmxnet.so:_ZNSt14_Function_base13_Base_managerIZN4nnvm2Op7GetAttrISt8functionIFSt6vectorIjSaIjEERKNS1_9NodeAttrsEEEEERKNS1_5OpMapIT_EERKNSt7__cxx1112basic_stringIcSt11char_traitsIcESaIcEEEEUlPN4dmlc3anyEE_E10_M_managerERSt9_Any_dataRKSV_St18_Manager_operation
libmxnet.so:_ZNSt14_Function_base13_Base_managerIZN4nnvm2Op7GetAttrISt8functionIFbRKNS1_9NodeAttrsEEEEERKNS1_5OpMapIT_EERKNSt7__cxx1112basic_stringIcSt11char_traitsIcESaIcEEEEUlPN4dmlc3anyEE_E10_M_managerERSt9_Any_dataRKSS_St18_Manager_operation
libmxnet.so:_ZNSt14_Function_base13_Base_managerIZN4nnvm2Op7GetAttrISt8functionIFbRKNS1_9NodeAttrsEPSt6vectorIN5mxnet6TShapeESaISA_EESD_EEEERKNS1_5OpMapIT_EERKNSt7__cxx1112basic_stringIcSt11char_traitsIcESaIcEEEEUlPN4dmlc3anyEE_E10_M_managerERSt9_Any_dataRKSY_St18_Manager_operation
libmxnet.so:_ZNSt14_Function_base13_Base_managerIZN4nnvm2Op7GetAttrISt8functionIFbRKNS1_9NodeAttrsEPSt6vectorINS1_6LayoutESaIS9_EEPKSB_SC_EEEERKNS1_5OpMapIT_EERKNSt7__cxx1112basic_stringIcSt11char_traitsIcESaIcEEEEUlPN4dmlc3anyEE_E10_M_managerERSt9_Any_dataRKSZ_St18_Manager_operation
libmxnet.so:_ZNSt14_Function_base13_Base_managerIZN4nnvm2Op7GetAttrISt8functionIFbRKNS1_9NodeAttrsEPSt6vectorINS1_6TShapeESaIS9_EESC_EEEERKNS1_5OpMapIT_EERKNSt7__cxx1112basic_stringIcSt11char_traitsIcESaIcEEEEUlPN4dmlc3anyEE_E10_M_managerERSt9_Any_dataRKSX_St18_Manager_operation
libmxnet.so:_ZNSt14_Function_base13_Base_managerIZN4nnvm2Op7GetAttrISt8functionIFbRKNS1_9NodeAttrsEPSt6vectorIiSaIiEESB_EEEERKNS1_5OpMapIT_EERKNSt7__cxx1112basic_stringIcSt11char_traitsIcESaIcEEEEUlPN4dmlc3anyEE_E10_M_managerERSt9_Any_dataRKSW_St18_Manager_operation
libmxnet.so:_ZNSt14_Function_base13_Base_managerIZN4nnvm2Op7GetAttrISt8functionIFbRKNS1_9NodeAttrsEiPN5mxnet12DispatchModeEPSt6vectorIiSaIiEESE_EEEERKNS1_5OpMapIT_EERKNSt7__cxx1112basic_stringIcSt11char_traitsIcESaIcEEEEUlPN4dmlc3anyEE_E10_M_managerERSt9_Any_dataRKSZ_St18_Manager_operation
libmxnet.so:_ZNSt14_Function_base13_Base_managerIZN4nnvm2Op7GetAttrISt8functionIFbRKNS1_9NodeAttrsEmEEEERKNS1_5OpMapIT_EERKNSt7__cxx1112basic_stringIcSt11char_traitsIcESaIcEEEEUlPN4dmlc3anyEE_E10_M_managerERSt9_Any_dataRKSS_St18_Manager_operation
libmxnet.so:_ZNSt14_Function_base13_Base_managerIZN4nnvm2Op7GetAttrISt8functionIFjRKNS1_9NodeAttrsEEEEERKNS1_5OpMapIT_EERKNSt7__cxx1112basic_stringIcSt11char_traitsIcESaIcEEEEUlPN4dmlc3anyEE_E10_M_managerERSt9_Any_dataRKSS_St18_Manager_operation
libmxnet.so:_ZNSt14_Function_base13_Base_managerIZN4nnvm2Op7GetAttrISt8functionIFvRKN5mxnet10OpStatePtrERKNS5_9OpContextERKSt6vectorINS5_5TBlobESaISD_EERKSC_INS5_9OpReqTypeESaISI_EESH_EEEERKNS1_5OpMapIT_EERKNSt7__cxx1112basic_stringIcSt11char_traitsIcESaIcEEEEUlPN4dmlc3anyEE_E10_M_managerERSt9_Any_dataRKS17_St18_Manager_operation
libmxnet.so:_ZNSt14_Function_base13_Base_managerIZN4nnvm2Op7GetAttrISt8functionIFvRKN5mxnet10OpStatePtrERKNS5_9OpContextERKSt6vectorINS5_7NDArrayESaISD_EERKSC_INS5_9OpReqTypeESaISI_EESH_EEEERKNS1_5OpMapIT_EERKNSt7__cxx1112basic_stringIcSt11char_traitsIcESaIcEEEEUlPN4dmlc3anyEE_E10_M_managerERSt9_Any_dataRKS17_St18_Manager_operation
libmxnet.so:_ZNSt14_Function_base13_Base_managerIZN4nnvm2Op7GetAttrISt8functionIFvRKNS1_9NodeAttrsERKN5mxnet9OpContextERKSt6vectorINS8_5TBlobESaISD_EERKSC_INS8_9OpReqTypeESaISI_EESH_EEEERKNS1_5OpMapIT_EERKNSt7__cxx1112basic_stringIcSt11char_traitsIcESaIcEEEEUlPN4dmlc3anyEE_E10_M_managerERSt9_Any_dataRKS17_St18_Manager_operation
libmxnet.so:_ZNSt14_Function_base13_Base_managerIZN4nnvm2Op7GetAttrISt8functionIFvRKNS1_9NodeAttrsERKN5mxnet9OpContextERKSt6vectorINS8_7NDArrayESaISD_EERKSC_INS8_9OpReqTypeESaISI_EESH_EEEERKNS1_5OpMapIT_EERKNSt7__cxx1112basic_stringIcSt11char_traitsIcESaIcEEEEUlPN4dmlc3anyEE_E10_M_managerERSt9_Any_dataRKS17_St18_Manager_operation
libmxnet.so:_ZNSt14_Function_base13_Base_managerIZN4nnvm2Op7GetAttrISt8functionIFvRKNS1_9NodeAttrsERKSt6vectorIN5mxnet7NDArrayESaISA_EEPSC_EEEERKNS1_5OpMapIT_EERKNSt7__cxx1112basic_stringIcSt11char_traitsIcESaIcEEEEUlPN4dmlc3anyEE_E10_M_managerERSt9_Any_dataRKS10_St18_Manager_operation
libmxnet.so:_ZNSt14_Function_base13_Base_managerIZN4nnvm2Op7GetAttrISt8functionIFvRKNS1_9NodeAttrsESt10shared_ptrINS1_4NodeEEiEEEERKNS1_5OpMapIT_EERKNSt7__cxx1112basic_stringIcSt11char_traitsIcESaIcEEEEUlPN4dmlc3anyEE_E10_M_managerERSt9_Any_dataRKSV_St18_Manager_operation
libmxnet.so:_ZNSt14_Function_base13_Base_managerIZN4nnvm2Op7GetAttrIbEERKNS1_5OpMapIT_EERKNSt7__cxx1112basic_stringIcSt11char_traitsIcESaIcEEEEUlPN4dmlc3anyEE_E10_M_managerERSt9_Any_dataRKSM_St18_Manager_operation
libmxnet.so:_ZNSt14_Function_base13_Base_managerIZN4nnvm2Op8set_attrINSt7__cxx1112basic_stringIcSt11char_traitsIcESaIcEEEEERS2_RKS9_RKT_iEUlPN4dmlc3anyEE_E10_M_managerERSt9_Any_dataRKSL_St18_Manager_operation
libmxnet.so:_ZNSt14_Function_base13_Base_managerIZN4nnvm2Op8set_attrISt8functionIFN5mxnet10OpStatePtrERKNS1_9NodeAttrsENS5_7ContextERKSt6vectorINS5_6TShapeESaISC_EERKSB_IiSaIiEEEEEERS2_RKNSt7__cxx1112basic_stringIcSt11char_traitsIcESaIcEEERKT_iEUlPN4dmlc3anyEE_E10_M_managerERSt9_Any_dataRKS14_St18_Manager_operation
libmxnet.so:_ZNSt14_Function_base13_Base_managerIZN4nnvm2Op8set_attrISt8functionIFN5mxnet8ExecTypeERKNS1_9NodeAttrsEEEEERS2_RKNSt7__cxx1112basic_stringIcSt11char_traitsIcESaIcEEERKT_iEUlPN4dmlc3anyEE_E10_M_managerERSt9_Any_dataRKST_St18_Manager_operation
libmxnet.so:_ZNSt14_Function_base13_Base_managerIZN4nnvm2Op8set_attrISt8functionIFSt10shared_ptrINS1_4NodeEERKNS1_9NodeAttrsEEEEERS2_RKNSt7__cxx1112basic_stringIcSt11char_traitsIcESaIcEEERKT_iEUlPN4dmlc3anyEE_E10_M_managerERSt9_Any_dataRKSU_St18_Manager_operation
libmxnet.so:_ZNSt14_Function_base13_Base_managerIZN4nnvm2Op8set_attrISt8functionIFSt6vectorIN5mxnet15ResourceRequestESaIS7_EERKNS1_9NodeAttrsEEEEERS2_RKNSt7__cxx1112basic_stringIcSt11char_traitsIcESaIcEEERKT_iEUlPN4dmlc3anyEE_E10_M_managerERSt9_Any_dataRKSW_St18_Manager_operation
libmxnet.so:_ZNSt14_Function_base13_Base_managerIZN4nnvm2Op8set_attrISt8functionIFSt6vectorIN5mxnet15ResourceRequestESaIS7_EERKNS1_9NodeAttrsEiNS6_12DispatchModeEEEEERS2_RKNSt7__cxx1112basic_stringIcSt11char_traitsIcESaIcEEERKT_iEUlPN4dmlc3anyEE_E10_M_managerERSt9_Any_dataRKSX_St18_Manager_operation
libmxnet.so:_ZNSt14_Function_base13_Base_managerIZN4nnvm2Op8set_attrISt8functionIFSt6vectorINS1_9NodeEntryESaIS6_EERKSt10shared_ptrINS1_4NodeEERKS8_EEEERS2_RKNSt7__cxx1112basic_stringIcSt11char_traitsIcESaIcEEERKT_iEUlPN4dmlc3anyEE_E10_M_managerERSt9_Any_dataRKSZ_St18_Manager_operation
libmxnet.so:_ZNSt14_Function_base13_Base_managerIZN4nnvm2Op8set_attrISt8functionIFSt6vectorINSt7__cxx1112basic_stringIcSt11char_traitsIcESaIcEEESaISB_EERKNS1_9NodeAttrsEEEEERS2_RKSB_RKT_iEUlPN4dmlc3anyEE_E10_M_managerERSt9_Any_dataRKSU_St18_Manager_operation
libmxnet.so:_ZNSt14_Function_base13_Base_managerIZN4nnvm2Op8set_attrISt8functionIFSt6vectorISt4pairIiiESaIS7_EERKNS1_9NodeAttrsEEEEERS2_RKNSt7__cxx1112basic_stringIcSt11char_traitsIcESaIcEEERKT_iEUlPN4dmlc3anyEE_E10_M_managerERSt9_Any_dataRKSW_St18_Manager_operation
libmxnet.so:_ZNSt14_Function_base13_Base_managerIZN4nnvm2Op8set_attrISt8functionIFSt6vectorIbSaIbEERKNS1_9NodeAttrsEEEEERS2_RKNSt7__cxx1112basic_stringIcSt11char_traitsIcESaIcEEERKT_iEUlPN4dmlc3anyEE_E10_M_managerERSt9_Any_dataRKSU_St18_Manager_operation
libmxnet.so:_ZNSt14_Function_base13_Base_managerIZN4nnvm2Op8set_attrISt8functionIFSt6vectorIjSaIjEERKNS1_9NodeAttrsEEEEERS2_RKNSt7__cxx1112basic_stringIcSt11char_traitsIcESaIcEEERKT_iEUlPN4dmlc3anyEE_E10_M_managerERSt9_Any_dataRKSU_St18_Manager_operation
libmxnet.so:_ZNSt14_Function_base13_Base_managerIZN4nnvm2Op8set_attrISt8functionIFbRKNS1_9NodeAttrsEEEEERS2_RKNSt7__cxx1112basic_stringIcSt11char_traitsIcESaIcEEERKT_iEUlPN4dmlc3anyEE_E10_M_managerERSt9_Any_dataRKSR_St18_Manager_operation
libmxnet.so:_ZNSt14_Function_base13_Base_managerIZN4nnvm2Op8set_attrISt8functionIFbRKNS1_9NodeAttrsEPSt6vectorIN5mxnet6TShapeESaISA_EESD_EEEERS2_RKNSt7__cxx1112basic_stringIcSt11char_traitsIcESaIcEEERKT_iEUlPN4dmlc3anyEE_E10_M_managerERSt9_Any_dataRKSX_St18_Manager_operation
libmxnet.so:_ZNSt14_Function_base13_Base_managerIZN4nnvm2Op8set_attrISt8functionIFbRKNS1_9NodeAttrsEPSt6vectorIiSaIiEESB_EEEERS2_RKNSt7__cxx1112basic_stringIcSt11char_traitsIcESaIcEEERKT_iEUlPN4dmlc3anyEE_E10_M_managerERSt9_Any_dataRKSV_St18_Manager_operation
libmxnet.so:_ZNSt14_Function_base13_Base_managerIZN4nnvm2Op8set_attrISt8functionIFbRKNS1_9NodeAttrsEiPN5mxnet12DispatchModeEPSt6vectorIiSaIiEESE_EEEERS2_RKNSt7__cxx1112basic_stringIcSt11char_traitsIcESaIcEEERKT_iEUlPN4dmlc3anyEE_E10_M_managerERSt9_Any_dataRKSY_St18_Manager_operation
libmxnet.so:_ZNSt14_Function_base13_Base_managerIZN4nnvm2Op8set_attrISt8functionIFjRKNS1_9NodeAttrsEEEEERS2_RKNSt7__cxx1112basic_stringIcSt11char_traitsIcESaIcEEERKT_iEUlPN4dmlc3anyEE_E10_M_managerERSt9_Any_dataRKSR_St18_Manager_operation
libmxnet.so:_ZNSt14_Function_base13_Base_managerIZN4nnvm2Op8set_attrISt8functionIFvRKN5mxnet10OpStatePtrERKNS5_9OpContextERKSt6vectorINS5_5TBlobESaISD_EERKSC_INS5_9OpReqTypeESaISI_EESH_EEEERS2_RKNSt7__cxx1112basic_stringIcSt11char_traitsIcESaIcEEERKT_iEUlPN4dmlc3anyEE_E10_M_managerERSt9_Any_dataRKS16_St18_Manager_operation
libmxnet.so:_ZNSt14_Function_base13_Base_managerIZN4nnvm2Op8set_attrISt8functionIFvRKN5mxnet10OpStatePtrERKNS5_9OpContextERKSt6vectorINS5_7NDArrayESaISD_EERKSC_INS5_9OpReqTypeESaISI_EESH_EEEERS2_RKNSt7__cxx1112basic_stringIcSt11char_traitsIcESaIcEEERKT_iEUlPN4dmlc3anyEE_E10_M_managerERSt9_Any_dataRKS16_St18_Manager_operation
libmxnet.so:_ZNSt14_Function_base13_Base_managerIZN4nnvm2Op8set_attrISt8functionIFvRKNS1_9NodeAttrsERKN5mxnet9OpContextERKSt6vectorINS8_5TBlobESaISD_EERKSC_INS8_9OpReqTypeESaISI_EESH_EEEERS2_RKNSt7__cxx1112basic_stringIcSt11char_traitsIcESaIcEEERKT_iEUlPN4dmlc3anyEE_E10_M_managerERSt9_Any_dataRKS16_St18_Manager_operation
libmxnet.so:_ZNSt14_Function_base13_Base_managerIZN4nnvm2Op8set_attrISt8functionIFvRKNS1_9NodeAttrsERKN5mxnet9OpContextERKSt6vectorINS8_7NDArrayESaISD_EERKSC_INS8_9OpReqTypeESaISI_EESH_EEEERS2_RKNSt7__cxx1112basic_stringIcSt11char_traitsIcESaIcEEERKT_iEUlPN4dmlc3anyEE_E10_M_managerERSt9_Any_dataRKS16_St18_Manager_operation
libmxnet.so:_ZNSt14_Function_base13_Base_managerIZN4nnvm2Op8set_attrISt8functionIFvRKNS1_9NodeAttrsERKSt6vectorIN5mxnet7NDArrayESaISA_EEPSC_EEEERS2_RKNSt7__cxx1112basic_stringIcSt11char_traitsIcESaIcEEERKT_iEUlPN4dmlc3anyEE_E10_M_managerERSt9_Any_dataRKSZ_St18_Manager_operation
libmxnet.so:_ZNSt14_Function_base13_Base_managerIZN4nnvm2Op8set_attrISt8functionIFvRKNS1_9NodeAttrsESt10shared_ptrINS1_4NodeEEiEEEERS2_RKNSt7__cxx1112basic_stringIcSt11char_traitsIcESaIcEEERKT_iEUlPN4dmlc3anyEE_E10_M_managerERSt9_Any_dataRKSU_St18_Manager_operation
libmxnet.so:_ZNSt14_Function_base13_Base_managerIZN4nnvm2Op8set_attrIbEERS2_RKNSt7__cxx1112basic_stringIcSt11char_traitsIcESaIcEEERKT_iEUlPN4dmlc3anyEE_E10_M_managerERSt9_Any_dataRKSL_St18_Manager_operation
libmxnet.so:_ZNSt14_Function_base13_Base_managerIZN4nnvm4pass17GetVectorPrinter_ISt6vectorINS1_6TShapeESaIS5_EEEESt8functionIFvjRSoEERKT_EUljS9_E_E10_M_managerERSt9_Any_dataRKSH_St18_Manager_operation
libmxnet.so:_ZNSt14_Function_base13_Base_managerIZN4nnvm4pass17GetVectorPrinter_ISt6vectorINSt7__cxx1112basic_stringIcSt11char_traitsIcESaIcEEESaISA_EEEESt8functionIFvjRSoEERKT_EUljSE_E_E10_M_managerERSt9_Any_dataRKSM_St18_Manager_operation
libmxnet.so:_ZNSt14_Function_base13_Base_managerIZN4nnvm4pass17GetVectorPrinter_ISt6vectorIiSaIiEEEESt8functionIFvjRSoEERKT_EUljS8_E_E10_M_managerERSt9_Any_dataRKSG_St18_Manager_operation
libmxnet.so:_ZNSt14_Function_base13_Base_managerIZN5mxnet10imperative12PushFComputeERKSt8functionIFvRKN4nnvm9NodeAttrsERKNS1_9OpContextERKSt6vectorINS1_5TBlobESaISC_EERKSB_INS1_9OpReqTypeESaISH_EESG_EEPKNS4_2OpES7_RKNS1_7ContextERKSB_IPNS1_6engine3VarESaISY_EES12_RKSB_INS1_8ResourceESaIS13_EERKSB_IPNS1_7NDArrayESaIS19_EES1D_RKSB_IjSaIjEESL_EUlNS1_10RunContextEE_E10_M_managerERSt9_Any_dataRKS1L_St18_Manager_operation
libmxnet.so:_ZNSt14_Function_base13_Base_managerIZN5mxnet10imperative12PushOperatorERKNS1_10OpStatePtrEPKN4nnvm2OpERKNS6_9NodeAttrsERKNS1_7ContextERKSt6vectorIPNS1_6engine3VarESaISJ_EESN_RKSG_INS1_8ResourceESaISO_EERKSG_IPNS1_7NDArrayESaISU_EESY_RKSG_IjSaIjEERKSG_INS1_9OpReqTypeESaIS13_EENS1_12DispatchModeEEUlNS1_10RunContextEE0_E10_M_managerERSt9_Any_dataRKS1C_St18_Manager_operation
libmxnet.so:_ZNSt14_Function_base13_Base_managerIZN5mxnet10imperative12PushOperatorERKNS1_10OpStatePtrEPKN4nnvm2OpERKNS6_9NodeAttrsERKNS1_7ContextERKSt6vectorIPNS1_6engine3VarESaISJ_EESN_RKSG_INS1_8ResourceESaISO_EERKSG_IPNS1_7NDArrayESaISU_EESY_RKSG_IjSaIjEERKSG_INS1_9OpReqTypeESaIS13_EENS1_12DispatchModeEEUlNS1_10RunContextEE2_E10_M_managerERSt9_Any_dataRKS1C_St18_Manager_operation
libmxnet.so:_ZNSt14_Function_base13_Base_managerIZN5mxnet10imperative12PushOperatorERKNS1_10OpStatePtrEPKN4nnvm2OpERKNS6_9NodeAttrsERKNS1_7ContextERKSt6vectorIPNS1_6engine3VarESaISJ_EESN_RKSG_INS1_8ResourceESaISO_EERKSG_IPNS1_7NDArrayESaISU_EESY_RKSG_IjSaIjEERKSG_INS1_9OpReqTypeESaIS13_EENS1_12DispatchModeEEUlNS1_10RunContextENSH_18CallbackOnCompleteEE1_E10_M_managerERSt9_Any_dataRKS1D_St18_Manager_operation
libmxnet.so:_ZNSt14_Function_base13_Base_managerIZN5mxnet10imperative12PushOperatorERKNS1_10OpStatePtrEPKN4nnvm2OpERKNS6_9NodeAttrsERKNS1_7ContextERKSt6vectorIPNS1_6engine3VarESaISJ_EESN_RKSG_INS1_8ResourceESaISO_EERKSG_IPNS1_7NDArrayESaISU_EESY_RKSG_IjSaIjEERKSG_INS1_9OpReqTypeESaIS13_EENS1_12DispatchModeEEUlNS1_10RunContextENSH_18CallbackOnCompleteEE_E10_M_managerERSt9_Any_dataRKS1D_St18_Manager_operation
libmxnet.so:_ZNSt14_Function_base13_Base_managerIZN5mxnet10imperative14CreateEngineOpERKNS1_7ContextERKSt6vectorISt10shared_ptrINS1_4exec10OpExecutorEESaISA_EEEUlNS1_10RunContextENS1_6engine18CallbackOnCompleteEE_E10_M_managerERSt9_Any_dataRKSK_St18_Manager_operation
libmxnet.so:_ZNSt14_Function_base13_Base_managerIZN5mxnet10imperative14PushFComputeExERKSt8functionIFvRKN4nnvm9NodeAttrsERKNS1_9OpContextERKSt6vectorINS1_7NDArrayESaISC_EERKSB_INS1_9OpReqTypeESaISH_EESG_EEPKNS4_2OpES7_RKNS1_7ContextERKSB_IPNS1_6engine3VarESaISY_EES12_RKSB_INS1_8ResourceESaIS13_EERKSB_IPSC_SaIS18_EES1C_SL_EUlNS1_10RunContextEE_E10_M_managerERSt9_Any_dataRKS1G_St18_Manager_operation
libmxnet.so:_ZNSt14_Function_base13_Base_managerIZN5mxnet14BinaryOpKernelINS1_7ndarray3DivEEEvRKNS1_7NDArrayES7_PS5_EUlNS1_10RunContextEE_E10_M_managerERSt9_Any_dataRKSC_St18_Manager_operation
libmxnet.so:_ZNSt14_Function_base13_Base_managerIZN5mxnet14BinaryOpKernelINS1_7ndarray3MulEEEvRKNS1_7NDArrayES7_PS5_EUlNS1_10RunContextEE_E10_M_managerERSt9_Any_dataRKSC_St18_Manager_operation
libmxnet.so:_ZNSt14_Function_base13_Base_managerIZN5mxnet14BinaryOpKernelINS1_7ndarray4PlusEEEvRKNS1_7NDArrayES7_PS5_EUlNS1_10RunContextEE_E10_M_managerERSt9_Any_dataRKSC_St18_Manager_operation
libmxnet.so:_ZNSt14_Function_base13_Base_managerIZN5mxnet14BinaryOpKernelINS1_7ndarray5MinusEEEvRKNS1_7NDArrayES7_PS5_EUlNS1_10RunContextEE_E10_M_managerERSt9_Any_dataRKSC_St18_Manager_operation
libmxnet.so:_ZNSt14_Function_base13_Base_managerIZN5mxnet18NDArrayFunctionReg12set_functionEPFvRKNS1_7NDArrayES5_PS3_EEUlPS6_PfS9_iPPcSC_E_E10_M_managerERSt9_Any_dataRKSF_St18_Manager_operation
libmxnet.so:_ZNSt14_Function_base13_Base_managerIZN5mxnet18NDArrayFunctionReg12set_functionEPFvRKNS1_7NDArrayES5_S5_PS3_EEUlPS6_PfS9_iPPcSC_E_E10_M_managerERSt9_Any_dataRKSF_St18_Manager_operation
libmxnet.so:_ZNSt14_Function_base13_Base_managerIZN5mxnet18NDArrayFunctionReg12set_functionEPFvRKfPNS1_7NDArrayEEEUlPS6_PfS9_iPPcSC_E_E10_M_managerERSt9_Any_dataRKSF_St18_Manager_operation
libmxnet.so:_ZNSt14_Function_base13_Base_managerIZN5mxnet2io14PrefetcherIter4InitERKSt6vectorISt4pairINSt7__cxx1112basic_stringIcSt11char_traitsIcESaIcEEESB_ESaISC_EEEUlPPNS1_9DataBatchEE_E10_M_managerERSt9_Any_dataRKSM_St18_Manager_operation
libmxnet.so:_ZNSt14_Function_base13_Base_managerIZN5mxnet2io14PrefetcherIter4InitERKSt6vectorISt4pairINSt7__cxx1112basic_stringIcSt11char_traitsIcESaIcEEESB_ESaISC_EEEUlvE0_E10_M_managerERSt9_Any_dataRKSJ_St18_Manager_operation
libmxnet.so:_ZNSt14_Function_base13_Base_managerIZN5mxnet2io15ImageRecordIterIfE4InitERKSt6vectorISt4pairINSt7__cxx1112basic_stringIcSt11char_traitsIcESaIcEEESC_ESaISD_EEEUlPPS5_INS2_10InstVectorIfEESaISJ_EEE_E10_M_managerERSt9_Any_dataRKSQ_St18_Manager_operation
libmxnet.so:_ZNSt14_Function_base13_Base_managerIZN5mxnet2io15ImageRecordIterIfE4InitERKSt6vectorISt4pairINSt7__cxx1112basic_stringIcSt11char_traitsIcESaIcEEESC_ESaISD_EEEUlvE0_E10_M_managerERSt9_Any_dataRKSK_St18_Manager_operation
libmxnet.so:_ZNSt14_Function_base13_Base_managerIZN5mxnet2io15ImageRecordIterIhE4InitERKSt6vectorISt4pairINSt7__cxx1112basic_stringIcSt11char_traitsIcESaIcEEESC_ESaISD_EEEUlPPS5_INS2_10InstVectorIhEESaISJ_EEE_E10_M_managerERSt9_Any_dataRKSQ_St18_Manager_operation
libmxnet.so:_ZNSt14_Function_base13_Base_managerIZN5mxnet2io15ImageRecordIterIhE4InitERKSt6vectorISt4pairINSt7__cxx1112basic_stringIcSt11char_traitsIcESaIcEEESC_ESaISD_EEEUlvE0_E10_M_managerERSt9_Any_dataRKSK_St18_Manager_operation
libmxnet.so:_ZNSt14_Function_base13_Base_managerIZN5mxnet2io16ImageRecordIter2IaE4InitERKSt6vectorISt4pairINSt7__cxx1112basic_stringIcSt11char_traitsIcESaIcEEESC_ESaISD_EEEUlPPNS1_9DataBatchEE_E10_M_managerERSt9_Any_dataRKSN_St18_Manager_operation
libmxnet.so:_ZNSt14_Function_base13_Base_managerIZN5mxnet2io16ImageRecordIter2IaE4InitERKSt6vectorISt4pairINSt7__cxx1112basic_stringIcSt11char_traitsIcESaIcEEESC_ESaISD_EEEUlvE0_E10_M_managerERSt9_Any_dataRKSK_St18_Manager_operation
libmxnet.so:_ZNSt14_Function_base13_Base_managerIZN5mxnet2io16ImageRecordIter2IfE4InitERKSt6vectorISt4pairINSt7__cxx1112basic_stringIcSt11char_traitsIcESaIcEEESC_ESaISD_EEEUlPPNS1_9DataBatchEE_E10_M_managerERSt9_Any_dataRKSN_St18_Manager_operation
libmxnet.so:_ZNSt14_Function_base13_Base_managerIZN5mxnet2io16ImageRecordIter2IfE4InitERKSt6vectorISt4pairINSt7__cxx1112basic_stringIcSt11char_traitsIcESaIcEEESC_ESaISD_EEEUlvE0_E10_M_managerERSt9_Any_dataRKSK_St18_Manager_operation
libmxnet.so:_ZNSt14_Function_base13_Base_managerIZN5mxnet2io16ImageRecordIter2IhE4InitERKSt6vectorISt4pairINSt7__cxx1112basic_stringIcSt11char_traitsIcESaIcEEESC_ESaISD_EEEUlPPNS1_9DataBatchEE_E10_M_managerERSt9_Any_dataRKSN_St18_Manager_operation
libmxnet.so:_ZNSt14_Function_base13_Base_managerIZN5mxnet2io16ImageRecordIter2IhE4InitERKSt6vectorISt4pairINSt7__cxx1112basic_stringIcSt11char_traitsIcESaIcEEESC_ESaISD_EEEUlvE0_E10_M_managerERSt9_Any_dataRKSK_St18_Manager_operation
libmxnet.so:_ZNSt14_Function_base13_Base_managerIZN5mxnet2io18ImageDetRecordIterIfE4InitERKSt6vectorISt4pairINSt7__cxx1112basic_stringIcSt11char_traitsIcESaIcEEESC_ESaISD_EEEUlPPS5_INS2_10InstVectorIfEESaISJ_EEE_E10_M_managerERSt9_Any_dataRKSQ_St18_Manager_operation
libmxnet.so:_ZNSt14_Function_base13_Base_managerIZN5mxnet2io18ImageDetRecordIterIfE4InitERKSt6vectorISt4pairINSt7__cxx1112basic_stringIcSt11char_traitsIcESaIcEEESC_ESaISD_EEEUlvE0_E10_M_managerERSt9_Any_dataRKSK_St18_Manager_operation
libmxnet.so:_ZNSt14_Function_base13_Base_managerIZN5mxnet2io19ImageRecordIter2CPUIaE4NextEvEUlNS1_10RunContextEE_E10_M_managerERSt9_Any_dataRKS8_St18_Manager_operation
libmxnet.so:_ZNSt14_Function_base13_Base_managerIZN5mxnet2io19ImageRecordIter2CPUIaED4EvEUlNS1_10RunContextEE_E10_M_managerERSt9_Any_dataRKS8_St18_Manager_operation
libmxnet.so:_ZNSt14_Function_base13_Base_managerIZN5mxnet2io19ImageRecordIter2CPUIfE4NextEvEUlNS1_10RunContextEE_E10_M_managerERSt9_Any_dataRKS8_St18_Manager_operation
libmxnet.so:_ZNSt14_Function_base13_Base_managerIZN5mxnet2io19ImageRecordIter2CPUIfED4EvEUlNS1_10RunContextEE_E10_M_managerERSt9_Any_dataRKS8_St18_Manager_operation
libmxnet.so:_ZNSt14_Function_base13_Base_managerIZN5mxnet2io19ImageRecordIter2CPUIhE4NextEvEUlNS1_10RunContextEE_E10_M_managerERSt9_Any_dataRKS8_St18_Manager_operation
libmxnet.so:_ZNSt14_Function_base13_Base_managerIZN5mxnet2io19ImageRecordIter2CPUIhED4EvEUlNS1_10RunContextEE_E10_M_managerERSt9_Any_dataRKS8_St18_Manager_operation
libmxnet.so:_ZNSt14_Function_base13_Base_managerIZN5mxnet2io20SparsePrefetcherIter4InitERKSt6vectorISt4pairINSt7__cxx1112basic_stringIcSt11char_traitsIcESaIcEEESB_ESaISC_EEEUlPPNS1_9DataBatchEE_E10_M_managerERSt9_Any_dataRKSM_St18_Manager_operation
libmxnet.so:_ZNSt14_Function_base13_Base_managerIZN5mxnet2io20SparsePrefetcherIter4InitERKSt6vectorISt4pairINSt7__cxx1112basic_stringIcSt11char_traitsIcESaIcEEESB_ESaISC_EEEUlvE0_E10_M_managerERSt9_Any_dataRKSJ_St18_Manager_operation
libmxnet.so:_ZNSt14_Function_base13_Base_managerIZN5mxnet2op9NDArrayOpIN7mshadow3cpuEE7ForwardERKNS1_9OpContextERKSt6vectorINS1_5TBlobESaISB_EERKSA_INS1_9OpReqTypeESaISG_EESF_SF_EUlNS1_10RunContextENS1_6engine18CallbackOnCompleteEE_E10_M_managerERSt9_Any_dataRKSQ_St18_Manager_operation
libmxnet.so:_ZNSt14_Function_base13_Base_managerIZN5mxnet2op9NDArrayOpIN7mshadow3cpuEE8BackwardERKNS1_9OpContextERKSt6vectorINS1_5TBlobESaISB_EESF_SF_RKSA_INS1_9OpReqTypeESaISG_EESF_SF_EUlNS1_10RunContextENS1_6engine18CallbackOnCompleteEE_E10_M_managerERSt9_Any_dataRKSQ_St18_Manager_operation
libmxnet.so:_ZNSt14_Function_base13_Base_managerIZN5mxnet6Engine8PushSyncESt8functionIFvNS1_10RunContextEEENS1_7ContextERKSt6vectorIPNS1_6engine3VarESaISB_EESF_NS1_10FnPropertyEiPKcEUlS4_NS9_18CallbackOnCompleteEE_E10_M_managerERSt9_Any_dataRKSM_St18_Manager_operation
libmxnet.so:_ZNSt14_Function_base13_Base_managerIZN5mxnet6engine11NaiveEngine14DeleteVariableESt8functionIFvNS1_10RunContextEEENS1_7ContextEPNS2_3VarEEUlS5_NS2_18CallbackOnCompleteEE_E10_M_managerERSt9_Any_dataRKSE_St18_Manager_operation
libmxnet.so:_ZNSt14_Function_base13_Base_managerIZN5mxnet6engine11NaiveEngine4PushEPNS2_3OprENS1_7ContextEibEUlNS1_10RunContextENS2_18CallbackOnCompleteEE_E10_M_managerERSt9_Any_dataRKSB_St18_Manager_operation
libmxnet.so:_ZNSt14_Function_base13_Base_managerIZN5mxnet6engine14ThreadedEngine9BulkFlushEvEUlNS1_10RunContextENS2_18CallbackOnCompleteEE_E10_M_managerERSt9_Any_dataRKS8_St18_Manager_operation
libmxnet.so:_ZNSt14_Function_base13_Base_managerIZN5mxnet6engine20ThreadedEnginePooled5StartEvEUlSt10shared_ptrIN4dmlc11ManualEventEEE0_E10_M_managerERSt9_Any_dataRKSA_St18_Manager_operation
libmxnet.so:_ZNSt14_Function_base13_Base_managerIZN5mxnet6engine20ThreadedEnginePooled5StartEvEUlSt10shared_ptrIN4dmlc11ManualEventEEE_E10_M_managerERSt9_Any_dataRKSA_St18_Manager_operation
libmxnet.so:_ZNSt14_Function_base13_Base_managerIZN5mxnet6engine23ThreadedEnginePerDevice5StartEvEUlSt10shared_ptrIN4dmlc11ManualEventEEE_E10_M_managerERSt9_Any_dataRKSA_St18_Manager_operation
libmxnet.so:_ZNSt14_Function_base13_Base_managerIZN5mxnet7kvstore10CommDevice18BroadcastRowSparseEiRKNS1_7NDArrayERKSt6vectorISt4pairIPS4_S4_ESaISA_EEiEUlNS1_10RunContextENS1_6engine18CallbackOnCompleteEE_E10_M_managerERSt9_Any_dataRKSK_St18_Manager_operation
libmxnet.so:_ZNSt14_Function_base13_Base_managerIZN5mxnet7kvstore12KVStoreLocal6UniqueERKNS1_7NDArrayENS1_7ContextEiEUlNS1_10RunContextENS1_6engine18CallbackOnCompleteEE_E10_M_managerERSt9_Any_dataRKSD_St18_Manager_operation
libmxnet.so:_ZNSt14_Function_base13_Base_managerIZN5mxnet7kvstore7CommCPU18BroadcastRowSparseEiRKNS1_7NDArrayERKSt6vectorISt4pairIPS4_S4_ESaISA_EEiEUlNS1_10RunContextENS1_6engine18CallbackOnCompleteEE_E10_M_managerERSt9_Any_dataRKSK_St18_Manager_operation
libmxnet.so:_ZNSt14_Function_base13_Base_managerIZN5mxnet7kvstore7CommCPU6ReduceEiRKSt6vectorINS1_7NDArrayESaIS5_EEiEUlNS1_10RunContextENS1_6engine18CallbackOnCompleteEE0_E10_M_managerERSt9_Any_dataRKSF_St18_Manager_operation
libmxnet.so:_ZNSt14_Function_base13_Base_managerIZN5mxnet7kvstore7CommCPU6ReduceEiRKSt6vectorINS1_7NDArrayESaIS5_EEiEUlNS1_10RunContextENS1_6engine18CallbackOnCompleteEE_E10_M_managerERSt9_Any_dataRKSF_St18_Manager_operation
libmxnet.so:_ZNSt14_Function_base13_Base_managerIZN5mxnet8BinaryOpINS1_7ndarray12OneHotEncodeEEEvRKNS1_7NDArrayES7_PS5_EUlNS1_10RunContextEE_E10_M_managerERSt9_Any_dataRKSC_St18_Manager_operation
libmxnet.so:_ZNSt14_Function_base13_Base_managerIZN5mxnet8SampleOPINS1_7ndarray19PoissonDistributionEEEvRKfS6_PNS1_7NDArrayEEUlNS1_10RunContextEE_E10_M_managerERSt9_Any_dataRKSC_St18_Manager_operation
libmxnet.so:_ZNSt14_Function_base13_Base_managerIZN5mxnet8SampleOPINS1_7ndarray19UniformDistributionEEEvRKfS6_PNS1_7NDArrayEEUlNS1_10RunContextEE_E10_M_managerERSt9_Any_dataRKSC_St18_Manager_operation
libmxnet.so:_ZNSt14_Function_base13_Base_managerIZN5mxnet8SampleOPINS1_7ndarray20GaussianDistributionEEEvRKfS6_PNS1_7NDArrayEEUlNS1_10RunContextEE_E10_M_managerERSt9_Any_dataRKSC_St18_Manager_operation
libmxnet.so:_ZNSt14_Function_base13_Base_managerIZN5mxnet8SampleOPINS1_7ndarray23ExponentialDistributionEEEvRKfS6_PNS1_7NDArrayEEUlNS1_10RunContextEE_E10_M_managerERSt9_Any_dataRKSC_St18_Manager_operation
libmxnet.so:_ZNSt14_Function_base13_Base_managerIZN5mxnet8SampleOPINS1_7ndarray23NegBinomialDistributionEEEvRKfS6_PNS1_7NDArrayEEUlNS1_10RunContextEE_E10_M_managerERSt9_Any_dataRKSC_St18_Manager_operation
libmxnet.so:_ZNSt14_Function_base13_Base_managerIZN5mxnet8SampleOPINS1_7ndarray26GenNegBinomialDistributionEEEvRKfS6_PNS1_7NDArrayEEUlNS1_10RunContextEE_E10_M_managerERSt9_Any_dataRKSC_St18_Manager_operation
libmxnet.so:_ZNSt14_Function_base13_Base_managerIZN5mxnet8ScalarOpINS1_7ndarray3DivELb0EEEvRKNS1_7NDArrayERKfPS5_EUlNS1_10RunContextEE_E10_M_managerERSt9_Any_dataRKSE_St18_Manager_operation
libmxnet.so:_ZNSt14_Function_base13_Base_managerIZN5mxnet8ScalarOpINS1_7ndarray3MulELb0EEEvRKNS1_7NDArrayERKfPS5_EUlNS1_10RunContextEE_E10_M_managerERSt9_Any_dataRKSE_St18_Manager_operation
libmxnet.so:_ZNSt14_Function_base13_Base_managerIZN5mxnet8ScalarOpINS1_7ndarray4PlusELb0EEEvRKNS1_7NDArrayERKfPS5_EUlNS1_10RunContextEE_E10_M_managerERSt9_Any_dataRKSE_St18_Manager_operation
libmxnet.so:_ZNSt14_Function_base13_Base_managerIZN5mxnet8ScalarOpINS1_7ndarray5MinusELb0EEEvRKNS1_7NDArrayERKfPS5_EUlNS1_10RunContextEE_E10_M_managerERSt9_Any_dataRKSE_St18_Manager_operation
libmxnet.so:_ZNSt14_Function_base13_Base_managerIZN5mxnet8resource19ResourceManagerImpl14ResourceRandomIN7mshadow3cpuEE4SeedEjEUlNS1_10RunContextENS1_6engine18CallbackOnCompleteEE_E10_M_managerERSt9_Any_dataRKSD_St18_Manager_operation
libmxnet.so:_ZNSt14_Function_base13_Base_managerIZN5mxnet8resource19ResourceManagerImpl14ResourceRandomIN7mshadow3cpuEED4EvEUlNS1_10RunContextEE_E10_M_managerERSt9_Any_dataRKSB_St18_Manager_operation
libmxnet.so:_ZNSt14_Function_base13_Base_managerIZN5mxnet8resource19ResourceManagerImpl17ResourceTempSpaceILNS1_15ResourceRequest4TypeE1EED4EvEUlNS1_10RunContextEE_E10_M_managerERSt9_Any_dataRKSB_St18_Manager_operation
libmxnet.so:_ZNSt14_Function_base13_Base_managerIZN5mxnet8resource19ResourceManagerImpl22ResourceParallelRandomIN7mshadow3cpuEE7SeedOneEmjEUlNS1_10RunContextENS1_6engine18CallbackOnCompleteEE_E10_M_managerERSt9_Any_dataRKSD_St18_Manager_operation
libmxnet.so:_ZNSt14_Function_base13_Base_managerIZN5mxnet8resource19ResourceManagerImpl22ResourceParallelRandomIN7mshadow3cpuEEC4ENS1_7ContextEmjEUlNS1_10RunContextEE_E10_M_managerERSt9_Any_dataRKSC_St18_Manager_operation
libmxnet.so:_ZNSt14_Function_base13_Base_managerIZN5mxnet8resource19ResourceManagerImpl22ResourceParallelRandomIN7mshadow3cpuEED4EvEUlNS1_10RunContextEE_E10_M_managerERSt9_Any_dataRKSB_St18_Manager_operation
libmxnet.so:_ZNSt14_Function_base13_Base_managerIZN5mxnet9TernaryOpINS1_7ndarray14MatFillRowElemEEEvRKNS1_7NDArrayES7_S7_PS5_EUlNS1_10RunContextEE_E10_M_managerERSt9_Any_dataRKSC_St18_Manager_operation
libmxnet.so:_ZNSt14_Function_base13_Base_managerIZNK5mxnet7NDArray11WaitToWriteEvEUlNS1_10RunContextENS1_6engine18CallbackOnCompleteEE_E10_M_managerERSt9_Any_dataRKS8_St18_Manager_operation
libmxnet.so:_ZNSt14_Function_base13_Base_managerIZZN5mxnet10OpStatePtr6CreateINS1_15custom_function19CustomFunctionParamEJEEES2_DpOT0_ENKUlPNS2_7OpStateEE_clESA_EUlNS1_10RunContextEE_E10_M_managerERSt9_Any_dataRKSF_St18_Manager_operation
libmxnet.so:_ZNSt14_Function_base13_Base_managerIZZN5mxnet10OpStatePtr6CreateINS1_19CachedOpActualStateEJRKSt10shared_ptrINS1_8CachedOpEEEEES2_DpOT0_ENKUlPNS2_7OpStateEE_clESE_EUlNS1_10RunContextEE_E10_M_managerERSt9_Any_dataRKSJ_St18_Manager_operation
libmxnet.so:_ZNSt14_Function_base13_Base_managerIZZN5mxnet10OpStatePtr6CreateINS1_2op12ForeachStateEJRN4nnvm6SymbolERKNS4_12ForeachParamEEEES2_DpOT0_ENKUlPNS2_7OpStateEE_clESG_EUlNS1_10RunContextEE_E10_M_managerERSt9_Any_dataRKSL_St18_Manager_operation
libmxnet.so:_ZNSt14_Function_base13_Base_managerIZZN5mxnet10OpStatePtr6CreateINS1_2op13OperatorStateEJPNS1_8OperatorEPNS1_16OperatorPropertyEEEES2_DpOT0_ENKUlPNS2_7OpStateEE_clESE_EUlNS1_10RunContextEE_E10_M_managerERSt9_Any_dataRKSJ_St18_Manager_operation
libmxnet.so:_ZNSt14_Function_base13_Base_managerIZZN5mxnet10OpStatePtr6CreateINS1_2op14WhileLoopStateEJRKNS4_14WhileLoopParamERN4nnvm6SymbolESB_EEES2_DpOT0_ENKUlPNS2_7OpStateEE_clESG_EUlNS1_10RunContextEE_E10_M_managerERSt9_Any_dataRKSL_St18_Manager_operation
libmxnet.so:_ZNSt14_Function_base13_Base_managerIZZN5mxnet10OpStatePtr6CreateINS1_2op18DequantizeOperatorIN7mshadow3cpuEEEJRKN4nnvm9NodeAttrsEEEES2_DpOT0_ENKUlPNS2_7OpStateEE_clESH_EUlNS1_10RunContextEE_E10_M_managerERSt9_Any_dataRKSM_St18_Manager_operation
libmxnet.so:_ZNSt14_Function_base13_Base_managerIZZN5mxnet10OpStatePtr6CreateINS1_2op18DequantizeOperatorIN7mshadow3gpuEEEJRKN4nnvm9NodeAttrsEEEES2_DpOT0_ENKUlPNS2_7OpStateEE_clESH_EUlNS1_10RunContextEE_E10_M_managerERSt9_Any_dataRKSM_St18_Manager_operation
libmxnet.so:_ZNSt14_Function_base13_Base_managerIZZN5mxnet10OpStatePtr6CreateINS1_2op18QuantizeV2OperatorIN7mshadow3cpuEEEJRKN4nnvm9NodeAttrsEEEES2_DpOT0_ENKUlPNS2_7OpStateEE_clESH_EUlNS1_10RunContextEE_E10_M_managerERSt9_Any_dataRKSM_St18_Manager_operation
libmxnet.so:_ZNSt14_Function_base13_Base_managerIZZN5mxnet10OpStatePtr6CreateINS1_2op18QuantizeV2OperatorIN7mshadow3gpuEEEJRKN4nnvm9NodeAttrsEEEES2_DpOT0_ENKUlPNS2_7OpStateEE_clESH_EUlNS1_10RunContextEE_E10_M_managerERSt9_Any_dataRKSM_St18_Manager_operation
libmxnet.so:_ZNSt14_Function_base13_Base_managerIZZN5mxnet10OpStatePtr6CreateINS1_2op5RNNOpIN7mshadow3cpuENS6_4half6half_tES9_EEJRKNS4_8RNNParamERKNS1_7ContextEEEES2_DpOT0_ENKUlPNS2_7OpStateEE_clESL_EUlNS1_10RunContextEE_E10_M_managerERSt9_Any_dataRKSQ_St18_Manager_operation
libmxnet.so:_ZNSt14_Function_base13_Base_managerIZZN5mxnet10OpStatePtr6CreateINS1_2op5RNNOpIN7mshadow3cpuENS6_4half6half_tEaEEJRKNS4_8RNNParamERKNS1_7ContextEEEES2_DpOT0_ENKUlPNS2_7OpStateEE_clESL_EUlNS1_10RunContextEE_E10_M_managerERSt9_Any_dataRKSQ_St18_Manager_operation
libmxnet.so:_ZNSt14_Function_base13_Base_managerIZZN5mxnet10OpStatePtr6CreateINS1_2op5RNNOpIN7mshadow3cpuENS6_4half6half_tEdEEJRKNS4_8RNNParamERKNS1_7ContextEEEES2_DpOT0_ENKUlPNS2_7OpStateEE_clESL_EUlNS1_10RunContextEE_E10_M_managerERSt9_Any_dataRKSQ_St18_Manager_operation
libmxnet.so:_ZNSt14_Function_base13_Base_managerIZZN5mxnet10OpStatePtr6CreateINS1_2op5RNNOpIN7mshadow3cpuENS6_4half6half_tEfEEJRKNS4_8RNNParamERKNS1_7ContextEEEES2_DpOT0_ENKUlPNS2_7OpStateEE_clESL_EUlNS1_10RunContextEE_E10_M_managerERSt9_Any_dataRKSQ_St18_Manager_operation
libmxnet.so:_ZNSt14_Function_base13_Base_managerIZZN5mxnet10OpStatePtr6CreateINS1_2op5RNNOpIN7mshadow3cpuENS6_4half6half_tEhEEJRKNS4_8RNNParamERKNS1_7ContextEEEES2_DpOT0_ENKUlPNS2_7OpStateEE_clESL_EUlNS1_10RunContextEE_E10_M_managerERSt9_Any_dataRKSQ_St18_Manager_operation
libmxnet.so:_ZNSt14_Function_base13_Base_managerIZZN5mxnet10OpStatePtr6CreateINS1_2op5RNNOpIN7mshadow3cpuENS6_4half6half_tEiEEJRKNS4_8RNNParamERKNS1_7ContextEEEES2_DpOT0_ENKUlPNS2_7OpStateEE_clESL_EUlNS1_10RunContextEE_E10_M_managerERSt9_Any_dataRKSQ_St18_Manager_operation
libmxnet.so:_ZNSt14_Function_base13_Base_managerIZZN5mxnet10OpStatePtr6CreateINS1_2op5RNNOpIN7mshadow3cpuENS6_4half6half_tElEEJRKNS4_8RNNParamERKNS1_7ContextEEEES2_DpOT0_ENKUlPNS2_7OpStateEE_clESL_EUlNS1_10RunContextEE_E10_M_managerERSt9_Any_dataRKSQ_St18_Manager_operation
libmxnet.so:_ZNSt14_Function_base13_Base_managerIZZN5mxnet10OpStatePtr6CreateINS1_2op5RNNOpIN7mshadow3cpuEdNS6_4half6half_tEEEJRKNS4_8RNNParamERKNS1_7ContextEEEES2_DpOT0_ENKUlPNS2_7OpStateEE_clESL_EUlNS1_10RunContextEE_E10_M_managerERSt9_Any_dataRKSQ_St18_Manager_operation
libmxnet.so:_ZNSt14_Function_base13_Base_managerIZZN5mxnet10OpStatePtr6CreateINS1_2op5RNNOpIN7mshadow3cpuEdaEEJRKNS4_8RNNParamERKNS1_7ContextEEEES2_DpOT0_ENKUlPNS2_7OpStateEE_clESJ_EUlNS1_10RunContextEE_E10_M_managerERSt9_Any_dataRKSO_St18_Manager_operation
libmxnet.so:_ZNSt14_Function_base13_Base_managerIZZN5mxnet10OpStatePtr6CreateINS1_2op5RNNOpIN7mshadow3cpuEddEEJRKNS4_8RNNParamERKNS1_7ContextEEEES2_DpOT0_ENKUlPNS2_7OpStateEE_clESJ_EUlNS1_10RunContextEE_E10_M_managerERSt9_Any_dataRKSO_St18_Manager_operation
libmxnet.so:_ZNSt14_Function_base13_Base_managerIZZN5mxnet10OpStatePtr6CreateINS1_2op5RNNOpIN7mshadow3cpuEdfEEJRKNS4_8RNNParamERKNS1_7ContextEEEES2_DpOT0_ENKUlPNS2_7OpStateEE_clESJ_EUlNS1_10RunContextEE_E10_M_managerERSt9_Any_dataRKSO_St18_Manager_operation
libmxnet.so:_ZNSt14_Function_base13_Base_managerIZZN5mxnet10OpStatePtr6CreateINS1_2op5RNNOpIN7mshadow3cpuEdhEEJRKNS4_8RNNParamERKNS1_7ContextEEEES2_DpOT0_ENKUlPNS2_7OpStateEE_clESJ_EUlNS1_10RunContextEE_E10_M_managerERSt9_Any_dataRKSO_St18_Manager_operation
libmxnet.so:_ZNSt14_Function_base13_Base_managerIZZN5mxnet10OpStatePtr6CreateINS1_2op5RNNOpIN7mshadow3cpuEdiEEJRKNS4_8RNNParamERKNS1_7ContextEEEES2_DpOT0_ENKUlPNS2_7OpStateEE_clESJ_EUlNS1_10RunContextEE_E10_M_managerERSt9_Any_dataRKSO_St18_Manager_operation
libmxnet.so:_ZNSt14_Function_base13_Base_managerIZZN5mxnet10OpStatePtr6CreateINS1_2op5RNNOpIN7mshadow3cpuEdlEEJRKNS4_8RNNParamERKNS1_7ContextEEEES2_DpOT0_ENKUlPNS2_7OpStateEE_clESJ_EUlNS1_10RunContextEE_E10_M_managerERSt9_Any_dataRKSO_St18_Manager_operation
libmxnet.so:_ZNSt14_Function_base13_Base_managerIZZN5mxnet10OpStatePtr6CreateINS1_2op5RNNOpIN7mshadow3cpuEfNS6_4half6half_tEEEJRKNS4_8RNNParamERKNS1_7ContextEEEES2_DpOT0_ENKUlPNS2_7OpStateEE_clESL_EUlNS1_10RunContextEE_E10_M_managerERSt9_Any_dataRKSQ_St18_Manager_operation
libmxnet.so:_ZNSt14_Function_base13_Base_managerIZZN5mxnet10OpStatePtr6CreateINS1_2op5RNNOpIN7mshadow3cpuEfaEEJRKNS4_8RNNParamERKNS1_7ContextEEEES2_DpOT0_ENKUlPNS2_7OpStateEE_clESJ_EUlNS1_10RunContextEE_E10_M_managerERSt9_Any_dataRKSO_St18_Manager_operation
libmxnet.so:_ZNSt14_Function_base13_Base_managerIZZN5mxnet10OpStatePtr6CreateINS1_2op5RNNOpIN7mshadow3cpuEfdEEJRKNS4_8RNNParamERKNS1_7ContextEEEES2_DpOT0_ENKUlPNS2_7OpStateEE_clESJ_EUlNS1_10RunContextEE_E10_M_managerERSt9_Any_dataRKSO_St18_Manager_operation
libmxnet.so:_ZNSt14_Function_base13_Base_managerIZZN5mxnet10OpStatePtr6CreateINS1_2op5RNNOpIN7mshadow3cpuEffEEJRKNS4_8RNNParamERKNS1_7ContextEEEES2_DpOT0_ENKUlPNS2_7OpStateEE_clESJ_EUlNS1_10RunContextEE_E10_M_managerERSt9_Any_dataRKSO_St18_Manager_operation
libmxnet.so:_ZNSt14_Function_base13_Base_managerIZZN5mxnet10OpStatePtr6CreateINS1_2op5RNNOpIN7mshadow3cpuEfhEEJRKNS4_8RNNParamERKNS1_7ContextEEEES2_DpOT0_ENKUlPNS2_7OpStateEE_clESJ_EUlNS1_10RunContextEE_E10_M_managerERSt9_Any_dataRKSO_St18_Manager_operation
libmxnet.so:_ZNSt14_Function_base13_Base_managerIZZN5mxnet10OpStatePtr6CreateINS1_2op5RNNOpIN7mshadow3cpuEfiEEJRKNS4_8RNNParamERKNS1_7ContextEEEES2_DpOT0_ENKUlPNS2_7OpStateEE_clESJ_EUlNS1_10RunContextEE_E10_M_managerERSt9_Any_dataRKSO_St18_Manager_operation
libmxnet.so:_ZNSt14_Function_base13_Base_managerIZZN5mxnet10OpStatePtr6CreateINS1_2op5RNNOpIN7mshadow3cpuEflEEJRKNS4_8RNNParamERKNS1_7ContextEEEES2_DpOT0_ENKUlPNS2_7OpStateEE_clESJ_EUlNS1_10RunContextEE_E10_M_managerERSt9_Any_dataRKSO_St18_Manager_operation
libmxnet.so:_ZNSt14_Function_base13_Base_managerIZZN5mxnet10OpStatePtr6CreateINS1_2op5RNNOpIN7mshadow3gpuENS6_4half6half_tES9_EEJRKNS4_8RNNParamERKNS1_7ContextEEEES2_DpOT0_ENKUlPNS2_7OpStateEE_clESL_EUlNS1_10RunContextEE_E10_M_managerERSt9_Any_dataRKSQ_St18_Manager_operation
